Archive member included because of file (symbol)

/opt/microchip/xc32/v2.41/bin/bin/../../lib/gcc/pic32mx/4.8.3/libgcc.a(floatunsisf.o)
                              build/default/production/_ext/1650642999/tof.o (__floatunsisf)
/opt/microchip/xc32/v2.41/bin/bin/../../lib/gcc/pic32mx/4.8.3/../../../../pic32mx/lib/libpic32.a(memcmp.o)
                              build/default/production/_ext/1650642999/comms.o (memcmp)
/opt/microchip/xc32/v2.41/bin/bin/../../lib/gcc/pic32mx/4.8.3/../../../../pic32mx/lib/libpic32.a(memcpy.o)
                              build/default/production/_ext/1650642999/comms.o (memcpy)
/opt/microchip/xc32/v2.41/bin/bin/../../lib/gcc/pic32mx/4.8.3/../../../../pic32mx/lib/libpic32.a(memset.o)
                              build/default/production/_ext/1650642999/comms.o (memset)
/opt/microchip/xc32/v2.41/bin/bin/../../lib/gcc/pic32mx/4.8.3/../../../../pic32mx/lib/libpic32.a(default-bootstrap-exception-handler.o)
                              /tmp/cckkSrlX.o (_bootstrap_exception_handler)
/opt/microchip/xc32/v2.41/bin/bin/../../lib/gcc/pic32mx/4.8.3/../../../../pic32mx/lib/libpic32.a(default-on-reset.o)
                              /tmp/cckkSrlX.o (_on_reset)
/opt/microchip/xc32/v2.41/bin/bin/../../lib/gcc/pic32mx/4.8.3/../../../../pic32mx/lib/libpic32.a(default-on-bootstrap.o)
                              /tmp/cckkSrlX.o (_on_bootstrap)
/opt/microchip/xc32/v2.41/bin/bin/../../lib/gcc/pic32mx/4.8.3/../../../../pic32mx/lib/libpic32.a(default-nmi-handler.o)
                              /tmp/cckkSrlX.o (_nmi_handler)
/opt/microchip/xc32/v2.41/bin/bin/../../lib/gcc/pic32mx/4.8.3/../../../../pic32mx/lib/libpic32.a(pic32_data_init.o)
                              /tmp/cckkSrlX.o (__pic32_data_init)
/opt/microchip/xc32/v2.41/bin/bin/../../lib/gcc/pic32mx/4.8.3/../../../../pic32mx/lib/libpic32.a(pic32_init_cache.o)
                              /tmp/cckkSrlX.o (__pic32_init_cache)
/opt/microchip/xc32/v2.41/bin/bin/../../lib/gcc/pic32mx/4.8.3/../../../../pic32mx/lib/libpic32.a(pic32_init_tlb_ebi_sqi.o)
                              /tmp/cckkSrlX.o (__pic32_tlb_init_ebi_sqi)
/opt/microchip/xc32/v2.41/bin/bin/../../lib/gcc/pic32mx/4.8.3/../../../../pic32mx/lib/libpic32.a(cache-err-exception.o)
                              /tmp/cckkSrlX.o (_cache_err_exception_context)
/opt/microchip/xc32/v2.41/bin/bin/../../lib/gcc/pic32mx/4.8.3/../../../../pic32mx/lib/libpic32.a(simple-tlb-refill-exception.o)
                              /tmp/cckkSrlX.o (_simple_tlb_refill_exception_context)
/opt/microchip/xc32/v2.41/bin/bin/../../lib/gcc/pic32mx/4.8.3/../../../../pic32mx/lib/libpic32.a(defaultinterrupt.o)
                              /tmp/ccB9yIu0.o (_DefaultInterrupt)
/opt/microchip/xc32/v2.41/bin/bin/../../lib/gcc/pic32mx/4.8.3/../../../../pic32mx/lib/libpic32.a(default-cache-err-exception-handler.o)
                              /opt/microchip/xc32/v2.41/bin/bin/../../lib/gcc/pic32mx/4.8.3/../../../../pic32mx/lib/libpic32.a(cache-err-exception.o) (_cache_err_exception_handler)
/opt/microchip/xc32/v2.41/bin/bin/../../lib/gcc/pic32mx/4.8.3/../../../../pic32mx/lib/libpic32.a(default-simple-tlb-refill-exception-handler.o)
                              /opt/microchip/xc32/v2.41/bin/bin/../../lib/gcc/pic32mx/4.8.3/../../../../pic32mx/lib/libpic32.a(simple-tlb-refill-exception.o) (_simple_tlb_refill_exception_handler)
/opt/microchip/xc32/v2.41/bin/bin/../../lib/gcc/pic32mx/4.8.3/../../../../pic32mx/lib/libc.a(malloc.o)
                              build/default/production/_ext/1035051164/SixDOFQuadcopterModel.o (malloc)
/opt/microchip/xc32/v2.41/bin/bin/../../lib/gcc/pic32mx/4.8.3/../../../../pic32mx/lib/libc.a(puts.o)
                              build/default/production/_ext/149289479/MAVLinkHandler.o (puts)
/opt/microchip/xc32/v2.41/bin/bin/../../lib/gcc/pic32mx/4.8.3/../../../../pic32mx/lib/libc.a(strcat.o)
                              build/default/production/_ext/149289479/MAVLinkHandler.o (strcat)
/opt/microchip/xc32/v2.41/bin/bin/../../lib/gcc/pic32mx/4.8.3/../../../../pic32mx/lib/libc.a(sprintf_cdnopuxX.eo)
                              build/default/production/_ext/149289479/MAVLinkHandler.o (_sprintf_cdnopuxX)
/opt/microchip/xc32/v2.41/bin/bin/../../lib/gcc/pic32mx/4.8.3/../../../../pic32mx/lib/libc.a(_iob.o)
                              /opt/microchip/xc32/v2.41/bin/bin/../../lib/gcc/pic32mx/4.8.3/../../../../pic32mx/lib/libc.a(puts.o) (_iob)
/opt/microchip/xc32/v2.41/bin/bin/../../lib/gcc/pic32mx/4.8.3/../../../../pic32mx/lib/libc.a(_fputc_simple.o)
                              /opt/microchip/xc32/v2.41/bin/bin/../../lib/gcc/pic32mx/4.8.3/../../../../pic32mx/lib/libc.a(puts.o) (fputc)
/opt/microchip/xc32/v2.41/bin/bin/../../lib/gcc/pic32mx/4.8.3/../../../../pic32mx/lib/libc.a(doprnt_cdnopuxX.eo)
                              /opt/microchip/xc32/v2.41/bin/bin/../../lib/gcc/pic32mx/4.8.3/../../../../pic32mx/lib/libc.a(sprintf_cdnopuxX.eo) (_vfprintf_cdnopuxX)
/opt/microchip/xc32/v2.41/bin/bin/../../lib/gcc/pic32mx/4.8.3/../../../../pic32mx/lib/libc.a(_flsbuf_simple.o)
                              /opt/microchip/xc32/v2.41/bin/bin/../../lib/gcc/pic32mx/4.8.3/../../../../pic32mx/lib/libc.a(_fputc_simple.o) (_flsbuf)
/opt/microchip/xc32/v2.41/bin/bin/../../lib/gcc/pic32mx/4.8.3/../../../../pic32mx/lib/libc.a(ctype.o)
                              /opt/microchip/xc32/v2.41/bin/bin/../../lib/gcc/pic32mx/4.8.3/../../../../pic32mx/lib/libc.a(doprnt_cdnopuxX.eo) (_ctype)
/opt/microchip/xc32/v2.41/bin/bin/../../lib/gcc/pic32mx/4.8.3/../../../../pic32mx/lib/libm.a(fp32div.o)
                              build/default/production/_ext/443942460/PID.o (fpdiv)
/opt/microchip/xc32/v2.41/bin/bin/../../lib/gcc/pic32mx/4.8.3/../../../../pic32mx/lib/libm.a(fp32mul.o)
                              build/default/production/_ext/1650642999/tof.o (fpmul)
/opt/microchip/xc32/v2.41/bin/bin/../../lib/gcc/pic32mx/4.8.3/../../../../pic32mx/lib/libm.a(fp32subadd.o)
                              build/default/production/_ext/971049567/Quaternion.o (fpsub)
/opt/microchip/xc32/v2.41/bin/bin/../../lib/gcc/pic32mx/4.8.3/../../../../pic32mx/lib/libm.a(fpcmp.o)
                              build/default/production/_ext/971049567/Quaternion.o (fpcmp)
/opt/microchip/xc32/v2.41/bin/bin/../../lib/gcc/pic32mx/4.8.3/../../../../pic32mx/lib/libm.a(fpcos32.o)
                              build/default/production/_ext/1650642999/tof.o (cosf)
/opt/microchip/xc32/v2.41/bin/bin/../../lib/gcc/pic32mx/4.8.3/../../../../pic32mx/lib/libm.a(fpreduct32.o)
                              /opt/microchip/xc32/v2.41/bin/bin/../../lib/gcc/pic32mx/4.8.3/../../../../pic32mx/lib/libm.a(fpcos32.o) (fpreduct)
/opt/microchip/xc32/v2.41/bin/bin/../../lib/gcc/pic32mx/4.8.3/../../../../pic32mx/lib/libm.a(fpsin32.o)
                              build/default/production/_ext/971049567/Quaternion.o (sinf)
/opt/microchip/xc32/v2.41/bin/bin/../../lib/gcc/pic32mx/4.8.3/../../../../pic32mx/lib/libm.a(fptoul.o)
                              build/default/production/_ext/1204493032/AttitudeController.o (fptoui)
/opt/microchip/xc32/v2.41/bin/bin/../../lib/gcc/pic32mx/4.8.3/../../../../pic32mx/lib/libm.a(sincof32.o)
                              /opt/microchip/xc32/v2.41/bin/bin/../../lib/gcc/pic32mx/4.8.3/../../../../pic32mx/lib/libm.a(fpcos32.o) (_sincof)
/opt/microchip/xc32/v2.41/bin/bin/../../lib/gcc/pic32mx/4.8.3/../../../../pic32mx/lib/libm.a(sitofp.o)
                              build/default/production/_ext/149289479/MAVLinkHandler.o (sitofp)
/opt/microchip/xc32/v2.41/bin/bin/../../lib/gcc/pic32mx/4.8.3/../../../../pic32mx/lib/libm.a(w_asinf.o)
                              build/default/production/_ext/971049567/Quaternion.o (asinf)
/opt/microchip/xc32/v2.41/bin/bin/../../lib/gcc/pic32mx/4.8.3/../../../../pic32mx/lib/libm.a(w_atan2f.o)
                              build/default/production/_ext/971049567/Quaternion.o (atan2f)
/opt/microchip/xc32/v2.41/bin/bin/../../lib/gcc/pic32mx/4.8.3/../../../../pic32mx/lib/libm.a(support.o)
                              /opt/microchip/xc32/v2.41/bin/bin/../../lib/gcc/pic32mx/4.8.3/../../../../pic32mx/lib/libm.a(w_atan2f.o) (copysignl)
/opt/microchip/xc32/v2.41/bin/bin/../../lib/gcc/pic32mx/4.8.3/../../../../pic32mx/lib/libm.a(dpldexp.o)
                              /opt/microchip/xc32/v2.41/bin/bin/../../lib/gcc/pic32mx/4.8.3/../../../../pic32mx/lib/libm.a(support.o) (ldexp)
/opt/microchip/xc32/v2.41/bin/bin/../../lib/gcc/pic32mx/4.8.3/../../../../pic32mx/lib/libm.a(dp32div.o)
                              /opt/microchip/xc32/v2.41/bin/bin/../../lib/gcc/pic32mx/4.8.3/../../../../pic32mx/lib/libm.a(support.o) (dpdiv)
/opt/microchip/xc32/v2.41/bin/bin/../../lib/gcc/pic32mx/4.8.3/../../../../pic32mx/lib/libm.a(dp32mul.o)
                              /opt/microchip/xc32/v2.41/bin/bin/../../lib/gcc/pic32mx/4.8.3/../../../../pic32mx/lib/libm.a(support.o) (dpmul)
/opt/microchip/xc32/v2.41/bin/bin/../../lib/gcc/pic32mx/4.8.3/../../../../pic32mx/lib/libm.a(dp32subadd.o)
                              /opt/microchip/xc32/v2.41/bin/bin/../../lib/gcc/pic32mx/4.8.3/../../../../pic32mx/lib/libm.a(support.o) (dpsub)
/opt/microchip/xc32/v2.41/bin/bin/../../lib/gcc/pic32mx/4.8.3/../../../../pic32mx/lib/libm.a(dpcmp.o)
                              /opt/microchip/xc32/v2.41/bin/bin/../../lib/gcc/pic32mx/4.8.3/../../../../pic32mx/lib/libm.a(w_atan2f.o) (dpcmp)
/opt/microchip/xc32/v2.41/bin/bin/../../lib/gcc/pic32mx/4.8.3/../../../../pic32mx/lib/libm.a(dptofp.o)
                              /opt/microchip/xc32/v2.41/bin/bin/../../lib/gcc/pic32mx/4.8.3/../../../../pic32mx/lib/libm.a(w_asinf.o) (dptofp)
/opt/microchip/xc32/v2.41/bin/bin/../../lib/gcc/pic32mx/4.8.3/../../../../pic32mx/lib/libm.a(fpasin.o)
                              /opt/microchip/xc32/v2.41/bin/bin/../../lib/gcc/pic32mx/4.8.3/../../../../pic32mx/lib/libm.a(w_asinf.o) (__mchp_asinf)
/opt/microchip/xc32/v2.41/bin/bin/../../lib/gcc/pic32mx/4.8.3/../../../../pic32mx/lib/libm.a(fpatan2.o)
                              /opt/microchip/xc32/v2.41/bin/bin/../../lib/gcc/pic32mx/4.8.3/../../../../pic32mx/lib/libm.a(w_atan2f.o) (__mchp_atan2f)
/opt/microchip/xc32/v2.41/bin/bin/../../lib/gcc/pic32mx/4.8.3/../../../../pic32mx/lib/libm.a(fpexatan.o)
                              /opt/microchip/xc32/v2.41/bin/bin/../../lib/gcc/pic32mx/4.8.3/../../../../pic32mx/lib/libm.a(fpasin.o) (fpexatan)
/opt/microchip/xc32/v2.41/bin/bin/../../lib/gcc/pic32mx/4.8.3/../../../../pic32mx/lib/libm.a(fpfabs.o)
                              /opt/microchip/xc32/v2.41/bin/bin/../../lib/gcc/pic32mx/4.8.3/../../../../pic32mx/lib/libm.a(w_asinf.o) (fabsf)
/opt/microchip/xc32/v2.41/bin/bin/../../lib/gcc/pic32mx/4.8.3/../../../../pic32mx/lib/libm.a(fpexsqrt32.o)
                              /opt/microchip/xc32/v2.41/bin/bin/../../lib/gcc/pic32mx/4.8.3/../../../../pic32mx/lib/libm.a(fpasin.o) (fpexsqrt)
/opt/microchip/xc32/v2.41/bin/bin/../../lib/gcc/pic32mx/4.8.3/../../../../pic32mx/lib/libm.a(fptodp.o)
                              /opt/microchip/xc32/v2.41/bin/bin/../../lib/gcc/pic32mx/4.8.3/../../../../pic32mx/lib/libm.a(w_atan2f.o) (fptodp)
/opt/microchip/xc32/v2.41/bin/bin/../../lib/gcc/pic32mx/4.8.3/../../../../pic32mx/lib/libm.a(litodp.o)
                              /opt/microchip/xc32/v2.41/bin/bin/../../lib/gcc/pic32mx/4.8.3/../../../../pic32mx/lib/libm.a(support.o) (litodp)
/opt/microchip/xc32/v2.41/bin/bin/../../lib/gcc/pic32mx/4.8.3/../../../../pic32mx/lib/libm.a(s_lib_ver.o)
                              /opt/microchip/xc32/v2.41/bin/bin/../../lib/gcc/pic32mx/4.8.3/../../../../pic32mx/lib/libm.a(w_asinf.o) (math_errhandling)
/opt/microchip/xc32/v2.41/bin/bin/../../lib/gcc/pic32mx/4.8.3/libgcc.a(_udivdi3.o)
                              /opt/microchip/xc32/v2.41/bin/bin/../../lib/gcc/pic32mx/4.8.3/../../../../pic32mx/lib/libc.a(doprnt_cdnopuxX.eo) (__udivdi3)
/opt/microchip/xc32/v2.41/bin/bin/../../lib/gcc/pic32mx/4.8.3/libgcc.a(_umoddi3.o)
                              /opt/microchip/xc32/v2.41/bin/bin/../../lib/gcc/pic32mx/4.8.3/../../../../pic32mx/lib/libc.a(doprnt_cdnopuxX.eo) (__umoddi3)
/opt/microchip/xc32/v2.41/bin/bin/../../lib/gcc/pic32mx/4.8.3/../../../../pic32mx/lib/libpic32.a(sbrk.o)
                              /opt/microchip/xc32/v2.41/bin/bin/../../lib/gcc/pic32mx/4.8.3/../../../../pic32mx/lib/libc.a(malloc.o) (sbrk)
/opt/microchip/xc32/v2.41/bin/bin/../../lib/gcc/pic32mx/4.8.3/../../../../pic32mx/lib/libpic32.a(write.o)
                              /opt/microchip/xc32/v2.41/bin/bin/../../lib/gcc/pic32mx/4.8.3/../../../../pic32mx/lib/libc.a(_fputc_simple.o) (write)
/opt/microchip/xc32/v2.41/bin/bin/../../lib/gcc/pic32mx/4.8.3/../../../../pic32mx/lib/libpic32.a(errno.o)
                              /opt/microchip/xc32/v2.41/bin/bin/../../lib/gcc/pic32mx/4.8.3/../../../../pic32mx/lib/libm.a(w_asinf.o) (errno)
/opt/microchip/xc32/v2.41/bin/bin/../../lib/gcc/pic32mx/4.8.3/../../../../pic32mx/lib/libpic32.a(_mon_putc.o)
                              /opt/microchip/xc32/v2.41/bin/bin/../../lib/gcc/pic32mx/4.8.3/../../../../pic32mx/lib/libpic32.a(write.o) (_mon_putc)
/opt/microchip/xc32/v2.41/bin/bin/../../lib/gcc/pic32mx/4.8.3/../../../../pic32mx/lib/libpic32.a(xc32_uart.o)
                              /opt/microchip/xc32/v2.41/bin/bin/../../lib/gcc/pic32mx/4.8.3/../../../../pic32mx/lib/libpic32.a(_mon_putc.o) (__XC_UART)

Allocating common symbols
Common symbol       size              file

mavlink_send_taskData
                    0x4               build/default/production/_ext/1360937237/mavlink_send_task.o
appData             0x4               build/default/production/_ext/1360937237/app.o
i                   0x4               build/default/production/_ext/1360937237/app.o
g_latestJoystickInput
                    0x10              build/default/production/_ext/149289479/MAVLinkHandler.o
gDrvUSART0Obj       0x8               build/default/production/_ext/327000265/drv_usart_static.o
sysObj              0x10              build/default/production/_ext/1688732426/system_init.o
gDrvUSART1Obj       0x8               build/default/production/_ext/327000265/drv_usart_static.o
mavlink_status_taskData
                    0x4               build/default/production/_ext/1360937237/mavlink_status_task.o
sysDevconObj        0x8               build/default/production/_ext/121284916/sys_devcon.o
mavlink_recv_taskData
                    0x4               build/default/production/_ext/1360937237/mavlink_recv_task.o
g_mavLinkSendQueue  0x4               build/default/production/_ext/1360937237/mavlink_send_task.o
att_controller_taskData
                    0x4               build/default/production/_ext/1360937237/att_controller_task.o

Microchip PIC32 Memory-Usage Report

kseg0 Program-Memory Usage
section                    address  length [bytes]      (dec)  Description
-------                 ----------  -------------------------  -----------
.simple_tlb_refill_excp 0x9d000000           0x10          16   
.text.prvAddCurrentTask 0x9d000010           0xe4         228   
.text.SYS_CLK_SystemFre 0x9d0000f4            0xc          12   
.cache_err_excpt        0x9d000100           0x10          16   
.text.vApplicationSetup 0x9d000110           0x6c         108   
.rodata                 0x9d00017c            0x4           4  Read-only const 
.app_excpt              0x9d000180           0x10          16  General-Exception 
.text.MAVLINK_SEND_TASK 0x9d000190           0x60          96   
.text.vTaskMissedYield  0x9d0001f0           0x10          16   
.vectors                0x9d000200         0x1438        5176   
.text.hal_comms_recv_bu 0x9d001638         0x1818        6168   
.rodata                 0x9d002e50          0xb14        2836  Read-only const 
.dinit                  0x9d003964          0x440        1088   
.text.xTaskCreate       0x9d003da4          0x2c0         704   
.text.MAVLinkSend_Updat 0x9d004064          0x234         564   
.text.xQueueSemaphoreTa 0x9d004298          0x22c         556   
.text.xQueueGenericSend 0x9d0044c4          0x20c         524   
.text.SYS_PORTS_Initial 0x9d0046d0          0x1e8         488   
.text.SYS_Initialize    0x9d0048b8          0x1e0         480   
.text.xQueueReceive     0x9d004a98          0x1c0         448   
.text.DRV_USART0_Initia 0x9d004c58          0x194         404   
.text.DRV_USART1_Initia 0x9d004dec          0x194         404   
.text.xTaskIncrementTic 0x9d004f80          0x184         388   
.text                   0x9d005104          0x168         360  App's exec code 
.text.xTaskPriorityInhe 0x9d00526c          0x148         328   
.text.xTaskResumeAll    0x9d0053b4          0x148         328   
.text.vTaskPriorityDisi 0x9d0054fc          0x110         272   
.text.general_exception 0x9d00560c          0x110         272   
.text.SYS_Tasks         0x9d00571c          0x108         264   
.text.SYS_DEVCON_Perfor 0x9d005824          0x104         260   
.text                   0x9d005928          0x104         260  App's exec code 
.text.prvUnlockQueue    0x9d005a2c          0x100         256   
.text.SYS_CLK_Initializ 0x9d005b2c           0xf8         248   
.text.prvCopyDataToQueu 0x9d005c24           0xf4         244   
.text.xTaskPriorityDisi 0x9d005d18           0xf4         244   
.text.vTaskSwitchContex 0x9d005e0c           0xe0         224   
.text._cache_err_except 0x9d005eec           0xd8         216   
.text.simple_tlb_refill 0x9d005fc4           0xd8         216   
.text.APP_Tasks         0x9d00609c           0xc0         192   
.text.xQueueGenericRese 0x9d00615c           0xc0         192   
.text.xTaskRemoveFromEv 0x9d00621c           0xbc         188   
.tlb.__pic32_tlb_init_e 0x9d0062d8           0xbc         188   
.text.pvPortMalloc      0x9d006394           0xb8         184   
.text.prvIdleTask       0x9d00644c           0xa8         168   
.text                   0x9d0064f4           0xa8         168  App's exec code 
.text.xTaskCheckForTime 0x9d00659c           0xa4         164   
.text                   0x9d006640           0x98         152  App's exec code 
.text.xQueueGenericCrea 0x9d0066d8           0x94         148   
.text                   0x9d00676c           0x84         132  App's exec code 
.rodata                 0x9d0067f0           0x80         128  Read-only const 
.text.hal_comms_send_bu 0x9d006870           0x7c         124   
.text.vTaskStartSchedul 0x9d0068ec           0x78         120   
.text.DRV_TMR0_Initiali 0x9d006964           0x78         120   
.text.MAVLinkRecv_Init  0x9d0069dc           0x60          96   
.text.vListInsert       0x9d006a3c           0x60          96   
.text.vTaskExitCritical 0x9d006a9c           0x60          96   
.text.pxPortInitialiseS 0x9d006afc           0x60          96   
.text.DRV_USART0_WriteB 0x9d006b5c           0x60          96   
.text.xPortStartSchedul 0x9d006bbc           0x5c          92   
.text.SYS_DEVCON_System 0x9d006c18           0x58          88   
.text.xQueueCreateMutex 0x9d006c70           0x58          88   
.text.vTaskDelay        0x9d006cc8           0x58          88   
.text.SYS_INT_SourceDis 0x9d006d20           0x54          84   
.text.vPortIncrementTic 0x9d006d74           0x54          84   
.text.main_entry        0x9d006dc8           0x54          84   
.text.prvCopyDataFromQu 0x9d006e1c           0x50          80   
.text.DRV_USART0_ReadBy 0x9d006e6c           0x50          80   
.text.SYS_CLK_Periphera 0x9d006ebc           0x50          80   
.text.MAVLINK_RECV_TASK 0x9d006f0c           0x4c          76   
.text.MAVLINK_STATUS_TA 0x9d006f58           0x4c          76   
.text.uxListRemove      0x9d006fa4           0x4c          76   
.text.DRV_USART_Initial 0x9d006ff0           0x4c          76   
.text.DRV_USART0_TasksT 0x9d00703c           0x4c          76   
.text.MAVLinkRecv_Updat 0x9d007088           0x48          72   
.text.SYS_DEVCON_System 0x9d0070d0           0x48          72   
.text.vTaskEnterCritica 0x9d007118           0x48          72   
.text.DRV_USART0_Transf 0x9d007160           0x48          72   
.text.DRV_USART1_TasksT 0x9d0071a8           0x48          72   
.text._bootstrap_except 0x9d0071f0           0x48          72   
.text._cache_err_except 0x9d007238           0x48          72   
.text._simple_tlb_refil 0x9d007280           0x48          72   
.text.DRV_OC0_Initializ 0x9d0072c8           0x44          68   
.text.DRV_OC1_Initializ 0x9d00730c           0x44          68   
.text.DRV_OC2_Initializ 0x9d007350           0x44          68   
.text.DRV_OC3_Initializ 0x9d007394           0x44          68   
.text.DRV_USART_TasksTr 0x9d0073d8           0x44          68   
.text.DRV_USART_TasksRe 0x9d00741c           0x44          68   
.text.DRV_USART_TasksEr 0x9d007460           0x44          68   
.text                   0x9d0074a4           0x44          68  App's exec code 
.text._general_exceptio 0x9d0074e8           0x40          64   
.text.OSAL_MUTEX_Create 0x9d007528           0x3c          60   
.text.uxPortSetInterrup 0x9d007564           0x3c          60   
.text.DRV_TMR0_Start    0x9d0075a0           0x3c          60   
.text.OSAL_MUTEX_Lock   0x9d0075dc           0x38          56   
.text.prvResetNextTaskU 0x9d007614           0x38          56   
.text.vTaskPlaceOnEvent 0x9d00764c           0x38          56   
.text.vListInsertEnd    0x9d007684           0x34          52   
.text.prvIsQueueEmpty   0x9d0076b8           0x34          52   
.text.MAVLinkSend_Init  0x9d0076ec           0x30          48   
.text.OSAL_MUTEX_Unlock 0x9d00771c           0x30          48   
.text.DRV_USART0_TasksR 0x9d00774c           0x30          48   
.text.DRV_USART0_TasksE 0x9d00777c           0x30          48   
.text.DRV_USART1_TasksR 0x9d0077ac           0x30          48   
.text.DRV_USART1_TasksE 0x9d0077dc           0x30          48   
.text.pvTaskIncrementMu 0x9d00780c           0x28          40   
.text._SYS_Tasks        0x9d007834           0x28          40   
.text.MAVLINK_SEND_TASK 0x9d00785c           0x24          36   
.text.vListInitialise   0x9d007880           0x24          36   
.text.prvTaskExitError  0x9d0078a4           0x24          36   
.text.vApplicationStack 0x9d0078c8           0x24          36   
.text.vApplicationMallo 0x9d0078ec           0x24          36   
.text.main              0x9d007910           0x20          32   
.text.IntHandlerDrvUsar 0x9d007930           0x20          32   
.text.IntHandlerDrvUsar 0x9d007950           0x20          32   
.text.IntHandlerDrvUsar 0x9d007970           0x20          32   
.text.IntHandlerDrvUsar 0x9d007990           0x20          32   
.text.IntHandlerDrvUsar 0x9d0079b0           0x20          32   
.text.IntHandlerDrvUsar 0x9d0079d0           0x20          32   
.text._ATT_CONTROLLER_T 0x9d0079f0           0x20          32   
.text._MAVLINK_STATUS_T 0x9d007a10           0x20          32   
.text._MAVLINK_SEND_TAS 0x9d007a30           0x20          32   
.text._MAVLINK_RECV_TAS 0x9d007a50           0x20          32   
.text._APP_Tasks        0x9d007a70           0x20          32   
.text.hal_comms_init    0x9d007a90           0x1c          28   
.text.IntHandlerDrvTmrI 0x9d007aac           0x1c          28   
.text.ATT_CONTROLLER_TA 0x9d007ac8           0x18          24   
.text.MAVStatus_Init    0x9d007ae0           0x18          24   
.text.DRV_USART0_Receiv 0x9d007af8           0x18          24   
.text                   0x9d007b10           0x18          24  App's exec code 
.text.SYS_DEVCON_Initia 0x9d007b28           0x14          20   
.text.SYS_INT_Initializ 0x9d007b3c           0x14          20   
.text.vTaskSuspendAll   0x9d007b50           0x14          20   
.text.vTaskInternalSetT 0x9d007b64           0x14          20   
.text.DRV_OC0_Enable    0x9d007b78           0x14          20   
.text.DRV_OC0_Start     0x9d007b8c           0x14          20   
.text.DRV_OC0_PulseWidt 0x9d007ba0           0x14          20   
.text.DRV_OC1_Enable    0x9d007bb4           0x14          20   
.text.DRV_OC1_Start     0x9d007bc8           0x14          20   
.text.DRV_OC1_PulseWidt 0x9d007bdc           0x14          20   
.text.DRV_OC2_Enable    0x9d007bf0           0x14          20   
.text.DRV_OC2_Start     0x9d007c04           0x14          20   
.text.DRV_OC2_PulseWidt 0x9d007c18           0x14          20   
.text.DRV_OC3_Enable    0x9d007c2c           0x14          20   
.text.DRV_OC3_Start     0x9d007c40           0x14          20   
.text.DRV_OC3_PulseWidt 0x9d007c54           0x14          20   
.text.APP_Initialize    0x9d007c68            0x8           8   
.text.MAVLINK_RECV_TASK 0x9d007c70            0x8           8   
.text.MAVLINK_STATUS_TA 0x9d007c78            0x8           8   
.text.ATT_CONTROLLER_TA 0x9d007c80            0x8           8   
.text.MAVStatus_Update  0x9d007c88            0x8           8   
.text.SYS_DEVCON_Tasks  0x9d007c90            0x8           8   
.text.vListInitialiseIt 0x9d007c98            0x8           8   
.rodata                 0x9d007ca0            0x8           8  Read-only const 
.text.vPortFree         0x9d007ca8            0x8           8   
.text.vApplicationIdleH 0x9d007cb0            0x8           8   
.text.vApplicationTickH 0x9d007cb8            0x8           8   
.text._on_reset         0x9d007cc0            0x8           8   
.text._on_bootstrap     0x9d007cc8            0x8           8   
.rodata                 0x9d007cd0            0x4           4  Read-only const 
      Total kseg0_program_mem used  :      0x7cd4       31956  1.5% of 0x200000

kseg0 Boot-Memory Usage
section                    address  length [bytes]      (dec)  Description
-------                 ----------  -------------------------  -----------
         Total kseg0_boot_mem used  :           0           0  

kseg1 Boot-Memory Usage
section                    address  length [bytes]      (dec)  Description
-------                 ----------  -------------------------  -----------
.reset                  0xbfc00000          0x1a4         420  Reset handler 
.bev_excpt              0xbfc00380           0x10          16  BEV-Exception 
         Total kseg1_boot_mem used  :       0x1b4         436  37.8% of 0x480
        --------------------------------------------------------------------------
         Total Program Memory used  :      0x7e88       32392  1.5% of 0x200480
        --------------------------------------------------------------------------


kseg0 Data-Memory Usage
section                    address  length [bytes]      (dec)  Description
-------                 ----------  -------------------------  -----------
.sdata                  0x80000000           0x2c          44  Small init data 
.sbss                   0x8000002c           0xc0         192  Small uninit data 
.bss                    0x800000ec           0x10          16  Uninitialized data 
.bss                    0x800000fc        0x63c00      408576  Uninitialized data 
.bss                    0x80063d00          0xb3c        2876  Uninitialized data 
.bss                    0x8006483c          0x4a4        1188  Uninitialized data 
.bss                    0x80064ce0          0x104         260  Uninitialized data 
         Total kseg0_data_mem used  :     0x64de0      413152  78.8% of 0x80000
        --------------------------------------------------------------------------
            Total Data Memory used  :     0x64de0      413152  78.8% of 0x80000
        --------------------------------------------------------------------------


Dynamic Data-Memory Reservation
section                    address  length [bytes]      (dec)  Description
-------                 ----------  -------------------------  -----------
heap                    0x80064de8              0           0  Reserved for heap 
stack                   0x80064e00        0x1b1f0      111088  Reserved for stack 

        --------------------------------------------------------------------------

Discarded input sections

 .text          0x00000000        0x0 /opt/microchip/xc32/v2.41/bin/bin/../../lib/gcc/pic32mx/4.8.3/../../../../pic32mx/lib/debug-exception-return.o
 .data          0x00000000        0x0 /opt/microchip/xc32/v2.41/bin/bin/../../lib/gcc/pic32mx/4.8.3/../../../../pic32mx/lib/debug-exception-return.o
 .bss           0x00000000        0x0 /opt/microchip/xc32/v2.41/bin/bin/../../lib/gcc/pic32mx/4.8.3/../../../../pic32mx/lib/debug-exception-return.o
 .text          0x00000000        0x0 build/default/production/_ext/1650642999/imu.o
 .data          0x00000000        0x0 build/default/production/_ext/1650642999/imu.o
 .bss           0x00000000       0x30 build/default/production/_ext/1650642999/imu.o
 .reginfo       0x00000000       0x18 build/default/production/_ext/1650642999/imu.o
 .text.imu_comms_init
                0x00000000        0x8 build/default/production/_ext/1650642999/imu.o
 .text.imu_comms_receive
                0x00000000        0x8 build/default/production/_ext/1650642999/imu.o
 .text.imu_get_attitude_quaternion
                0x00000000       0x50 build/default/production/_ext/1650642999/imu.o
 .text.imu_get_attitude
                0x00000000       0x34 build/default/production/_ext/1650642999/imu.o
 .text.imu_attitude_override
                0x00000000       0x70 build/default/production/_ext/1650642999/imu.o
 .text.imu_get_acceleration
                0x00000000        0x8 build/default/production/_ext/1650642999/imu.o
 .text.imu_comms_close
                0x00000000        0x8 build/default/production/_ext/1650642999/imu.o
 .text          0x00000000        0x0 build/default/production/_ext/1650642999/comms.o
 .data          0x00000000        0x0 build/default/production/_ext/1650642999/comms.o
 .reginfo       0x00000000       0x18 build/default/production/_ext/1650642999/comms.o
 .text.hal_comms_close
                0x00000000        0x8 build/default/production/_ext/1650642999/comms.o
 .text          0x00000000        0x0 build/default/production/_ext/1650642999/tof.o
 .data          0x00000000        0x0 build/default/production/_ext/1650642999/tof.o
 .bss           0x00000000       0x28 build/default/production/_ext/1650642999/tof.o
 .reginfo       0x00000000       0x18 build/default/production/_ext/1650642999/tof.o
 .text.tof_comms_init
                0x00000000        0x8 build/default/production/_ext/1650642999/tof.o
 .text.tof_comms_receive
                0x00000000        0x8 build/default/production/_ext/1650642999/tof.o
 .text.tof_sensor_override
                0x00000000       0x68 build/default/production/_ext/1650642999/tof.o
 .text.tof_get_sensor
                0x00000000       0x70 build/default/production/_ext/1650642999/tof.o
 .text.tof_get_height
                0x00000000       0x74 build/default/production/_ext/1650642999/tof.o
 .text.tof_comms_close
                0x00000000        0x8 build/default/production/_ext/1650642999/tof.o
 .text          0x00000000        0x0 build/default/production/_ext/1650642999/motors.o
 .data          0x00000000        0x0 build/default/production/_ext/1650642999/motors.o
 .bss           0x00000000        0x0 build/default/production/_ext/1650642999/motors.o
 .reginfo       0x00000000       0x18 build/default/production/_ext/1650642999/motors.o
 .text          0x00000000        0x0 build/default/production/_ext/971049567/Quaternion.o
 .data          0x00000000        0x0 build/default/production/_ext/971049567/Quaternion.o
 .bss           0x00000000        0x0 build/default/production/_ext/971049567/Quaternion.o
 .reginfo       0x00000000       0x18 build/default/production/_ext/971049567/Quaternion.o
 .text.quatFromEulerRPY
                0x00000000      0x1d4 build/default/production/_ext/971049567/Quaternion.o
 .text.quatGetEulerRPY
                0x00000000      0x1f4 build/default/production/_ext/971049567/Quaternion.o
 .rodata        0x00000000       0x10 build/default/production/_ext/971049567/Quaternion.o
 .text          0x00000000        0x0 build/default/production/_ext/971049567/Vector3D.o
 .data          0x00000000        0x0 build/default/production/_ext/971049567/Vector3D.o
 .bss           0x00000000        0x0 build/default/production/_ext/971049567/Vector3D.o
 .reginfo       0x00000000       0x18 build/default/production/_ext/971049567/Vector3D.o
 .text          0x00000000        0x0 build/default/production/_ext/1360937237/main.o
 .data          0x00000000        0x0 build/default/production/_ext/1360937237/main.o
 .bss           0x00000000        0x0 build/default/production/_ext/1360937237/main.o
 .reginfo       0x00000000       0x18 build/default/production/_ext/1360937237/main.o
 .text          0x00000000        0x0 build/default/production/_ext/1360937237/app.o
 .data          0x00000000        0x0 build/default/production/_ext/1360937237/app.o
 .bss           0x00000000        0x0 build/default/production/_ext/1360937237/app.o
 .reginfo       0x00000000       0x18 build/default/production/_ext/1360937237/app.o
 .text          0x00000000        0x0 build/default/production/_ext/1360937237/mavlink_recv_task.o
 .data          0x00000000        0x0 build/default/production/_ext/1360937237/mavlink_recv_task.o
 .bss           0x00000000        0x0 build/default/production/_ext/1360937237/mavlink_recv_task.o
 .reginfo       0x00000000       0x18 build/default/production/_ext/1360937237/mavlink_recv_task.o
 .text          0x00000000        0x0 build/default/production/_ext/1360937237/mavlink_send_task.o
 .data          0x00000000        0x0 build/default/production/_ext/1360937237/mavlink_send_task.o
 .bss           0x00000000        0x0 build/default/production/_ext/1360937237/mavlink_send_task.o
 .reginfo       0x00000000       0x18 build/default/production/_ext/1360937237/mavlink_send_task.o
 .text          0x00000000        0x0 build/default/production/_ext/1360937237/mavlink_status_task.o
 .data          0x00000000        0x0 build/default/production/_ext/1360937237/mavlink_status_task.o
 .bss           0x00000000        0x0 build/default/production/_ext/1360937237/mavlink_status_task.o
 .reginfo       0x00000000       0x18 build/default/production/_ext/1360937237/mavlink_status_task.o
 .text          0x00000000        0x0 build/default/production/_ext/1360937237/att_controller_task.o
 .data          0x00000000        0x0 build/default/production/_ext/1360937237/att_controller_task.o
 .bss           0x00000000        0x0 build/default/production/_ext/1360937237/att_controller_task.o
 .reginfo       0x00000000       0x18 build/default/production/_ext/1360937237/att_controller_task.o
 .text          0x00000000        0x0 build/default/production/_ext/443942460/PID.o
 .data          0x00000000        0x0 build/default/production/_ext/443942460/PID.o
 .bss           0x00000000        0x0 build/default/production/_ext/443942460/PID.o
 .reginfo       0x00000000       0x18 build/default/production/_ext/443942460/PID.o
 .text.PID_Update
                0x00000000       0xc0 build/default/production/_ext/443942460/PID.o
 .rodata        0x00000000        0x4 build/default/production/_ext/443942460/PID.o
 .text          0x00000000        0x0 build/default/production/_ext/1035051164/SixDOFQuadcopterModel.o
 .data          0x00000000        0x0 build/default/production/_ext/1035051164/SixDOFQuadcopterModel.o
 .bss           0x00000000        0x0 build/default/production/_ext/1035051164/SixDOFQuadcopterModel.o
 .reginfo       0x00000000       0x18 build/default/production/_ext/1035051164/SixDOFQuadcopterModel.o
 .text.SixDOFQuadcopterModel_initialize
                0x00000000       0x50 build/default/production/_ext/1035051164/SixDOFQuadcopterModel.o
 .text.SixDOFQuadcopterModel_calculate
                0x00000000      0x140 build/default/production/_ext/1035051164/SixDOFQuadcopterModel.o
 .rodata        0x00000000        0x4 build/default/production/_ext/1035051164/SixDOFQuadcopterModel.o
 .text          0x00000000        0x0 build/default/production/_ext/1204493032/PositionEstimatorAltitude.o
 .data          0x00000000       0x20 build/default/production/_ext/1204493032/PositionEstimatorAltitude.o
 .bss           0x00000000        0x0 build/default/production/_ext/1204493032/PositionEstimatorAltitude.o
 .reginfo       0x00000000       0x18 build/default/production/_ext/1204493032/PositionEstimatorAltitude.o
 .text.updatePositionEstimate
                0x00000000      0x1d0 build/default/production/_ext/1204493032/PositionEstimatorAltitude.o
 .text.updateVelocityEstimate
                0x00000000       0x7c build/default/production/_ext/1204493032/PositionEstimatorAltitude.o
 .rodata        0x00000000        0x8 build/default/production/_ext/1204493032/PositionEstimatorAltitude.o
 .text          0x00000000        0x0 build/default/production/_ext/1204493032/SensFusion.o
 .data          0x00000000        0x0 build/default/production/_ext/1204493032/SensFusion.o
 .bss           0x00000000        0x0 build/default/production/_ext/1204493032/SensFusion.o
 .reginfo       0x00000000       0x18 build/default/production/_ext/1204493032/SensFusion.o
 .text.estimateGravityDirection
                0x00000000      0x124 build/default/production/_ext/1204493032/SensFusion.o
 .text.getVerticalAcc
                0x00000000       0x78 build/default/production/_ext/1204493032/SensFusion.o
 .text.getVerticalAccWithoutGravity
                0x00000000       0x30 build/default/production/_ext/1204493032/SensFusion.o
 .text          0x00000000        0x0 build/default/production/_ext/1204493032/ComplementaryFilter.o
 .data          0x00000000        0x0 build/default/production/_ext/1204493032/ComplementaryFilter.o
 .bss           0x00000000        0x0 build/default/production/_ext/1204493032/ComplementaryFilter.o
 .reginfo       0x00000000       0x18 build/default/production/_ext/1204493032/ComplementaryFilter.o
 .text.estimatorComplementary
                0x00000000       0x68 build/default/production/_ext/1204493032/ComplementaryFilter.o
 .rodata        0x00000000        0x8 build/default/production/_ext/1204493032/ComplementaryFilter.o
 .text          0x00000000        0x0 build/default/production/_ext/1204493032/AttitudeController.o
 .data          0x00000000        0x0 build/default/production/_ext/1204493032/AttitudeController.o
 .bss           0x00000000        0x0 build/default/production/_ext/1204493032/AttitudeController.o
 .reginfo       0x00000000       0x18 build/default/production/_ext/1204493032/AttitudeController.o
 .text.AttitudeController_update
                0x00000000      0x1d8 build/default/production/_ext/1204493032/AttitudeController.o
 .text          0x00000000        0x0 build/default/production/_ext/149289479/MAVLinkSender.o
 .data          0x00000000        0x0 build/default/production/_ext/149289479/MAVLinkSender.o
 .bss           0x00000000        0x0 build/default/production/_ext/149289479/MAVLinkSender.o
 .reginfo       0x00000000       0x18 build/default/production/_ext/149289479/MAVLinkSender.o
 .text.sendMAVLinkMessage
                0x00000000       0x28 build/default/production/_ext/149289479/MAVLinkSender.o
 .text          0x00000000        0x0 build/default/production/_ext/149289479/MAVLinkHandler.o
 .data          0x00000000        0x0 build/default/production/_ext/149289479/MAVLinkHandler.o
 .bss           0x00000000      0x194 build/default/production/_ext/149289479/MAVLinkHandler.o
 .reginfo       0x00000000       0x18 build/default/production/_ext/149289479/MAVLinkHandler.o
 .rodata        0x00000000      0x108 build/default/production/_ext/149289479/MAVLinkHandler.o
 .text.handle_param_request_list
                0x00000000     0x1118 build/default/production/_ext/149289479/MAVLinkHandler.o
 .text.handle_message_manual_control
                0x00000000       0x8c build/default/production/_ext/149289479/MAVLinkHandler.o
 .text.handle_MAVLink_message
                0x00000000     0x1178 build/default/production/_ext/149289479/MAVLinkHandler.o
 COMMON         0x00000000       0x10 build/default/production/_ext/149289479/MAVLinkHandler.o
 .text          0x00000000        0x0 build/default/production/_ext/1715884449/AttitudeControllerTask.o
 .data          0x00000000        0x0 build/default/production/_ext/1715884449/AttitudeControllerTask.o
 .bss           0x00000000       0x98 build/default/production/_ext/1715884449/AttitudeControllerTask.o
 .reginfo       0x00000000       0x18 build/default/production/_ext/1715884449/AttitudeControllerTask.o
 .text.AttitudeController_Init
                0x00000000       0xf4 build/default/production/_ext/1715884449/AttitudeControllerTask.o
 .text.AttitudeController_Update
                0x00000000       0xe4 build/default/production/_ext/1715884449/AttitudeControllerTask.o
 .text.AttitudeController_Task
                0x00000000       0x2c build/default/production/_ext/1715884449/AttitudeControllerTask.o
 .rodata        0x00000000       0x24 build/default/production/_ext/1715884449/AttitudeControllerTask.o
 .text          0x00000000        0x0 build/default/production/_ext/1158199258/MAVLinkSendTask.o
 .data          0x00000000        0x0 build/default/production/_ext/1158199258/MAVLinkSendTask.o
 .reginfo       0x00000000       0x18 build/default/production/_ext/1158199258/MAVLinkSendTask.o
 .text.MAVLinkSend_Task
                0x00000000       0x24 build/default/production/_ext/1158199258/MAVLinkSendTask.o
 .rodata        0x00000000        0x4 build/default/production/_ext/1158199258/MAVLinkSendTask.o
 .text          0x00000000        0x0 build/default/production/_ext/1158199258/MAVLinkRecvTask.o
 .data          0x00000000        0x0 build/default/production/_ext/1158199258/MAVLinkRecvTask.o
 .reginfo       0x00000000       0x18 build/default/production/_ext/1158199258/MAVLinkRecvTask.o
 .text.MAVLinkRecv_Task
                0x00000000       0x2c build/default/production/_ext/1158199258/MAVLinkRecvTask.o
 .rodata        0x00000000        0x4 build/default/production/_ext/1158199258/MAVLinkRecvTask.o
 .text          0x00000000        0x0 build/default/production/_ext/1315301415/TOFUpdateTask.o
 .data          0x00000000        0x0 build/default/production/_ext/1315301415/TOFUpdateTask.o
 .bss           0x00000000        0x0 build/default/production/_ext/1315301415/TOFUpdateTask.o
 .reginfo       0x00000000       0x18 build/default/production/_ext/1315301415/TOFUpdateTask.o
 .text.TOFUpdate_Task
                0x00000000       0x20 build/default/production/_ext/1315301415/TOFUpdateTask.o
 .rodata        0x00000000        0x4 build/default/production/_ext/1315301415/TOFUpdateTask.o
 .text          0x00000000        0x0 build/default/production/_ext/1315301415/MAVStatusTask.o
 .data          0x00000000        0x0 build/default/production/_ext/1315301415/MAVStatusTask.o
 .bss           0x00000000        0x0 build/default/production/_ext/1315301415/MAVStatusTask.o
 .reginfo       0x00000000       0x18 build/default/production/_ext/1315301415/MAVStatusTask.o
 .text.MAVStatus_Task
                0x00000000       0x20 build/default/production/_ext/1315301415/MAVStatusTask.o
 .rodata        0x00000000        0x4 build/default/production/_ext/1315301415/MAVStatusTask.o
 .text          0x00000000        0x0 build/default/production/_ext/1315301415/IMUUpdateTask.o
 .data          0x00000000        0x0 build/default/production/_ext/1315301415/IMUUpdateTask.o
 .bss           0x00000000        0x0 build/default/production/_ext/1315301415/IMUUpdateTask.o
 .reginfo       0x00000000       0x18 build/default/production/_ext/1315301415/IMUUpdateTask.o
 .text.IMUUpdate_Task
                0x00000000       0x20 build/default/production/_ext/1315301415/IMUUpdateTask.o
 .rodata        0x00000000        0x4 build/default/production/_ext/1315301415/IMUUpdateTask.o
 .text          0x00000000        0x0 build/default/production/_ext/1313821444/num.o
 .data          0x00000000        0x0 build/default/production/_ext/1313821444/num.o
 .bss           0x00000000        0x0 build/default/production/_ext/1313821444/num.o
 .reginfo       0x00000000       0x18 build/default/production/_ext/1313821444/num.o
 .text.deadband
                0x00000000       0x88 build/default/production/_ext/1313821444/num.o
 .text.clamp    0x00000000       0x60 build/default/production/_ext/1313821444/num.o
 .text          0x00000000        0x0 build/default/production/_ext/1353086322/osal_freertos.o
 .data          0x00000000        0x0 build/default/production/_ext/1353086322/osal_freertos.o
 .bss           0x00000000        0x0 build/default/production/_ext/1353086322/osal_freertos.o
 .reginfo       0x00000000       0x18 build/default/production/_ext/1353086322/osal_freertos.o
 .text.OSAL_CRIT_Enter
                0x00000000       0x48 build/default/production/_ext/1353086322/osal_freertos.o
 .text.OSAL_CRIT_Leave
                0x00000000       0x44 build/default/production/_ext/1353086322/osal_freertos.o
 .text.OSAL_SEM_Create
                0x00000000       0x8c build/default/production/_ext/1353086322/osal_freertos.o
 .text.OSAL_SEM_Delete
                0x00000000       0x30 build/default/production/_ext/1353086322/osal_freertos.o
 .text.OSAL_SEM_Pend
                0x00000000       0x38 build/default/production/_ext/1353086322/osal_freertos.o
 .text.OSAL_SEM_Post
                0x00000000       0x30 build/default/production/_ext/1353086322/osal_freertos.o
 .text.OSAL_SEM_PostISR
                0x00000000       0x4c build/default/production/_ext/1353086322/osal_freertos.o
 .text.OSAL_SEM_GetCount
                0x00000000       0x2c build/default/production/_ext/1353086322/osal_freertos.o
 .text.OSAL_MUTEX_Delete
                0x00000000       0x3c build/default/production/_ext/1353086322/osal_freertos.o
 .rodata        0x00000000        0xc build/default/production/_ext/1353086322/osal_freertos.o
 .text.OSAL_Name
                0x00000000        0xc build/default/production/_ext/1353086322/osal_freertos.o
 .text.OSAL_Initialize
                0x00000000        0x8 build/default/production/_ext/1353086322/osal_freertos.o
 .text          0x00000000        0x0 build/default/production/_ext/121284916/sys_devcon.o
 .data          0x00000000        0x0 build/default/production/_ext/121284916/sys_devcon.o
 .bss           0x00000000        0x0 build/default/production/_ext/121284916/sys_devcon.o
 .reginfo       0x00000000       0x18 build/default/production/_ext/121284916/sys_devcon.o
 .text.SYS_DEVCON_Reinitialize
                0x00000000       0x10 build/default/production/_ext/121284916/sys_devcon.o
 .text.SYS_DEVCON_Deinitialize
                0x00000000        0x8 build/default/production/_ext/121284916/sys_devcon.o
 .text.SYS_DEVCON_Status
                0x00000000        0x8 build/default/production/_ext/121284916/sys_devcon.o
 .text.SYS_DEVCON_JTAGEnable
                0x00000000       0x18 build/default/production/_ext/121284916/sys_devcon.o
 .text.SYS_DEVCON_JTAGDisable
                0x00000000       0x18 build/default/production/_ext/121284916/sys_devcon.o
 .text.SYS_DEVCON_TraceEnable
                0x00000000       0x1c build/default/production/_ext/121284916/sys_devcon.o
 .text.SYS_DEVCON_TraceDisable
                0x00000000       0x18 build/default/production/_ext/121284916/sys_devcon.o
 .text.SYS_DEVCON_PowerModeEnter
                0x00000000       0x44 build/default/production/_ext/121284916/sys_devcon.o
 .text          0x00000000        0x0 build/default/production/_ext/121284916/sys_devcon_pic32mz.o
 .data          0x00000000        0x0 build/default/production/_ext/121284916/sys_devcon_pic32mz.o
 .bss           0x00000000        0x0 build/default/production/_ext/121284916/sys_devcon_pic32mz.o
 .reginfo       0x00000000       0x18 build/default/production/_ext/121284916/sys_devcon_pic32mz.o
 .text.SYS_DEVCON_CacheInit
                0x00000000       0x24 build/default/production/_ext/121284916/sys_devcon_pic32mz.o
 .text.SYS_DEVCON_CacheFlush
                0x00000000       0x24 build/default/production/_ext/121284916/sys_devcon_pic32mz.o
 .text.SYS_DEVCON_DataCacheFlush
                0x00000000       0x24 build/default/production/_ext/121284916/sys_devcon_pic32mz.o
 .text.SYS_DEVCON_InstructionCacheFlush
                0x00000000       0x24 build/default/production/_ext/121284916/sys_devcon_pic32mz.o
 .text.SYS_DEVCON_CacheClean
                0x00000000       0x24 build/default/production/_ext/121284916/sys_devcon_pic32mz.o
 .text.SYS_DEVCON_DataCacheClean
                0x00000000       0x24 build/default/production/_ext/121284916/sys_devcon_pic32mz.o
 .text.SYS_DEVCON_DataCacheInvalidate
                0x00000000       0x24 build/default/production/_ext/121284916/sys_devcon_pic32mz.o
 .text.SYS_DEVCON_InstructionCacheInvalidate
                0x00000000       0x24 build/default/production/_ext/121284916/sys_devcon_pic32mz.o
 .text.SYS_DEVCON_InstructionCacheLock
                0x00000000       0x24 build/default/production/_ext/121284916/sys_devcon_pic32mz.o
 .text.SYS_DEVCON_DataCacheLock
                0x00000000       0x24 build/default/production/_ext/121284916/sys_devcon_pic32mz.o
 .text.SYS_DEVCON_CacheSync
                0x00000000       0x24 build/default/production/_ext/121284916/sys_devcon_pic32mz.o
 .text.SYS_DEVCON_CacheCoherencySet
                0x00000000       0x28 build/default/production/_ext/121284916/sys_devcon_pic32mz.o
 .text.SYS_DEVCON_CacheCoherencyGet
                0x00000000       0x1c build/default/production/_ext/121284916/sys_devcon_pic32mz.o
 .text.SYS_DEVCON_DataCacheAssociativityGet
                0x00000000       0x24 build/default/production/_ext/121284916/sys_devcon_pic32mz.o
 .text.SYS_DEVCON_InstructionCacheAssociativityGet
                0x00000000       0x24 build/default/production/_ext/121284916/sys_devcon_pic32mz.o
 .text.SYS_DEVCON_DataCacheLineSizeGet
                0x00000000       0x24 build/default/production/_ext/121284916/sys_devcon_pic32mz.o
 .text.SYS_DEVCON_InstructionCacheLineSizeGet
                0x00000000       0x24 build/default/production/_ext/121284916/sys_devcon_pic32mz.o
 .text.SYS_DEVCON_DataCacheLinesPerWayGet
                0x00000000       0x24 build/default/production/_ext/121284916/sys_devcon_pic32mz.o
 .text.SYS_DEVCON_InstructionCacheLinesPerWayGet
                0x00000000       0x24 build/default/production/_ext/121284916/sys_devcon_pic32mz.o
 .text.SYS_DEVCON_DataCacheSizeGet
                0x00000000       0x24 build/default/production/_ext/121284916/sys_devcon_pic32mz.o
 .text.SYS_DEVCON_InstructionCacheSizeGet
                0x00000000       0x24 build/default/production/_ext/121284916/sys_devcon_pic32mz.o
 .text          0x00000000      0x6bc build/default/production/_ext/121284916/sys_devcon_cache_pic32mz.o
 .data          0x00000000        0x0 build/default/production/_ext/121284916/sys_devcon_cache_pic32mz.o
 .bss           0x00000000        0x0 build/default/production/_ext/121284916/sys_devcon_cache_pic32mz.o
 .reginfo       0x00000000       0x18 build/default/production/_ext/121284916/sys_devcon_cache_pic32mz.o
 .debug_line    0x00000000      0x22a build/default/production/_ext/121284916/sys_devcon_cache_pic32mz.o
 .debug_info    0x00000000       0xd8 build/default/production/_ext/121284916/sys_devcon_cache_pic32mz.o
 .debug_abbrev  0x00000000       0x14 build/default/production/_ext/121284916/sys_devcon_cache_pic32mz.o
 .debug_aranges
                0x00000000       0x20 build/default/production/_ext/121284916/sys_devcon_cache_pic32mz.o
 .text          0x00000000        0x0 build/default/production/_ext/1317643790/sys_int_pic32.o
 .data          0x00000000        0x0 build/default/production/_ext/1317643790/sys_int_pic32.o
 .bss           0x00000000        0x0 build/default/production/_ext/1317643790/sys_int_pic32.o
 .reginfo       0x00000000       0x18 build/default/production/_ext/1317643790/sys_int_pic32.o
 .text.SYS_INT_StatusGetAndDisable
                0x00000000       0x1c build/default/production/_ext/1317643790/sys_int_pic32.o
 .text.SYS_INT_StatusRestore
                0x00000000       0x1c build/default/production/_ext/1317643790/sys_int_pic32.o
 .text.SYS_INT_Disable
                0x00000000       0x20 build/default/production/_ext/1317643790/sys_int_pic32.o
 .text.SYS_INT_ExternalInterruptTriggerSet
                0x00000000       0x28 build/default/production/_ext/1317643790/sys_int_pic32.o
 .text          0x00000000        0x0 build/default/production/_ext/1276567923/croutine.o
 .data          0x00000000        0x0 build/default/production/_ext/1276567923/croutine.o
 .bss           0x00000000        0x0 build/default/production/_ext/1276567923/croutine.o
 .reginfo       0x00000000       0x18 build/default/production/_ext/1276567923/croutine.o
 .text          0x00000000        0x0 build/default/production/_ext/1276567923/list.o
 .data          0x00000000        0x0 build/default/production/_ext/1276567923/list.o
 .bss           0x00000000        0x0 build/default/production/_ext/1276567923/list.o
 .reginfo       0x00000000       0x18 build/default/production/_ext/1276567923/list.o
 .text          0x00000000        0x0 build/default/production/_ext/1276567923/queue.o
 .data          0x00000000        0x0 build/default/production/_ext/1276567923/queue.o
 .bss           0x00000000        0x0 build/default/production/_ext/1276567923/queue.o
 .reginfo       0x00000000       0x18 build/default/production/_ext/1276567923/queue.o
 .text.xQueueCreateCountingSemaphore
                0x00000000       0x34 build/default/production/_ext/1276567923/queue.o
 .text.xQueueGiveMutexRecursive
                0x00000000       0x68 build/default/production/_ext/1276567923/queue.o
 .text.xQueueGenericSendFromISR
                0x00000000       0xf0 build/default/production/_ext/1276567923/queue.o
 .text.xQueueGiveFromISR
                0x00000000       0xc0 build/default/production/_ext/1276567923/queue.o
 .text.xQueueTakeMutexRecursive
                0x00000000       0x74 build/default/production/_ext/1276567923/queue.o
 .text.xQueuePeek
                0x00000000      0x1b8 build/default/production/_ext/1276567923/queue.o
 .text.xQueueReceiveFromISR
                0x00000000       0xe0 build/default/production/_ext/1276567923/queue.o
 .text.xQueuePeekFromISR
                0x00000000       0x74 build/default/production/_ext/1276567923/queue.o
 .text.uxQueueMessagesWaiting
                0x00000000       0x34 build/default/production/_ext/1276567923/queue.o
 .text.uxQueueSpacesAvailable
                0x00000000       0x38 build/default/production/_ext/1276567923/queue.o
 .text.uxQueueMessagesWaitingFromISR
                0x00000000        0xc build/default/production/_ext/1276567923/queue.o
 .text.vQueueDelete
                0x00000000       0x1c build/default/production/_ext/1276567923/queue.o
 .text.xQueueIsQueueEmptyFromISR
                0x00000000        0xc build/default/production/_ext/1276567923/queue.o
 .text.xQueueIsQueueFullFromISR
                0x00000000       0x14 build/default/production/_ext/1276567923/queue.o
 .text          0x00000000        0x0 build/default/production/_ext/1276567923/tasks.o
 .data          0x00000000        0x0 build/default/production/_ext/1276567923/tasks.o
 .reginfo       0x00000000       0x18 build/default/production/_ext/1276567923/tasks.o
 .text.prvTaskIsTaskSuspended
                0x00000000       0x38 build/default/production/_ext/1276567923/tasks.o
 .text.uxTaskPriorityGetFromISR
                0x00000000       0x3c build/default/production/_ext/1276567923/tasks.o
 .text.xTaskResumeFromISR
                0x00000000       0xd8 build/default/production/_ext/1276567923/tasks.o
 .text.vTaskEndScheduler
                0x00000000       0x34 build/default/production/_ext/1276567923/tasks.o
 .text.xTaskGetTickCount
                0x00000000        0xc build/default/production/_ext/1276567923/tasks.o
 .text.xTaskGetTickCountFromISR
                0x00000000        0xc build/default/production/_ext/1276567923/tasks.o
 .text.uxTaskGetNumberOfTasks
                0x00000000        0xc build/default/production/_ext/1276567923/tasks.o
 .text.pcTaskGetName
                0x00000000       0x10 build/default/production/_ext/1276567923/tasks.o
 .text.vTaskPlaceOnUnorderedEventList
                0x00000000       0x48 build/default/production/_ext/1276567923/tasks.o
 .text.vTaskRemoveFromUnorderedEventList
                0x00000000       0x98 build/default/production/_ext/1276567923/tasks.o
 .text.xTaskGetCurrentTaskHandle
                0x00000000        0xc build/default/production/_ext/1276567923/tasks.o
 .text.vTaskDelete
                0x00000000      0x124 build/default/production/_ext/1276567923/tasks.o
 .text.uxTaskPriorityGet
                0x00000000       0x38 build/default/production/_ext/1276567923/tasks.o
 .text.vTaskPrioritySet
                0x00000000      0x15c build/default/production/_ext/1276567923/tasks.o
 .text.vTaskSuspend
                0x00000000      0x128 build/default/production/_ext/1276567923/tasks.o
 .text.vTaskResume
                0x00000000       0xc0 build/default/production/_ext/1276567923/tasks.o
 .text.vTaskDelayUntil
                0x00000000       0xa8 build/default/production/_ext/1276567923/tasks.o
 .text.vTaskSetTimeOutState
                0x00000000       0x38 build/default/production/_ext/1276567923/tasks.o
 .text.uxTaskResetEventItemValue
                0x00000000       0x24 build/default/production/_ext/1276567923/tasks.o
 .text          0x00000000        0x0 build/default/production/_ext/1276567923/timers.o
 .data          0x00000000        0x0 build/default/production/_ext/1276567923/timers.o
 .bss           0x00000000        0x0 build/default/production/_ext/1276567923/timers.o
 .reginfo       0x00000000       0x18 build/default/production/_ext/1276567923/timers.o
 .text          0x00000000        0x0 build/default/production/_ext/1276567923/event_groups.o
 .data          0x00000000        0x0 build/default/production/_ext/1276567923/event_groups.o
 .bss           0x00000000        0x0 build/default/production/_ext/1276567923/event_groups.o
 .reginfo       0x00000000       0x18 build/default/production/_ext/1276567923/event_groups.o
 .text.xEventGroupCreate
                0x00000000       0x3c build/default/production/_ext/1276567923/event_groups.o
 .text.xEventGroupWaitBits
                0x00000000      0x148 build/default/production/_ext/1276567923/event_groups.o
 .text.xEventGroupClearBits
                0x00000000       0x50 build/default/production/_ext/1276567923/event_groups.o
 .text.xEventGroupGetBitsFromISR
                0x00000000       0x34 build/default/production/_ext/1276567923/event_groups.o
 .text.xEventGroupSetBits
                0x00000000       0xfc build/default/production/_ext/1276567923/event_groups.o
 .text.xEventGroupSync
                0x00000000      0x110 build/default/production/_ext/1276567923/event_groups.o
 .text.vEventGroupDelete
                0x00000000       0x58 build/default/production/_ext/1276567923/event_groups.o
 .text.vEventGroupSetBitsCallback
                0x00000000       0x1c build/default/production/_ext/1276567923/event_groups.o
 .text.vEventGroupClearBitsCallback
                0x00000000       0x1c build/default/production/_ext/1276567923/event_groups.o
 .text          0x00000000        0x0 build/default/production/_ext/457403440/heap_1.o
 .data          0x00000000        0x0 build/default/production/_ext/457403440/heap_1.o
 .reginfo       0x00000000       0x18 build/default/production/_ext/457403440/heap_1.o
 .text.vPortInitialiseBlocks
                0x00000000        0x8 build/default/production/_ext/457403440/heap_1.o
 .text.xPortGetFreeHeapSize
                0x00000000       0x14 build/default/production/_ext/457403440/heap_1.o
 .text          0x00000000        0x0 build/default/production/_ext/1571139743/port.o
 .data          0x00000000        0x0 build/default/production/_ext/1571139743/port.o
 .reginfo       0x00000000       0x18 build/default/production/_ext/1571139743/port.o
 .text.vPortEndScheduler
                0x00000000        0x8 build/default/production/_ext/1571139743/port.o
 .text.vPortClearInterruptMaskFromISR
                0x00000000       0x1c build/default/production/_ext/1571139743/port.o
 .data          0x00000000        0x0 build/default/production/_ext/1571139743/port_asm.o
 .bss           0x00000000        0x0 build/default/production/_ext/1571139743/port_asm.o
 .reginfo       0x00000000       0x18 build/default/production/_ext/1571139743/port_asm.o
 .text          0x00000000        0x0 build/default/production/_ext/1047219354/drv_oc_mapping.o
 .data          0x00000000        0x0 build/default/production/_ext/1047219354/drv_oc_mapping.o
 .bss           0x00000000        0x0 build/default/production/_ext/1047219354/drv_oc_mapping.o
 .reginfo       0x00000000       0x18 build/default/production/_ext/1047219354/drv_oc_mapping.o
 .text.DRV_OC_Initialize
                0x00000000       0x94 build/default/production/_ext/1047219354/drv_oc_mapping.o
 .text.DRV_OC_Start
                0x00000000       0x94 build/default/production/_ext/1047219354/drv_oc_mapping.o
 .text.DRV_OC_Stop
                0x00000000       0x74 build/default/production/_ext/1047219354/drv_oc_mapping.o
 .text.DRV_OC_CompareValuesSingleSet
                0x00000000        0x8 build/default/production/_ext/1047219354/drv_oc_mapping.o
 .text.DRV_OC_CompareValuesDualSet
                0x00000000        0x8 build/default/production/_ext/1047219354/drv_oc_mapping.o
 .text.DRV_OC_PulseWidthSet
                0x00000000       0x74 build/default/production/_ext/1047219354/drv_oc_mapping.o
 .text.DRV_OC_FaultHasOccurred
                0x00000000       0x84 build/default/production/_ext/1047219354/drv_oc_mapping.o
 .text          0x00000000        0x0 build/default/production/_ext/1047219354/drv_oc_static.o
 .data          0x00000000        0x0 build/default/production/_ext/1047219354/drv_oc_static.o
 .bss           0x00000000        0x0 build/default/production/_ext/1047219354/drv_oc_static.o
 .reginfo       0x00000000       0x18 build/default/production/_ext/1047219354/drv_oc_static.o
 .text.DRV_OC0_Disable
                0x00000000       0x14 build/default/production/_ext/1047219354/drv_oc_static.o
 .text.DRV_OC0_Stop
                0x00000000       0x14 build/default/production/_ext/1047219354/drv_oc_static.o
 .text.DRV_OC0_FaultHasOccurred
                0x00000000       0x10 build/default/production/_ext/1047219354/drv_oc_static.o
 .text.DRV_OC1_Disable
                0x00000000       0x14 build/default/production/_ext/1047219354/drv_oc_static.o
 .text.DRV_OC1_Stop
                0x00000000       0x14 build/default/production/_ext/1047219354/drv_oc_static.o
 .text.DRV_OC1_FaultHasOccurred
                0x00000000       0x10 build/default/production/_ext/1047219354/drv_oc_static.o
 .text.DRV_OC2_Disable
                0x00000000       0x14 build/default/production/_ext/1047219354/drv_oc_static.o
 .text.DRV_OC2_Stop
                0x00000000       0x14 build/default/production/_ext/1047219354/drv_oc_static.o
 .text.DRV_OC2_FaultHasOccurred
                0x00000000       0x10 build/default/production/_ext/1047219354/drv_oc_static.o
 .text.DRV_OC3_Disable
                0x00000000       0x14 build/default/production/_ext/1047219354/drv_oc_static.o
 .text.DRV_OC3_Stop
                0x00000000       0x14 build/default/production/_ext/1047219354/drv_oc_static.o
 .text.DRV_OC3_FaultHasOccurred
                0x00000000       0x10 build/default/production/_ext/1047219354/drv_oc_static.o
 .text          0x00000000        0x0 build/default/production/_ext/1407244131/drv_tmr_static.o
 .data          0x00000000        0x0 build/default/production/_ext/1407244131/drv_tmr_static.o
 .bss           0x00000000        0x0 build/default/production/_ext/1407244131/drv_tmr_static.o
 .reginfo       0x00000000       0x18 build/default/production/_ext/1407244131/drv_tmr_static.o
 .text.DRV_TMR0_Stop
                0x00000000       0x40 build/default/production/_ext/1407244131/drv_tmr_static.o
 .text.DRV_TMR0_ClientStatus
                0x00000000       0x14 build/default/production/_ext/1407244131/drv_tmr_static.o
 .text.DRV_TMR0_CounterValueSet
                0x00000000       0x14 build/default/production/_ext/1407244131/drv_tmr_static.o
 .text.DRV_TMR0_CounterValueGet
                0x00000000       0x14 build/default/production/_ext/1407244131/drv_tmr_static.o
 .text.DRV_TMR0_CounterClear
                0x00000000       0x10 build/default/production/_ext/1407244131/drv_tmr_static.o
 .text.DRV_TMR0_DividerRangeGet
                0x00000000       0x2c build/default/production/_ext/1407244131/drv_tmr_static.o
 .text.DRV_TMR0_CounterFrequencyGet
                0x00000000       0x4c build/default/production/_ext/1407244131/drv_tmr_static.o
 .text.DRV_TMR0_PrescalerGet
                0x00000000       0xa4 build/default/production/_ext/1407244131/drv_tmr_static.o
 .text.DRV_TMR0_PeriodValueSet
                0x00000000       0x14 build/default/production/_ext/1407244131/drv_tmr_static.o
 .text.DRV_TMR0_PeriodValueGet
                0x00000000       0x14 build/default/production/_ext/1407244131/drv_tmr_static.o
 .text.DRV_TMR0_StopInIdleDisable
                0x00000000       0x14 build/default/production/_ext/1407244131/drv_tmr_static.o
 .text.DRV_TMR0_StopInIdleEnable
                0x00000000       0x14 build/default/production/_ext/1407244131/drv_tmr_static.o
 .text.DRV_TMR0_ClockSet
                0x00000000       0xc4 build/default/production/_ext/1407244131/drv_tmr_static.o
 .text          0x00000000        0x0 build/default/production/_ext/1407244131/drv_tmr_mapping.o
 .data          0x00000000        0x0 build/default/production/_ext/1407244131/drv_tmr_mapping.o
 .bss           0x00000000        0x0 build/default/production/_ext/1407244131/drv_tmr_mapping.o
 .reginfo       0x00000000       0x18 build/default/production/_ext/1407244131/drv_tmr_mapping.o
 .text.DRV_TMR_Initialize
                0x00000000       0x34 build/default/production/_ext/1407244131/drv_tmr_mapping.o
 .text.DRV_TMR_Deinitialize
                0x00000000       0x28 build/default/production/_ext/1407244131/drv_tmr_mapping.o
 .text.DRV_TMR_Status
                0x00000000        0x8 build/default/production/_ext/1407244131/drv_tmr_mapping.o
 .text.DRV_TMR_Tasks
                0x00000000        0x8 build/default/production/_ext/1407244131/drv_tmr_mapping.o
 .text.DRV_TMR_Open
                0x00000000        0x8 build/default/production/_ext/1407244131/drv_tmr_mapping.o
 .text.DRV_TMR_Close
                0x00000000       0x28 build/default/production/_ext/1407244131/drv_tmr_mapping.o
 .text.DRV_TMR_ClientStatus
                0x00000000       0x30 build/default/production/_ext/1407244131/drv_tmr_mapping.o
 .text.DRV_TMR_CounterValueSet
                0x00000000       0x28 build/default/production/_ext/1407244131/drv_tmr_mapping.o
 .text.DRV_TMR_CounterValueGet
                0x00000000       0x30 build/default/production/_ext/1407244131/drv_tmr_mapping.o
 .text.DRV_TMR_CounterClear
                0x00000000       0x28 build/default/production/_ext/1407244131/drv_tmr_mapping.o
 .text.DRV_TMR_AlarmRegister
                0x00000000        0x8 build/default/production/_ext/1407244131/drv_tmr_mapping.o
 .text.DRV_TMR_AlarmDisable
                0x00000000        0x8 build/default/production/_ext/1407244131/drv_tmr_mapping.o
 .text.DRV_TMR_AlarmEnable
                0x00000000        0x8 build/default/production/_ext/1407244131/drv_tmr_mapping.o
 .text.DRV_TMR_AlarmPeriodSet
                0x00000000        0x8 build/default/production/_ext/1407244131/drv_tmr_mapping.o
 .text.DRV_TMR_AlarmPeriodGet
                0x00000000        0x8 build/default/production/_ext/1407244131/drv_tmr_mapping.o
 .text.DRV_TMR_AlarmDeregister
                0x00000000        0x8 build/default/production/_ext/1407244131/drv_tmr_mapping.o
 .text.DRV_TMR_Start
                0x00000000       0x30 build/default/production/_ext/1407244131/drv_tmr_mapping.o
 .text.DRV_TMR_Stop
                0x00000000       0x28 build/default/production/_ext/1407244131/drv_tmr_mapping.o
 .text.DRV_TMR_AlarmHasElapsed
                0x00000000        0x8 build/default/production/_ext/1407244131/drv_tmr_mapping.o
 .text.DRV_TMR_OperationModeGet
                0x00000000        0x8 build/default/production/_ext/1407244131/drv_tmr_mapping.o
 .text.DRV_TMR_ClockSet
                0x00000000       0x30 build/default/production/_ext/1407244131/drv_tmr_mapping.o
 .text.DRV_TMR_PrescalerGet
                0x00000000       0x30 build/default/production/_ext/1407244131/drv_tmr_mapping.o
 .text.DRV_TMR_GateModeSet
                0x00000000        0x8 build/default/production/_ext/1407244131/drv_tmr_mapping.o
 .text.DRV_TMR_GateModeClear
                0x00000000        0x8 build/default/production/_ext/1407244131/drv_tmr_mapping.o
 .text.DRV_TMR_CounterFrequencyGet
                0x00000000       0x30 build/default/production/_ext/1407244131/drv_tmr_mapping.o
 .text.DRV_TMR_DividerRangeGet
                0x00000000       0x30 build/default/production/_ext/1407244131/drv_tmr_mapping.o
 .text          0x00000000        0x0 build/default/production/_ext/327000265/drv_usart_mapping.o
 .data          0x00000000        0x0 build/default/production/_ext/327000265/drv_usart_mapping.o
 .bss           0x00000000        0x0 build/default/production/_ext/327000265/drv_usart_mapping.o
 .reginfo       0x00000000       0x18 build/default/production/_ext/327000265/drv_usart_mapping.o
 .text.DRV_USART_Deinitialize
                0x00000000       0x44 build/default/production/_ext/327000265/drv_usart_mapping.o
 .text.DRV_USART_Status
                0x00000000       0x4c build/default/production/_ext/327000265/drv_usart_mapping.o
 .text.DRV_USART_Open
                0x00000000       0x4c build/default/production/_ext/327000265/drv_usart_mapping.o
 .text.DRV_USART_Close
                0x00000000       0x48 build/default/production/_ext/327000265/drv_usart_mapping.o
 .text.DRV_USART_ClientStatus
                0x00000000       0x50 build/default/production/_ext/327000265/drv_usart_mapping.o
 .text.DRV_USART_TransferStatus
                0x00000000       0x50 build/default/production/_ext/327000265/drv_usart_mapping.o
 .text.DRV_USART_ErrorGet
                0x00000000       0x50 build/default/production/_ext/327000265/drv_usart_mapping.o
 .text.DRV_USART_ReadByte
                0x00000000       0x50 build/default/production/_ext/327000265/drv_usart_mapping.o
 .text.DRV_USART_WriteByte
                0x00000000       0x48 build/default/production/_ext/327000265/drv_usart_mapping.o
 .text.DRV_USART_ReceiverBufferSizeGet
                0x00000000       0x50 build/default/production/_ext/327000265/drv_usart_mapping.o
 .text.DRV_USART_TransmitBufferSizeGet
                0x00000000       0x50 build/default/production/_ext/327000265/drv_usart_mapping.o
 .text.DRV_USART_ReceiverBufferIsEmpty
                0x00000000       0x50 build/default/production/_ext/327000265/drv_usart_mapping.o
 .text.DRV_USART_TransmitBufferIsFull
                0x00000000       0x50 build/default/production/_ext/327000265/drv_usart_mapping.o
 .text.DRV_USART_BaudSet
                0x00000000       0x50 build/default/production/_ext/327000265/drv_usart_mapping.o
 .text.DRV_USART_LineControlSet
                0x00000000       0x50 build/default/production/_ext/327000265/drv_usart_mapping.o
 .text          0x00000000        0x0 build/default/production/_ext/327000265/drv_usart_static.o
 .data          0x00000000        0x0 build/default/production/_ext/327000265/drv_usart_static.o
 .bss           0x00000000        0x0 build/default/production/_ext/327000265/drv_usart_static.o
 .reginfo       0x00000000       0x18 build/default/production/_ext/327000265/drv_usart_static.o
 .text.DRV_USART0_Deinitialize
                0x00000000       0x4c build/default/production/_ext/327000265/drv_usart_static.o
 .text.DRV_USART0_Status
                0x00000000        0x8 build/default/production/_ext/327000265/drv_usart_static.o
 .text.DRV_USART0_Open
                0x00000000        0x8 build/default/production/_ext/327000265/drv_usart_static.o
 .text.DRV_USART0_Close
                0x00000000        0x8 build/default/production/_ext/327000265/drv_usart_static.o
 .text.DRV_USART0_ClientStatus
                0x00000000        0x8 build/default/production/_ext/327000265/drv_usart_static.o
 .text.DRV_USART0_ErrorGet
                0x00000000       0x10 build/default/production/_ext/327000265/drv_usart_static.o
 .text._DRV_USART0_ErrorConditionClear
                0x00000000       0x88 build/default/production/_ext/327000265/drv_usart_static.o
 .text.DRV_USART0_BaudSet
                0x00000000       0xf0 build/default/production/_ext/327000265/drv_usart_static.o
 .text.DRV_USART0_LineControlSet
                0x00000000       0x74 build/default/production/_ext/327000265/drv_usart_static.o
 .text.DRV_USART1_Deinitialize
                0x00000000       0x4c build/default/production/_ext/327000265/drv_usart_static.o
 .text.DRV_USART1_Status
                0x00000000        0x8 build/default/production/_ext/327000265/drv_usart_static.o
 .text.DRV_USART1_Open
                0x00000000        0x8 build/default/production/_ext/327000265/drv_usart_static.o
 .text.DRV_USART1_Close
                0x00000000        0x8 build/default/production/_ext/327000265/drv_usart_static.o
 .text.DRV_USART1_ClientStatus
                0x00000000        0x8 build/default/production/_ext/327000265/drv_usart_static.o
 .text.DRV_USART1_TransferStatus
                0x00000000       0x48 build/default/production/_ext/327000265/drv_usart_static.o
 .text.DRV_USART1_ErrorGet
                0x00000000       0x10 build/default/production/_ext/327000265/drv_usart_static.o
 .text._DRV_USART1_ErrorConditionClear
                0x00000000       0x88 build/default/production/_ext/327000265/drv_usart_static.o
 .text.DRV_USART1_BaudSet
                0x00000000       0xf0 build/default/production/_ext/327000265/drv_usart_static.o
 .text.DRV_USART1_LineControlSet
                0x00000000       0x74 build/default/production/_ext/327000265/drv_usart_static.o
 .text          0x00000000        0x0 build/default/production/_ext/327000265/drv_usart_static_byte_model.o
 .data          0x00000000        0x0 build/default/production/_ext/327000265/drv_usart_static_byte_model.o
 .bss           0x00000000        0x0 build/default/production/_ext/327000265/drv_usart_static_byte_model.o
 .reginfo       0x00000000       0x18 build/default/production/_ext/327000265/drv_usart_static_byte_model.o
 .text.DRV_USART0_ReceiverBufferSizeGet
                0x00000000        0x8 build/default/production/_ext/327000265/drv_usart_static_byte_model.o
 .text.DRV_USART0_TransmitBufferSizeGet
                0x00000000        0x8 build/default/production/_ext/327000265/drv_usart_static_byte_model.o
 .text.DRV_USART0_TransmitBufferIsFull
                0x00000000       0x14 build/default/production/_ext/327000265/drv_usart_static_byte_model.o
 .text.DRV_USART1_ReadByte
                0x00000000       0x50 build/default/production/_ext/327000265/drv_usart_static_byte_model.o
 .text.DRV_USART1_WriteByte
                0x00000000       0x60 build/default/production/_ext/327000265/drv_usart_static_byte_model.o
 .text.DRV_USART1_ReceiverBufferSizeGet
                0x00000000        0x8 build/default/production/_ext/327000265/drv_usart_static_byte_model.o
 .text.DRV_USART1_TransmitBufferSizeGet
                0x00000000        0x8 build/default/production/_ext/327000265/drv_usart_static_byte_model.o
 .text.DRV_USART1_ReceiverBufferIsEmpty
                0x00000000       0x18 build/default/production/_ext/327000265/drv_usart_static_byte_model.o
 .text.DRV_USART1_TransmitBufferIsFull
                0x00000000       0x14 build/default/production/_ext/327000265/drv_usart_static_byte_model.o
 .text          0x00000000        0x0 build/default/production/_ext/639803181/sys_clk_pic32mz.o
 .data          0x00000000        0x0 build/default/production/_ext/639803181/sys_clk_pic32mz.o
 .bss           0x00000000        0x0 build/default/production/_ext/639803181/sys_clk_pic32mz.o
 .reginfo       0x00000000       0x18 build/default/production/_ext/639803181/sys_clk_pic32mz.o
 .text.SYS_CLK_ReferenceFrequencyGet
                0x00000000        0x8 build/default/production/_ext/639803181/sys_clk_pic32mz.o
 .text.SYS_CLK_SecondaryOscillatorEnable
                0x00000000       0x48 build/default/production/_ext/639803181/sys_clk_pic32mz.o
 .text.SYS_CLK_SecondaryOscillatorDisable
                0x00000000       0x48 build/default/production/_ext/639803181/sys_clk_pic32mz.o
 .text.SYS_CLK_SecondaryOscillatorIsEnabled
                0x00000000       0x10 build/default/production/_ext/639803181/sys_clk_pic32mz.o
 .text          0x00000000        0x0 build/default/production/_ext/822048611/sys_ports_static.o
 .data          0x00000000        0x0 build/default/production/_ext/822048611/sys_ports_static.o
 .bss           0x00000000        0x0 build/default/production/_ext/822048611/sys_ports_static.o
 .reginfo       0x00000000       0x18 build/default/production/_ext/822048611/sys_ports_static.o
 .text.SYS_PORTS_Read
                0x00000000       0x24 build/default/production/_ext/822048611/sys_ports_static.o
 .text.SYS_PORTS_Write
                0x00000000       0x28 build/default/production/_ext/822048611/sys_ports_static.o
 .text.SYS_PORTS_LatchedGet
                0x00000000        0x8 build/default/production/_ext/822048611/sys_ports_static.o
 .text.SYS_PORTS_Set
                0x00000000       0x2c build/default/production/_ext/822048611/sys_ports_static.o
 .text.SYS_PORTS_Clear
                0x00000000       0x28 build/default/production/_ext/822048611/sys_ports_static.o
 .text.SYS_PORTS_DirectionSelect
                0x00000000       0x54 build/default/production/_ext/822048611/sys_ports_static.o
 .text.SYS_PORTS_DirectionGet
                0x00000000       0x24 build/default/production/_ext/822048611/sys_ports_static.o
 .text.SYS_PORTS_Toggle
                0x00000000       0x28 build/default/production/_ext/822048611/sys_ports_static.o
 .text.SYS_PORTS_OpenDrainEnable
                0x00000000       0x28 build/default/production/_ext/822048611/sys_ports_static.o
 .text.SYS_PORTS_OpenDrainDisable
                0x00000000       0x28 build/default/production/_ext/822048611/sys_ports_static.o
 .text.SYS_PORTS_InterruptStatusGet
                0x00000000        0x8 build/default/production/_ext/822048611/sys_ports_static.o
 .text.SYS_PORTS_ChangeNotificationGlobalEnable
                0x00000000        0x8 build/default/production/_ext/822048611/sys_ports_static.o
 .text.SYS_PORTS_ChangeNotificationGlobalDisable
                0x00000000        0x8 build/default/production/_ext/822048611/sys_ports_static.o
 .text.SYS_PORTS_GlobalChangeNotificationDisable
                0x00000000        0x8 build/default/production/_ext/822048611/sys_ports_static.o
 .text.SYS_PORTS_ChangeNotificationEnable
                0x00000000        0x8 build/default/production/_ext/822048611/sys_ports_static.o
 .text.SYS_PORTS_ChangeNotificationDisable
                0x00000000        0x8 build/default/production/_ext/822048611/sys_ports_static.o
 .text.SYS_PORTS_ChangeNotificationInIdleModeEnable
                0x00000000        0x8 build/default/production/_ext/822048611/sys_ports_static.o
 .text.SYS_PORTS_ChangeNotificationInIdleModeDisable
                0x00000000        0x8 build/default/production/_ext/822048611/sys_ports_static.o
 .text.SYS_PORTS_ChangeNotificationPullUpEnable
                0x00000000        0x8 build/default/production/_ext/822048611/sys_ports_static.o
 .text.SYS_PORTS_ChangeNotificationPullUpDisable
                0x00000000        0x8 build/default/production/_ext/822048611/sys_ports_static.o
 .text.SYS_PORTS_PinModeSelect
                0x00000000       0x64 build/default/production/_ext/822048611/sys_ports_static.o
 .text.SYS_PORTS_PinWrite
                0x00000000       0x60 build/default/production/_ext/822048611/sys_ports_static.o
 .text.SYS_PORTS_PinLatchedGet
                0x00000000        0x8 build/default/production/_ext/822048611/sys_ports_static.o
 .text.SYS_PORTS_PinRead
                0x00000000       0x28 build/default/production/_ext/822048611/sys_ports_static.o
 .text.SYS_PORTS_PinToggle
                0x00000000       0x30 build/default/production/_ext/822048611/sys_ports_static.o
 .text.SYS_PORTS_PinSet
                0x00000000       0x30 build/default/production/_ext/822048611/sys_ports_static.o
 .text.SYS_PORTS_PinClear
                0x00000000       0x30 build/default/production/_ext/822048611/sys_ports_static.o
 .text.SYS_PORTS_PinDirectionSelect
                0x00000000       0x60 build/default/production/_ext/822048611/sys_ports_static.o
 .text.SYS_PORTS_PinOpenDrainEnable
                0x00000000       0x30 build/default/production/_ext/822048611/sys_ports_static.o
 .text.SYS_PORTS_PinOpenDrainDisable
                0x00000000       0x30 build/default/production/_ext/822048611/sys_ports_static.o
 .text.SYS_PORTS_PinPullUpEnable
                0x00000000        0x8 build/default/production/_ext/822048611/sys_ports_static.o
 .text.SYS_PORTS_PinPullUpDisable
                0x00000000        0x8 build/default/production/_ext/822048611/sys_ports_static.o
 .text.SYS_PORTS_PinPullDownEnable
                0x00000000        0x8 build/default/production/_ext/822048611/sys_ports_static.o
 .text.SYS_PORTS_PinPullDownDisable
                0x00000000        0x8 build/default/production/_ext/822048611/sys_ports_static.o
 .text.SYS_PORTS_InterruptEnable
                0x00000000        0x8 build/default/production/_ext/822048611/sys_ports_static.o
 .text.SYS_PORTS_RemapInput
                0x00000000       0x5c build/default/production/_ext/822048611/sys_ports_static.o
 .text.SYS_PORTS_RemapOutput
                0x00000000       0x68 build/default/production/_ext/822048611/sys_ports_static.o
 .text          0x00000000        0x0 build/default/production/_ext/1688732426/system_init.o
 .data          0x00000000        0x0 build/default/production/_ext/1688732426/system_init.o
 .bss           0x00000000        0x0 build/default/production/_ext/1688732426/system_init.o
 .reginfo       0x00000000       0x18 build/default/production/_ext/1688732426/system_init.o
 .text          0x00000000        0x0 build/default/production/_ext/1688732426/system_interrupt.o
 .data          0x00000000        0x0 build/default/production/_ext/1688732426/system_interrupt.o
 .bss           0x00000000        0x0 build/default/production/_ext/1688732426/system_interrupt.o
 .reginfo       0x00000000       0x18 build/default/production/_ext/1688732426/system_interrupt.o
 .text          0x00000000        0x0 build/default/production/_ext/1688732426/general_exception_handler.o
 .data          0x00000000        0x0 build/default/production/_ext/1688732426/general_exception_handler.o
 .bss           0x00000000        0x0 build/default/production/_ext/1688732426/general_exception_handler.o
 .reginfo       0x00000000       0x18 build/default/production/_ext/1688732426/general_exception_handler.o
 .text          0x00000000        0x0 build/default/production/_ext/1688732426/general-exception-context.o
 .data          0x00000000        0x0 build/default/production/_ext/1688732426/general-exception-context.o
 .bss           0x00000000        0x0 build/default/production/_ext/1688732426/general-exception-context.o
 .reginfo       0x00000000       0x18 build/default/production/_ext/1688732426/general-exception-context.o
 .text          0x00000000        0x0 build/default/production/_ext/1688732426/fassert.o
 .data          0x00000000        0x0 build/default/production/_ext/1688732426/fassert.o
 .bss           0x00000000        0x0 build/default/production/_ext/1688732426/fassert.o
 .reginfo       0x00000000       0x18 build/default/production/_ext/1688732426/fassert.o
 .text._fassert
                0x00000000        0x8 build/default/production/_ext/1688732426/fassert.o
 .text          0x00000000        0x0 build/default/production/_ext/1688732426/system_tasks.o
 .data          0x00000000        0x0 build/default/production/_ext/1688732426/system_tasks.o
 .bss           0x00000000        0x0 build/default/production/_ext/1688732426/system_tasks.o
 .reginfo       0x00000000       0x18 build/default/production/_ext/1688732426/system_tasks.o
 .text          0x00000000        0x0 build/default/production/_ext/1688732426/system_interrupt_a.o
 .data          0x00000000        0x0 build/default/production/_ext/1688732426/system_interrupt_a.o
 .bss           0x00000000        0x0 build/default/production/_ext/1688732426/system_interrupt_a.o
 .reginfo       0x00000000       0x18 build/default/production/_ext/1688732426/system_interrupt_a.o
 .text          0x00000000        0x0 build/default/production/_ext/1688732426/rtos_hooks.o
 .data          0x00000000        0x0 build/default/production/_ext/1688732426/rtos_hooks.o
 .bss           0x00000000        0x0 build/default/production/_ext/1688732426/rtos_hooks.o
 .reginfo       0x00000000       0x18 build/default/production/_ext/1688732426/rtos_hooks.o
 .text.vAssertCalled
                0x00000000       0x40 build/default/production/_ext/1688732426/rtos_hooks.o
 .text          0x00000000        0x0 /tmp/cckkSrlX.o
 .data          0x00000000        0x0 /tmp/cckkSrlX.o
 .bss           0x00000000        0x0 /tmp/cckkSrlX.o
 .reginfo       0x00000000       0x18 /tmp/cckkSrlX.o
 .text          0x00000000        0x0 /tmp/cccJcx6W.o
 .data          0x00000000        0x0 /tmp/cccJcx6W.o
 .bss           0x00000000        0x0 /tmp/cccJcx6W.o
 .reginfo       0x00000000       0x18 /tmp/cccJcx6W.o
 .text          0x00000000        0x0 /tmp/ccB9yIu0.o
 .data          0x00000000        0x0 /tmp/ccB9yIu0.o
 .bss           0x00000000        0x0 /tmp/ccB9yIu0.o
 .reginfo       0x00000000       0x18 /tmp/ccB9yIu0.o
 .discard       0x00000000        0x4 /tmp/ccB9yIu0.o
 .data          0x00000000        0x0 /opt/microchip/xc32/v2.41/bin/bin/../../lib/gcc/pic32mx/4.8.3/../../../../pic32mx/lib/pic32_software_reset.o
 .bss           0x00000000        0x0 /opt/microchip/xc32/v2.41/bin/bin/../../lib/gcc/pic32mx/4.8.3/../../../../pic32mx/lib/pic32_software_reset.o
 .reginfo       0x00000000       0x18 /opt/microchip/xc32/v2.41/bin/bin/../../lib/gcc/pic32mx/4.8.3/../../../../pic32mx/lib/pic32_software_reset.o
 .text          0x00000000        0x0 /opt/microchip/xc32/v2.41/bin/bin/../../lib/gcc/pic32mx/4.8.3/../../../../pic32mx/lib/./proc/32MZ2048ECM100/vector_offset_init.o
 .data          0x00000000        0x0 /opt/microchip/xc32/v2.41/bin/bin/../../lib/gcc/pic32mx/4.8.3/../../../../pic32mx/lib/./proc/32MZ2048ECM100/vector_offset_init.o
 .bss           0x00000000        0x0 /opt/microchip/xc32/v2.41/bin/bin/../../lib/gcc/pic32mx/4.8.3/../../../../pic32mx/lib/./proc/32MZ2048ECM100/vector_offset_init.o
 .reginfo       0x00000000       0x18 /opt/microchip/xc32/v2.41/bin/bin/../../lib/gcc/pic32mx/4.8.3/../../../../pic32mx/lib/./proc/32MZ2048ECM100/vector_offset_init.o
 .text          0x00000000       0x4c /opt/microchip/xc32/v2.41/bin/bin/../../lib/gcc/pic32mx/4.8.3/libgcc.a(floatunsisf.o)
 .data          0x00000000        0x0 /opt/microchip/xc32/v2.41/bin/bin/../../lib/gcc/pic32mx/4.8.3/libgcc.a(floatunsisf.o)
 .bss           0x00000000        0x0 /opt/microchip/xc32/v2.41/bin/bin/../../lib/gcc/pic32mx/4.8.3/libgcc.a(floatunsisf.o)
 .reginfo       0x00000000       0x18 /opt/microchip/xc32/v2.41/bin/bin/../../lib/gcc/pic32mx/4.8.3/libgcc.a(floatunsisf.o)
 .data          0x00000000        0x0 /opt/microchip/xc32/v2.41/bin/bin/../../lib/gcc/pic32mx/4.8.3/../../../../pic32mx/lib/libpic32.a(memcmp.o)
 .bss           0x00000000        0x0 /opt/microchip/xc32/v2.41/bin/bin/../../lib/gcc/pic32mx/4.8.3/../../../../pic32mx/lib/libpic32.a(memcmp.o)
 .reginfo       0x00000000       0x18 /opt/microchip/xc32/v2.41/bin/bin/../../lib/gcc/pic32mx/4.8.3/../../../../pic32mx/lib/libpic32.a(memcmp.o)
 .data          0x00000000        0x0 /opt/microchip/xc32/v2.41/bin/bin/../../lib/gcc/pic32mx/4.8.3/../../../../pic32mx/lib/libpic32.a(memcpy.o)
 .bss           0x00000000        0x0 /opt/microchip/xc32/v2.41/bin/bin/../../lib/gcc/pic32mx/4.8.3/../../../../pic32mx/lib/libpic32.a(memcpy.o)
 .reginfo       0x00000000       0x18 /opt/microchip/xc32/v2.41/bin/bin/../../lib/gcc/pic32mx/4.8.3/../../../../pic32mx/lib/libpic32.a(memcpy.o)
 .data          0x00000000        0x0 /opt/microchip/xc32/v2.41/bin/bin/../../lib/gcc/pic32mx/4.8.3/../../../../pic32mx/lib/libpic32.a(memset.o)
 .bss           0x00000000        0x0 /opt/microchip/xc32/v2.41/bin/bin/../../lib/gcc/pic32mx/4.8.3/../../../../pic32mx/lib/libpic32.a(memset.o)
 .reginfo       0x00000000       0x18 /opt/microchip/xc32/v2.41/bin/bin/../../lib/gcc/pic32mx/4.8.3/../../../../pic32mx/lib/libpic32.a(memset.o)
 .text          0x00000000        0x0 /opt/microchip/xc32/v2.41/bin/bin/../../lib/gcc/pic32mx/4.8.3/../../../../pic32mx/lib/libpic32.a(default-bootstrap-exception-handler.o)
 .data          0x00000000        0x0 /opt/microchip/xc32/v2.41/bin/bin/../../lib/gcc/pic32mx/4.8.3/../../../../pic32mx/lib/libpic32.a(default-bootstrap-exception-handler.o)
 .bss           0x00000000        0x0 /opt/microchip/xc32/v2.41/bin/bin/../../lib/gcc/pic32mx/4.8.3/../../../../pic32mx/lib/libpic32.a(default-bootstrap-exception-handler.o)
 .reginfo       0x00000000       0x18 /opt/microchip/xc32/v2.41/bin/bin/../../lib/gcc/pic32mx/4.8.3/../../../../pic32mx/lib/libpic32.a(default-bootstrap-exception-handler.o)
 .text          0x00000000        0x0 /opt/microchip/xc32/v2.41/bin/bin/../../lib/gcc/pic32mx/4.8.3/../../../../pic32mx/lib/libpic32.a(default-on-reset.o)
 .data          0x00000000        0x0 /opt/microchip/xc32/v2.41/bin/bin/../../lib/gcc/pic32mx/4.8.3/../../../../pic32mx/lib/libpic32.a(default-on-reset.o)
 .bss           0x00000000        0x0 /opt/microchip/xc32/v2.41/bin/bin/../../lib/gcc/pic32mx/4.8.3/../../../../pic32mx/lib/libpic32.a(default-on-reset.o)
 .reginfo       0x00000000       0x18 /opt/microchip/xc32/v2.41/bin/bin/../../lib/gcc/pic32mx/4.8.3/../../../../pic32mx/lib/libpic32.a(default-on-reset.o)
 .text          0x00000000        0x0 /opt/microchip/xc32/v2.41/bin/bin/../../lib/gcc/pic32mx/4.8.3/../../../../pic32mx/lib/libpic32.a(default-on-bootstrap.o)
 .data          0x00000000        0x0 /opt/microchip/xc32/v2.41/bin/bin/../../lib/gcc/pic32mx/4.8.3/../../../../pic32mx/lib/libpic32.a(default-on-bootstrap.o)
 .bss           0x00000000        0x0 /opt/microchip/xc32/v2.41/bin/bin/../../lib/gcc/pic32mx/4.8.3/../../../../pic32mx/lib/libpic32.a(default-on-bootstrap.o)
 .reginfo       0x00000000       0x18 /opt/microchip/xc32/v2.41/bin/bin/../../lib/gcc/pic32mx/4.8.3/../../../../pic32mx/lib/libpic32.a(default-on-bootstrap.o)
 .data          0x00000000        0x0 /opt/microchip/xc32/v2.41/bin/bin/../../lib/gcc/pic32mx/4.8.3/../../../../pic32mx/lib/libpic32.a(default-nmi-handler.o)
 .bss           0x00000000        0x0 /opt/microchip/xc32/v2.41/bin/bin/../../lib/gcc/pic32mx/4.8.3/../../../../pic32mx/lib/libpic32.a(default-nmi-handler.o)
 .reginfo       0x00000000       0x18 /opt/microchip/xc32/v2.41/bin/bin/../../lib/gcc/pic32mx/4.8.3/../../../../pic32mx/lib/libpic32.a(default-nmi-handler.o)
 .data          0x00000000        0x0 /opt/microchip/xc32/v2.41/bin/bin/../../lib/gcc/pic32mx/4.8.3/../../../../pic32mx/lib/libpic32.a(pic32_data_init.o)
 .bss           0x00000000        0x0 /opt/microchip/xc32/v2.41/bin/bin/../../lib/gcc/pic32mx/4.8.3/../../../../pic32mx/lib/libpic32.a(pic32_data_init.o)
 .reginfo       0x00000000       0x18 /opt/microchip/xc32/v2.41/bin/bin/../../lib/gcc/pic32mx/4.8.3/../../../../pic32mx/lib/libpic32.a(pic32_data_init.o)
 .text          0x00000000        0x0 /opt/microchip/xc32/v2.41/bin/bin/../../lib/gcc/pic32mx/4.8.3/../../../../pic32mx/lib/libpic32.a(pic32_init_cache.o)
 .data          0x00000000        0x0 /opt/microchip/xc32/v2.41/bin/bin/../../lib/gcc/pic32mx/4.8.3/../../../../pic32mx/lib/libpic32.a(pic32_init_cache.o)
 .bss           0x00000000        0x0 /opt/microchip/xc32/v2.41/bin/bin/../../lib/gcc/pic32mx/4.8.3/../../../../pic32mx/lib/libpic32.a(pic32_init_cache.o)
 .reginfo       0x00000000       0x18 /opt/microchip/xc32/v2.41/bin/bin/../../lib/gcc/pic32mx/4.8.3/../../../../pic32mx/lib/libpic32.a(pic32_init_cache.o)
 .cache_init.pic32_size_cache
                0x00000000       0x58 /opt/microchip/xc32/v2.41/bin/bin/../../lib/gcc/pic32mx/4.8.3/../../../../pic32mx/lib/libpic32.a(pic32_init_cache.o)
 .text          0x00000000        0x0 /opt/microchip/xc32/v2.41/bin/bin/../../lib/gcc/pic32mx/4.8.3/../../../../pic32mx/lib/libpic32.a(pic32_init_tlb_ebi_sqi.o)
 .data          0x00000000        0x0 /opt/microchip/xc32/v2.41/bin/bin/../../lib/gcc/pic32mx/4.8.3/../../../../pic32mx/lib/libpic32.a(pic32_init_tlb_ebi_sqi.o)
 .bss           0x00000000        0x0 /opt/microchip/xc32/v2.41/bin/bin/../../lib/gcc/pic32mx/4.8.3/../../../../pic32mx/lib/libpic32.a(pic32_init_tlb_ebi_sqi.o)
 .reginfo       0x00000000       0x18 /opt/microchip/xc32/v2.41/bin/bin/../../lib/gcc/pic32mx/4.8.3/../../../../pic32mx/lib/libpic32.a(pic32_init_tlb_ebi_sqi.o)
 .text          0x00000000        0x0 /opt/microchip/xc32/v2.41/bin/bin/../../lib/gcc/pic32mx/4.8.3/../../../../pic32mx/lib/libpic32.a(cache-err-exception.o)
 .data          0x00000000        0x0 /opt/microchip/xc32/v2.41/bin/bin/../../lib/gcc/pic32mx/4.8.3/../../../../pic32mx/lib/libpic32.a(cache-err-exception.o)
 .bss           0x00000000        0x0 /opt/microchip/xc32/v2.41/bin/bin/../../lib/gcc/pic32mx/4.8.3/../../../../pic32mx/lib/libpic32.a(cache-err-exception.o)
 .reginfo       0x00000000       0x18 /opt/microchip/xc32/v2.41/bin/bin/../../lib/gcc/pic32mx/4.8.3/../../../../pic32mx/lib/libpic32.a(cache-err-exception.o)
 .text          0x00000000        0x0 /opt/microchip/xc32/v2.41/bin/bin/../../lib/gcc/pic32mx/4.8.3/../../../../pic32mx/lib/libpic32.a(simple-tlb-refill-exception.o)
 .data          0x00000000        0x0 /opt/microchip/xc32/v2.41/bin/bin/../../lib/gcc/pic32mx/4.8.3/../../../../pic32mx/lib/libpic32.a(simple-tlb-refill-exception.o)
 .bss           0x00000000        0x0 /opt/microchip/xc32/v2.41/bin/bin/../../lib/gcc/pic32mx/4.8.3/../../../../pic32mx/lib/libpic32.a(simple-tlb-refill-exception.o)
 .reginfo       0x00000000       0x18 /opt/microchip/xc32/v2.41/bin/bin/../../lib/gcc/pic32mx/4.8.3/../../../../pic32mx/lib/libpic32.a(simple-tlb-refill-exception.o)
 .text          0x00000000        0x0 /opt/microchip/xc32/v2.41/bin/bin/../../lib/gcc/pic32mx/4.8.3/../../../../pic32mx/lib/libpic32.a(defaultinterrupt.o)
 .data          0x00000000        0x0 /opt/microchip/xc32/v2.41/bin/bin/../../lib/gcc/pic32mx/4.8.3/../../../../pic32mx/lib/libpic32.a(defaultinterrupt.o)
 .bss           0x00000000        0x0 /opt/microchip/xc32/v2.41/bin/bin/../../lib/gcc/pic32mx/4.8.3/../../../../pic32mx/lib/libpic32.a(defaultinterrupt.o)
 .reginfo       0x00000000       0x18 /opt/microchip/xc32/v2.41/bin/bin/../../lib/gcc/pic32mx/4.8.3/../../../../pic32mx/lib/libpic32.a(defaultinterrupt.o)
 .text          0x00000000        0x0 /opt/microchip/xc32/v2.41/bin/bin/../../lib/gcc/pic32mx/4.8.3/../../../../pic32mx/lib/libpic32.a(default-cache-err-exception-handler.o)
 .data          0x00000000        0x0 /opt/microchip/xc32/v2.41/bin/bin/../../lib/gcc/pic32mx/4.8.3/../../../../pic32mx/lib/libpic32.a(default-cache-err-exception-handler.o)
 .bss           0x00000000        0x0 /opt/microchip/xc32/v2.41/bin/bin/../../lib/gcc/pic32mx/4.8.3/../../../../pic32mx/lib/libpic32.a(default-cache-err-exception-handler.o)
 .reginfo       0x00000000       0x18 /opt/microchip/xc32/v2.41/bin/bin/../../lib/gcc/pic32mx/4.8.3/../../../../pic32mx/lib/libpic32.a(default-cache-err-exception-handler.o)
 .text          0x00000000        0x0 /opt/microchip/xc32/v2.41/bin/bin/../../lib/gcc/pic32mx/4.8.3/../../../../pic32mx/lib/libpic32.a(default-simple-tlb-refill-exception-handler.o)
 .data          0x00000000        0x0 /opt/microchip/xc32/v2.41/bin/bin/../../lib/gcc/pic32mx/4.8.3/../../../../pic32mx/lib/libpic32.a(default-simple-tlb-refill-exception-handler.o)
 .bss           0x00000000        0x0 /opt/microchip/xc32/v2.41/bin/bin/../../lib/gcc/pic32mx/4.8.3/../../../../pic32mx/lib/libpic32.a(default-simple-tlb-refill-exception-handler.o)
 .reginfo       0x00000000       0x18 /opt/microchip/xc32/v2.41/bin/bin/../../lib/gcc/pic32mx/4.8.3/../../../../pic32mx/lib/libpic32.a(default-simple-tlb-refill-exception-handler.o)
 .text          0x00000000        0x0 /opt/microchip/xc32/v2.41/bin/bin/../../lib/gcc/pic32mx/4.8.3/../../../../pic32mx/lib/libc.a(malloc.o)
 .data          0x00000000        0x0 /opt/microchip/xc32/v2.41/bin/bin/../../lib/gcc/pic32mx/4.8.3/../../../../pic32mx/lib/libc.a(malloc.o)
 .bss           0x00000000       0x20 /opt/microchip/xc32/v2.41/bin/bin/../../lib/gcc/pic32mx/4.8.3/../../../../pic32mx/lib/libc.a(malloc.o)
 .reginfo       0x00000000       0x18 /opt/microchip/xc32/v2.41/bin/bin/../../lib/gcc/pic32mx/4.8.3/../../../../pic32mx/lib/libc.a(malloc.o)
 .text.malloc   0x00000000      0x28c /opt/microchip/xc32/v2.41/bin/bin/../../lib/gcc/pic32mx/4.8.3/../../../../pic32mx/lib/libc.a(malloc.o)
 .text.free     0x00000000       0x30 /opt/microchip/xc32/v2.41/bin/bin/../../lib/gcc/pic32mx/4.8.3/../../../../pic32mx/lib/libc.a(malloc.o)
 .text.realloc  0x00000000      0x148 /opt/microchip/xc32/v2.41/bin/bin/../../lib/gcc/pic32mx/4.8.3/../../../../pic32mx/lib/libc.a(malloc.o)
 .text          0x00000000        0x0 /opt/microchip/xc32/v2.41/bin/bin/../../lib/gcc/pic32mx/4.8.3/../../../../pic32mx/lib/libc.a(puts.o)
 .data          0x00000000        0x0 /opt/microchip/xc32/v2.41/bin/bin/../../lib/gcc/pic32mx/4.8.3/../../../../pic32mx/lib/libc.a(puts.o)
 .bss           0x00000000        0x0 /opt/microchip/xc32/v2.41/bin/bin/../../lib/gcc/pic32mx/4.8.3/../../../../pic32mx/lib/libc.a(puts.o)
 .reginfo       0x00000000       0x18 /opt/microchip/xc32/v2.41/bin/bin/../../lib/gcc/pic32mx/4.8.3/../../../../pic32mx/lib/libc.a(puts.o)
 .text.fputs    0x00000000       0x60 /opt/microchip/xc32/v2.41/bin/bin/../../lib/gcc/pic32mx/4.8.3/../../../../pic32mx/lib/libc.a(puts.o)
 .text.puts     0x00000000       0x44 /opt/microchip/xc32/v2.41/bin/bin/../../lib/gcc/pic32mx/4.8.3/../../../../pic32mx/lib/libc.a(puts.o)
 .text          0x00000000        0x0 /opt/microchip/xc32/v2.41/bin/bin/../../lib/gcc/pic32mx/4.8.3/../../../../pic32mx/lib/libc.a(strcat.o)
 .data          0x00000000        0x0 /opt/microchip/xc32/v2.41/bin/bin/../../lib/gcc/pic32mx/4.8.3/../../../../pic32mx/lib/libc.a(strcat.o)
 .bss           0x00000000        0x0 /opt/microchip/xc32/v2.41/bin/bin/../../lib/gcc/pic32mx/4.8.3/../../../../pic32mx/lib/libc.a(strcat.o)
 .reginfo       0x00000000       0x18 /opt/microchip/xc32/v2.41/bin/bin/../../lib/gcc/pic32mx/4.8.3/../../../../pic32mx/lib/libc.a(strcat.o)
 .text.strcat   0x00000000       0x44 /opt/microchip/xc32/v2.41/bin/bin/../../lib/gcc/pic32mx/4.8.3/../../../../pic32mx/lib/libc.a(strcat.o)
 .text          0x00000000        0x0 /opt/microchip/xc32/v2.41/bin/bin/../../lib/gcc/pic32mx/4.8.3/../../../../pic32mx/lib/libc.a(sprintf_cdnopuxX.eo)
 .data          0x00000000        0x0 /opt/microchip/xc32/v2.41/bin/bin/../../lib/gcc/pic32mx/4.8.3/../../../../pic32mx/lib/libc.a(sprintf_cdnopuxX.eo)
 .bss           0x00000000        0x0 /opt/microchip/xc32/v2.41/bin/bin/../../lib/gcc/pic32mx/4.8.3/../../../../pic32mx/lib/libc.a(sprintf_cdnopuxX.eo)
 .reginfo       0x00000000       0x18 /opt/microchip/xc32/v2.41/bin/bin/../../lib/gcc/pic32mx/4.8.3/../../../../pic32mx/lib/libc.a(sprintf_cdnopuxX.eo)
 .text._sprintf_cdnopuxX
                0x00000000       0x68 /opt/microchip/xc32/v2.41/bin/bin/../../lib/gcc/pic32mx/4.8.3/../../../../pic32mx/lib/libc.a(sprintf_cdnopuxX.eo)
 .text          0x00000000        0x0 /opt/microchip/xc32/v2.41/bin/bin/../../lib/gcc/pic32mx/4.8.3/../../../../pic32mx/lib/libc.a(_iob.o)
 .data          0x00000000       0xa4 /opt/microchip/xc32/v2.41/bin/bin/../../lib/gcc/pic32mx/4.8.3/../../../../pic32mx/lib/libc.a(_iob.o)
 .bss           0x00000000       0x44 /opt/microchip/xc32/v2.41/bin/bin/../../lib/gcc/pic32mx/4.8.3/../../../../pic32mx/lib/libc.a(_iob.o)
 .reginfo       0x00000000       0x18 /opt/microchip/xc32/v2.41/bin/bin/../../lib/gcc/pic32mx/4.8.3/../../../../pic32mx/lib/libc.a(_iob.o)
 .text          0x00000000        0x0 /opt/microchip/xc32/v2.41/bin/bin/../../lib/gcc/pic32mx/4.8.3/../../../../pic32mx/lib/libc.a(_fputc_simple.o)
 .data          0x00000000        0x0 /opt/microchip/xc32/v2.41/bin/bin/../../lib/gcc/pic32mx/4.8.3/../../../../pic32mx/lib/libc.a(_fputc_simple.o)
 .bss           0x00000000        0x0 /opt/microchip/xc32/v2.41/bin/bin/../../lib/gcc/pic32mx/4.8.3/../../../../pic32mx/lib/libc.a(_fputc_simple.o)
 .reginfo       0x00000000       0x18 /opt/microchip/xc32/v2.41/bin/bin/../../lib/gcc/pic32mx/4.8.3/../../../../pic32mx/lib/libc.a(_fputc_simple.o)
 .text.fputc    0x00000000      0x144 /opt/microchip/xc32/v2.41/bin/bin/../../lib/gcc/pic32mx/4.8.3/../../../../pic32mx/lib/libc.a(_fputc_simple.o)
 .text          0x00000000        0x0 /opt/microchip/xc32/v2.41/bin/bin/../../lib/gcc/pic32mx/4.8.3/../../../../pic32mx/lib/libc.a(doprnt_cdnopuxX.eo)
 .data          0x00000000        0x0 /opt/microchip/xc32/v2.41/bin/bin/../../lib/gcc/pic32mx/4.8.3/../../../../pic32mx/lib/libc.a(doprnt_cdnopuxX.eo)
 .bss           0x00000000        0x0 /opt/microchip/xc32/v2.41/bin/bin/../../lib/gcc/pic32mx/4.8.3/../../../../pic32mx/lib/libc.a(doprnt_cdnopuxX.eo)
 .reginfo       0x00000000       0x18 /opt/microchip/xc32/v2.41/bin/bin/../../lib/gcc/pic32mx/4.8.3/../../../../pic32mx/lib/libc.a(doprnt_cdnopuxX.eo)
 .rodata        0x00000000       0xd0 /opt/microchip/xc32/v2.41/bin/bin/../../lib/gcc/pic32mx/4.8.3/../../../../pic32mx/lib/libc.a(doprnt_cdnopuxX.eo)
 .text._vfprintf_cdnopuxX
                0x00000000      0xc8c /opt/microchip/xc32/v2.41/bin/bin/../../lib/gcc/pic32mx/4.8.3/../../../../pic32mx/lib/libc.a(doprnt_cdnopuxX.eo)
 .text          0x00000000        0x0 /opt/microchip/xc32/v2.41/bin/bin/../../lib/gcc/pic32mx/4.8.3/../../../../pic32mx/lib/libc.a(_flsbuf_simple.o)
 .data          0x00000000        0x0 /opt/microchip/xc32/v2.41/bin/bin/../../lib/gcc/pic32mx/4.8.3/../../../../pic32mx/lib/libc.a(_flsbuf_simple.o)
 .bss           0x00000000        0x0 /opt/microchip/xc32/v2.41/bin/bin/../../lib/gcc/pic32mx/4.8.3/../../../../pic32mx/lib/libc.a(_flsbuf_simple.o)
 .reginfo       0x00000000       0x18 /opt/microchip/xc32/v2.41/bin/bin/../../lib/gcc/pic32mx/4.8.3/../../../../pic32mx/lib/libc.a(_flsbuf_simple.o)
 .text._flsbuf  0x00000000      0x12c /opt/microchip/xc32/v2.41/bin/bin/../../lib/gcc/pic32mx/4.8.3/../../../../pic32mx/lib/libc.a(_flsbuf_simple.o)
 .text          0x00000000        0x0 /opt/microchip/xc32/v2.41/bin/bin/../../lib/gcc/pic32mx/4.8.3/../../../../pic32mx/lib/libc.a(ctype.o)
 .data          0x00000000        0x0 /opt/microchip/xc32/v2.41/bin/bin/../../lib/gcc/pic32mx/4.8.3/../../../../pic32mx/lib/libc.a(ctype.o)
 .bss           0x00000000        0x0 /opt/microchip/xc32/v2.41/bin/bin/../../lib/gcc/pic32mx/4.8.3/../../../../pic32mx/lib/libc.a(ctype.o)
 .reginfo       0x00000000       0x18 /opt/microchip/xc32/v2.41/bin/bin/../../lib/gcc/pic32mx/4.8.3/../../../../pic32mx/lib/libc.a(ctype.o)
 .rodata        0x00000000      0x104 /opt/microchip/xc32/v2.41/bin/bin/../../lib/gcc/pic32mx/4.8.3/../../../../pic32mx/lib/libc.a(ctype.o)
 .text          0x00000000        0x0 /opt/microchip/xc32/v2.41/bin/bin/../../lib/gcc/pic32mx/4.8.3/../../../../pic32mx/lib/libm.a(fp32div.o)
 .data          0x00000000        0x0 /opt/microchip/xc32/v2.41/bin/bin/../../lib/gcc/pic32mx/4.8.3/../../../../pic32mx/lib/libm.a(fp32div.o)
 .bss           0x00000000        0x0 /opt/microchip/xc32/v2.41/bin/bin/../../lib/gcc/pic32mx/4.8.3/../../../../pic32mx/lib/libm.a(fp32div.o)
 .reginfo       0x00000000       0x18 /opt/microchip/xc32/v2.41/bin/bin/../../lib/gcc/pic32mx/4.8.3/../../../../pic32mx/lib/libm.a(fp32div.o)
 .text.fp32div  0x00000000      0x230 /opt/microchip/xc32/v2.41/bin/bin/../../lib/gcc/pic32mx/4.8.3/../../../../pic32mx/lib/libm.a(fp32div.o)
 .text          0x00000000        0x0 /opt/microchip/xc32/v2.41/bin/bin/../../lib/gcc/pic32mx/4.8.3/../../../../pic32mx/lib/libm.a(fp32mul.o)
 .data          0x00000000        0x0 /opt/microchip/xc32/v2.41/bin/bin/../../lib/gcc/pic32mx/4.8.3/../../../../pic32mx/lib/libm.a(fp32mul.o)
 .bss           0x00000000        0x0 /opt/microchip/xc32/v2.41/bin/bin/../../lib/gcc/pic32mx/4.8.3/../../../../pic32mx/lib/libm.a(fp32mul.o)
 .reginfo       0x00000000       0x18 /opt/microchip/xc32/v2.41/bin/bin/../../lib/gcc/pic32mx/4.8.3/../../../../pic32mx/lib/libm.a(fp32mul.o)
 .text.fp32mul  0x00000000      0x1bc /opt/microchip/xc32/v2.41/bin/bin/../../lib/gcc/pic32mx/4.8.3/../../../../pic32mx/lib/libm.a(fp32mul.o)
 .text          0x00000000        0x0 /opt/microchip/xc32/v2.41/bin/bin/../../lib/gcc/pic32mx/4.8.3/../../../../pic32mx/lib/libm.a(fp32subadd.o)
 .data          0x00000000        0x0 /opt/microchip/xc32/v2.41/bin/bin/../../lib/gcc/pic32mx/4.8.3/../../../../pic32mx/lib/libm.a(fp32subadd.o)
 .bss           0x00000000        0x0 /opt/microchip/xc32/v2.41/bin/bin/../../lib/gcc/pic32mx/4.8.3/../../../../pic32mx/lib/libm.a(fp32subadd.o)
 .reginfo       0x00000000       0x18 /opt/microchip/xc32/v2.41/bin/bin/../../lib/gcc/pic32mx/4.8.3/../../../../pic32mx/lib/libm.a(fp32subadd.o)
 .text.fpsubadd
                0x00000000      0x278 /opt/microchip/xc32/v2.41/bin/bin/../../lib/gcc/pic32mx/4.8.3/../../../../pic32mx/lib/libm.a(fp32subadd.o)
 .text          0x00000000        0x0 /opt/microchip/xc32/v2.41/bin/bin/../../lib/gcc/pic32mx/4.8.3/../../../../pic32mx/lib/libm.a(fpcmp.o)
 .data          0x00000000        0x0 /opt/microchip/xc32/v2.41/bin/bin/../../lib/gcc/pic32mx/4.8.3/../../../../pic32mx/lib/libm.a(fpcmp.o)
 .bss           0x00000000        0x0 /opt/microchip/xc32/v2.41/bin/bin/../../lib/gcc/pic32mx/4.8.3/../../../../pic32mx/lib/libm.a(fpcmp.o)
 .reginfo       0x00000000       0x18 /opt/microchip/xc32/v2.41/bin/bin/../../lib/gcc/pic32mx/4.8.3/../../../../pic32mx/lib/libm.a(fpcmp.o)
 .text.fpcmp    0x00000000       0x9c /opt/microchip/xc32/v2.41/bin/bin/../../lib/gcc/pic32mx/4.8.3/../../../../pic32mx/lib/libm.a(fpcmp.o)
 .text          0x00000000        0x0 /opt/microchip/xc32/v2.41/bin/bin/../../lib/gcc/pic32mx/4.8.3/../../../../pic32mx/lib/libm.a(fpcos32.o)
 .data          0x00000000        0x0 /opt/microchip/xc32/v2.41/bin/bin/../../lib/gcc/pic32mx/4.8.3/../../../../pic32mx/lib/libm.a(fpcos32.o)
 .bss           0x00000000        0x0 /opt/microchip/xc32/v2.41/bin/bin/../../lib/gcc/pic32mx/4.8.3/../../../../pic32mx/lib/libm.a(fpcos32.o)
 .reginfo       0x00000000       0x18 /opt/microchip/xc32/v2.41/bin/bin/../../lib/gcc/pic32mx/4.8.3/../../../../pic32mx/lib/libm.a(fpcos32.o)
 .text.libm     0x00000000      0x118 /opt/microchip/xc32/v2.41/bin/bin/../../lib/gcc/pic32mx/4.8.3/../../../../pic32mx/lib/libm.a(fpcos32.o)
 .text          0x00000000        0x0 /opt/microchip/xc32/v2.41/bin/bin/../../lib/gcc/pic32mx/4.8.3/../../../../pic32mx/lib/libm.a(fpreduct32.o)
 .data          0x00000000        0x0 /opt/microchip/xc32/v2.41/bin/bin/../../lib/gcc/pic32mx/4.8.3/../../../../pic32mx/lib/libm.a(fpreduct32.o)
 .bss           0x00000000        0x0 /opt/microchip/xc32/v2.41/bin/bin/../../lib/gcc/pic32mx/4.8.3/../../../../pic32mx/lib/libm.a(fpreduct32.o)
 .reginfo       0x00000000       0x18 /opt/microchip/xc32/v2.41/bin/bin/../../lib/gcc/pic32mx/4.8.3/../../../../pic32mx/lib/libm.a(fpreduct32.o)
 .text.libm     0x00000000      0x10c /opt/microchip/xc32/v2.41/bin/bin/../../lib/gcc/pic32mx/4.8.3/../../../../pic32mx/lib/libm.a(fpreduct32.o)
 .text          0x00000000        0x0 /opt/microchip/xc32/v2.41/bin/bin/../../lib/gcc/pic32mx/4.8.3/../../../../pic32mx/lib/libm.a(fpsin32.o)
 .data          0x00000000        0x0 /opt/microchip/xc32/v2.41/bin/bin/../../lib/gcc/pic32mx/4.8.3/../../../../pic32mx/lib/libm.a(fpsin32.o)
 .bss           0x00000000        0x0 /opt/microchip/xc32/v2.41/bin/bin/../../lib/gcc/pic32mx/4.8.3/../../../../pic32mx/lib/libm.a(fpsin32.o)
 .reginfo       0x00000000       0x18 /opt/microchip/xc32/v2.41/bin/bin/../../lib/gcc/pic32mx/4.8.3/../../../../pic32mx/lib/libm.a(fpsin32.o)
 .text.libm     0x00000000      0x11c /opt/microchip/xc32/v2.41/bin/bin/../../lib/gcc/pic32mx/4.8.3/../../../../pic32mx/lib/libm.a(fpsin32.o)
 .text          0x00000000        0x0 /opt/microchip/xc32/v2.41/bin/bin/../../lib/gcc/pic32mx/4.8.3/../../../../pic32mx/lib/libm.a(fptoul.o)
 .data          0x00000000        0x0 /opt/microchip/xc32/v2.41/bin/bin/../../lib/gcc/pic32mx/4.8.3/../../../../pic32mx/lib/libm.a(fptoul.o)
 .bss           0x00000000        0x0 /opt/microchip/xc32/v2.41/bin/bin/../../lib/gcc/pic32mx/4.8.3/../../../../pic32mx/lib/libm.a(fptoul.o)
 .reginfo       0x00000000       0x18 /opt/microchip/xc32/v2.41/bin/bin/../../lib/gcc/pic32mx/4.8.3/../../../../pic32mx/lib/libm.a(fptoul.o)
 .text.fptoul   0x00000000       0x7c /opt/microchip/xc32/v2.41/bin/bin/../../lib/gcc/pic32mx/4.8.3/../../../../pic32mx/lib/libm.a(fptoul.o)
 .text          0x00000000        0x0 /opt/microchip/xc32/v2.41/bin/bin/../../lib/gcc/pic32mx/4.8.3/../../../../pic32mx/lib/libm.a(sincof32.o)
 .data          0x00000000       0x24 /opt/microchip/xc32/v2.41/bin/bin/../../lib/gcc/pic32mx/4.8.3/../../../../pic32mx/lib/libm.a(sincof32.o)
 .bss           0x00000000        0x0 /opt/microchip/xc32/v2.41/bin/bin/../../lib/gcc/pic32mx/4.8.3/../../../../pic32mx/lib/libm.a(sincof32.o)
 .reginfo       0x00000000       0x18 /opt/microchip/xc32/v2.41/bin/bin/../../lib/gcc/pic32mx/4.8.3/../../../../pic32mx/lib/libm.a(sincof32.o)
 .text          0x00000000        0x0 /opt/microchip/xc32/v2.41/bin/bin/../../lib/gcc/pic32mx/4.8.3/../../../../pic32mx/lib/libm.a(sitofp.o)
 .data          0x00000000        0x0 /opt/microchip/xc32/v2.41/bin/bin/../../lib/gcc/pic32mx/4.8.3/../../../../pic32mx/lib/libm.a(sitofp.o)
 .bss           0x00000000        0x0 /opt/microchip/xc32/v2.41/bin/bin/../../lib/gcc/pic32mx/4.8.3/../../../../pic32mx/lib/libm.a(sitofp.o)
 .reginfo       0x00000000       0x18 /opt/microchip/xc32/v2.41/bin/bin/../../lib/gcc/pic32mx/4.8.3/../../../../pic32mx/lib/libm.a(sitofp.o)
 .text.sitofp   0x00000000       0x60 /opt/microchip/xc32/v2.41/bin/bin/../../lib/gcc/pic32mx/4.8.3/../../../../pic32mx/lib/libm.a(sitofp.o)
 .text          0x00000000        0x0 /opt/microchip/xc32/v2.41/bin/bin/../../lib/gcc/pic32mx/4.8.3/../../../../pic32mx/lib/libm.a(w_asinf.o)
 .data          0x00000000        0x0 /opt/microchip/xc32/v2.41/bin/bin/../../lib/gcc/pic32mx/4.8.3/../../../../pic32mx/lib/libm.a(w_asinf.o)
 .bss           0x00000000        0x0 /opt/microchip/xc32/v2.41/bin/bin/../../lib/gcc/pic32mx/4.8.3/../../../../pic32mx/lib/libm.a(w_asinf.o)
 .reginfo       0x00000000       0x18 /opt/microchip/xc32/v2.41/bin/bin/../../lib/gcc/pic32mx/4.8.3/../../../../pic32mx/lib/libm.a(w_asinf.o)
 .text.asinf    0x00000000       0x7c /opt/microchip/xc32/v2.41/bin/bin/../../lib/gcc/pic32mx/4.8.3/../../../../pic32mx/lib/libm.a(w_asinf.o)
 .rodata        0x00000000        0x4 /opt/microchip/xc32/v2.41/bin/bin/../../lib/gcc/pic32mx/4.8.3/../../../../pic32mx/lib/libm.a(w_asinf.o)
 .text          0x00000000        0x0 /opt/microchip/xc32/v2.41/bin/bin/../../lib/gcc/pic32mx/4.8.3/../../../../pic32mx/lib/libm.a(w_atan2f.o)
 .data          0x00000000        0x0 /opt/microchip/xc32/v2.41/bin/bin/../../lib/gcc/pic32mx/4.8.3/../../../../pic32mx/lib/libm.a(w_atan2f.o)
 .bss           0x00000000        0x0 /opt/microchip/xc32/v2.41/bin/bin/../../lib/gcc/pic32mx/4.8.3/../../../../pic32mx/lib/libm.a(w_atan2f.o)
 .reginfo       0x00000000       0x18 /opt/microchip/xc32/v2.41/bin/bin/../../lib/gcc/pic32mx/4.8.3/../../../../pic32mx/lib/libm.a(w_atan2f.o)
 .text.atan2f   0x00000000      0x1f8 /opt/microchip/xc32/v2.41/bin/bin/../../lib/gcc/pic32mx/4.8.3/../../../../pic32mx/lib/libm.a(w_atan2f.o)
 .rodata        0x00000000       0x28 /opt/microchip/xc32/v2.41/bin/bin/../../lib/gcc/pic32mx/4.8.3/../../../../pic32mx/lib/libm.a(w_atan2f.o)
 .text          0x00000000        0x0 /opt/microchip/xc32/v2.41/bin/bin/../../lib/gcc/pic32mx/4.8.3/../../../../pic32mx/lib/libm.a(support.o)
 .data          0x00000000        0x0 /opt/microchip/xc32/v2.41/bin/bin/../../lib/gcc/pic32mx/4.8.3/../../../../pic32mx/lib/libm.a(support.o)
 .bss           0x00000000        0x0 /opt/microchip/xc32/v2.41/bin/bin/../../lib/gcc/pic32mx/4.8.3/../../../../pic32mx/lib/libm.a(support.o)
 .reginfo       0x00000000       0x18 /opt/microchip/xc32/v2.41/bin/bin/../../lib/gcc/pic32mx/4.8.3/../../../../pic32mx/lib/libm.a(support.o)
 .text.copysignl
                0x00000000       0x34 /opt/microchip/xc32/v2.41/bin/bin/../../lib/gcc/pic32mx/4.8.3/../../../../pic32mx/lib/libm.a(support.o)
 .text.copysign
                0x00000000       0x3c /opt/microchip/xc32/v2.41/bin/bin/../../lib/gcc/pic32mx/4.8.3/../../../../pic32mx/lib/libm.a(support.o)
 .text.copysignf
                0x00000000       0x90 /opt/microchip/xc32/v2.41/bin/bin/../../lib/gcc/pic32mx/4.8.3/../../../../pic32mx/lib/libm.a(support.o)
 .text.logbl    0x00000000      0x124 /opt/microchip/xc32/v2.41/bin/bin/../../lib/gcc/pic32mx/4.8.3/../../../../pic32mx/lib/libm.a(support.o)
 .text.logb     0x00000000       0x1c /opt/microchip/xc32/v2.41/bin/bin/../../lib/gcc/pic32mx/4.8.3/../../../../pic32mx/lib/libm.a(support.o)
 .text.logbf    0x00000000       0x3c /opt/microchip/xc32/v2.41/bin/bin/../../lib/gcc/pic32mx/4.8.3/../../../../pic32mx/lib/libm.a(support.o)
 .text.finitel  0x00000000       0x1c /opt/microchip/xc32/v2.41/bin/bin/../../lib/gcc/pic32mx/4.8.3/../../../../pic32mx/lib/libm.a(support.o)
 .text.finite   0x00000000       0x24 /opt/microchip/xc32/v2.41/bin/bin/../../lib/gcc/pic32mx/4.8.3/../../../../pic32mx/lib/libm.a(support.o)
 .text.finitef  0x00000000       0x3c /opt/microchip/xc32/v2.41/bin/bin/../../lib/gcc/pic32mx/4.8.3/../../../../pic32mx/lib/libm.a(support.o)
 .text.dreml    0x00000000      0x46c /opt/microchip/xc32/v2.41/bin/bin/../../lib/gcc/pic32mx/4.8.3/../../../../pic32mx/lib/libm.a(support.o)
 .text.drem     0x00000000       0x1c /opt/microchip/xc32/v2.41/bin/bin/../../lib/gcc/pic32mx/4.8.3/../../../../pic32mx/lib/libm.a(support.o)
 .text.dremf    0x00000000       0x8c /opt/microchip/xc32/v2.41/bin/bin/../../lib/gcc/pic32mx/4.8.3/../../../../pic32mx/lib/libm.a(support.o)
 .rodata        0x00000000       0x20 /opt/microchip/xc32/v2.41/bin/bin/../../lib/gcc/pic32mx/4.8.3/../../../../pic32mx/lib/libm.a(support.o)
 .text          0x00000000        0x0 /opt/microchip/xc32/v2.41/bin/bin/../../lib/gcc/pic32mx/4.8.3/../../../../pic32mx/lib/libm.a(dpldexp.o)
 .data          0x00000000        0x0 /opt/microchip/xc32/v2.41/bin/bin/../../lib/gcc/pic32mx/4.8.3/../../../../pic32mx/lib/libm.a(dpldexp.o)
 .bss           0x00000000        0x0 /opt/microchip/xc32/v2.41/bin/bin/../../lib/gcc/pic32mx/4.8.3/../../../../pic32mx/lib/libm.a(dpldexp.o)
 .reginfo       0x00000000       0x18 /opt/microchip/xc32/v2.41/bin/bin/../../lib/gcc/pic32mx/4.8.3/../../../../pic32mx/lib/libm.a(dpldexp.o)
 .text.libm     0x00000000      0x16c /opt/microchip/xc32/v2.41/bin/bin/../../lib/gcc/pic32mx/4.8.3/../../../../pic32mx/lib/libm.a(dpldexp.o)
 .text          0x00000000        0x0 /opt/microchip/xc32/v2.41/bin/bin/../../lib/gcc/pic32mx/4.8.3/../../../../pic32mx/lib/libm.a(dp32div.o)
 .data          0x00000000        0x0 /opt/microchip/xc32/v2.41/bin/bin/../../lib/gcc/pic32mx/4.8.3/../../../../pic32mx/lib/libm.a(dp32div.o)
 .bss           0x00000000        0x0 /opt/microchip/xc32/v2.41/bin/bin/../../lib/gcc/pic32mx/4.8.3/../../../../pic32mx/lib/libm.a(dp32div.o)
 .reginfo       0x00000000       0x18 /opt/microchip/xc32/v2.41/bin/bin/../../lib/gcc/pic32mx/4.8.3/../../../../pic32mx/lib/libm.a(dp32div.o)
 .text.dp32mul  0x00000000      0x4b8 /opt/microchip/xc32/v2.41/bin/bin/../../lib/gcc/pic32mx/4.8.3/../../../../pic32mx/lib/libm.a(dp32div.o)
 .text          0x00000000        0x0 /opt/microchip/xc32/v2.41/bin/bin/../../lib/gcc/pic32mx/4.8.3/../../../../pic32mx/lib/libm.a(dp32mul.o)
 .data          0x00000000        0x0 /opt/microchip/xc32/v2.41/bin/bin/../../lib/gcc/pic32mx/4.8.3/../../../../pic32mx/lib/libm.a(dp32mul.o)
 .bss           0x00000000        0x0 /opt/microchip/xc32/v2.41/bin/bin/../../lib/gcc/pic32mx/4.8.3/../../../../pic32mx/lib/libm.a(dp32mul.o)
 .reginfo       0x00000000       0x18 /opt/microchip/xc32/v2.41/bin/bin/../../lib/gcc/pic32mx/4.8.3/../../../../pic32mx/lib/libm.a(dp32mul.o)
 .text.dp32mul  0x00000000      0x32c /opt/microchip/xc32/v2.41/bin/bin/../../lib/gcc/pic32mx/4.8.3/../../../../pic32mx/lib/libm.a(dp32mul.o)
 .text          0x00000000        0x0 /opt/microchip/xc32/v2.41/bin/bin/../../lib/gcc/pic32mx/4.8.3/../../../../pic32mx/lib/libm.a(dp32subadd.o)
 .data          0x00000000        0x0 /opt/microchip/xc32/v2.41/bin/bin/../../lib/gcc/pic32mx/4.8.3/../../../../pic32mx/lib/libm.a(dp32subadd.o)
 .bss           0x00000000        0x0 /opt/microchip/xc32/v2.41/bin/bin/../../lib/gcc/pic32mx/4.8.3/../../../../pic32mx/lib/libm.a(dp32subadd.o)
 .reginfo       0x00000000       0x18 /opt/microchip/xc32/v2.41/bin/bin/../../lib/gcc/pic32mx/4.8.3/../../../../pic32mx/lib/libm.a(dp32subadd.o)
 .text.dp32subadd
                0x00000000      0x430 /opt/microchip/xc32/v2.41/bin/bin/../../lib/gcc/pic32mx/4.8.3/../../../../pic32mx/lib/libm.a(dp32subadd.o)
 .text          0x00000000        0x0 /opt/microchip/xc32/v2.41/bin/bin/../../lib/gcc/pic32mx/4.8.3/../../../../pic32mx/lib/libm.a(dpcmp.o)
 .data          0x00000000        0x0 /opt/microchip/xc32/v2.41/bin/bin/../../lib/gcc/pic32mx/4.8.3/../../../../pic32mx/lib/libm.a(dpcmp.o)
 .bss           0x00000000        0x0 /opt/microchip/xc32/v2.41/bin/bin/../../lib/gcc/pic32mx/4.8.3/../../../../pic32mx/lib/libm.a(dpcmp.o)
 .reginfo       0x00000000       0x18 /opt/microchip/xc32/v2.41/bin/bin/../../lib/gcc/pic32mx/4.8.3/../../../../pic32mx/lib/libm.a(dpcmp.o)
 .text.dpcmp    0x00000000      0x12c /opt/microchip/xc32/v2.41/bin/bin/../../lib/gcc/pic32mx/4.8.3/../../../../pic32mx/lib/libm.a(dpcmp.o)
 .text          0x00000000        0x0 /opt/microchip/xc32/v2.41/bin/bin/../../lib/gcc/pic32mx/4.8.3/../../../../pic32mx/lib/libm.a(dptofp.o)
 .data          0x00000000        0x0 /opt/microchip/xc32/v2.41/bin/bin/../../lib/gcc/pic32mx/4.8.3/../../../../pic32mx/lib/libm.a(dptofp.o)
 .bss           0x00000000        0x0 /opt/microchip/xc32/v2.41/bin/bin/../../lib/gcc/pic32mx/4.8.3/../../../../pic32mx/lib/libm.a(dptofp.o)
 .reginfo       0x00000000       0x18 /opt/microchip/xc32/v2.41/bin/bin/../../lib/gcc/pic32mx/4.8.3/../../../../pic32mx/lib/libm.a(dptofp.o)
 .text.dptofp   0x00000000      0x100 /opt/microchip/xc32/v2.41/bin/bin/../../lib/gcc/pic32mx/4.8.3/../../../../pic32mx/lib/libm.a(dptofp.o)
 .text          0x00000000        0x0 /opt/microchip/xc32/v2.41/bin/bin/../../lib/gcc/pic32mx/4.8.3/../../../../pic32mx/lib/libm.a(fpasin.o)
 .data          0x00000000        0x0 /opt/microchip/xc32/v2.41/bin/bin/../../lib/gcc/pic32mx/4.8.3/../../../../pic32mx/lib/libm.a(fpasin.o)
 .bss           0x00000000        0x0 /opt/microchip/xc32/v2.41/bin/bin/../../lib/gcc/pic32mx/4.8.3/../../../../pic32mx/lib/libm.a(fpasin.o)
 .reginfo       0x00000000       0x18 /opt/microchip/xc32/v2.41/bin/bin/../../lib/gcc/pic32mx/4.8.3/../../../../pic32mx/lib/libm.a(fpasin.o)
 .text.libm     0x00000000      0x1dc /opt/microchip/xc32/v2.41/bin/bin/../../lib/gcc/pic32mx/4.8.3/../../../../pic32mx/lib/libm.a(fpasin.o)
 .text          0x00000000        0x0 /opt/microchip/xc32/v2.41/bin/bin/../../lib/gcc/pic32mx/4.8.3/../../../../pic32mx/lib/libm.a(fpatan2.o)
 .data          0x00000000        0x0 /opt/microchip/xc32/v2.41/bin/bin/../../lib/gcc/pic32mx/4.8.3/../../../../pic32mx/lib/libm.a(fpatan2.o)
 .bss           0x00000000        0x0 /opt/microchip/xc32/v2.41/bin/bin/../../lib/gcc/pic32mx/4.8.3/../../../../pic32mx/lib/libm.a(fpatan2.o)
 .reginfo       0x00000000       0x18 /opt/microchip/xc32/v2.41/bin/bin/../../lib/gcc/pic32mx/4.8.3/../../../../pic32mx/lib/libm.a(fpatan2.o)
 .text.libm     0x00000000      0x248 /opt/microchip/xc32/v2.41/bin/bin/../../lib/gcc/pic32mx/4.8.3/../../../../pic32mx/lib/libm.a(fpatan2.o)
 .text          0x00000000        0x0 /opt/microchip/xc32/v2.41/bin/bin/../../lib/gcc/pic32mx/4.8.3/../../../../pic32mx/lib/libm.a(fpexatan.o)
 .data          0x00000000      0x100 /opt/microchip/xc32/v2.41/bin/bin/../../lib/gcc/pic32mx/4.8.3/../../../../pic32mx/lib/libm.a(fpexatan.o)
 .bss           0x00000000        0x0 /opt/microchip/xc32/v2.41/bin/bin/../../lib/gcc/pic32mx/4.8.3/../../../../pic32mx/lib/libm.a(fpexatan.o)
 .reginfo       0x00000000       0x18 /opt/microchip/xc32/v2.41/bin/bin/../../lib/gcc/pic32mx/4.8.3/../../../../pic32mx/lib/libm.a(fpexatan.o)
 .text.fpexatan
                0x00000000        0x0 /opt/microchip/xc32/v2.41/bin/bin/../../lib/gcc/pic32mx/4.8.3/../../../../pic32mx/lib/libm.a(fpexatan.o)
 .text.libm     0x00000000      0x350 /opt/microchip/xc32/v2.41/bin/bin/../../lib/gcc/pic32mx/4.8.3/../../../../pic32mx/lib/libm.a(fpexatan.o)
 .text          0x00000000        0x0 /opt/microchip/xc32/v2.41/bin/bin/../../lib/gcc/pic32mx/4.8.3/../../../../pic32mx/lib/libm.a(fpfabs.o)
 .data          0x00000000        0x0 /opt/microchip/xc32/v2.41/bin/bin/../../lib/gcc/pic32mx/4.8.3/../../../../pic32mx/lib/libm.a(fpfabs.o)
 .bss           0x00000000        0x0 /opt/microchip/xc32/v2.41/bin/bin/../../lib/gcc/pic32mx/4.8.3/../../../../pic32mx/lib/libm.a(fpfabs.o)
 .reginfo       0x00000000       0x18 /opt/microchip/xc32/v2.41/bin/bin/../../lib/gcc/pic32mx/4.8.3/../../../../pic32mx/lib/libm.a(fpfabs.o)
 .text.fpfabs   0x00000000       0x14 /opt/microchip/xc32/v2.41/bin/bin/../../lib/gcc/pic32mx/4.8.3/../../../../pic32mx/lib/libm.a(fpfabs.o)
 .text          0x00000000        0x0 /opt/microchip/xc32/v2.41/bin/bin/../../lib/gcc/pic32mx/4.8.3/../../../../pic32mx/lib/libm.a(fpexsqrt32.o)
 .data          0x00000000        0x0 /opt/microchip/xc32/v2.41/bin/bin/../../lib/gcc/pic32mx/4.8.3/../../../../pic32mx/lib/libm.a(fpexsqrt32.o)
 .bss           0x00000000        0x0 /opt/microchip/xc32/v2.41/bin/bin/../../lib/gcc/pic32mx/4.8.3/../../../../pic32mx/lib/libm.a(fpexsqrt32.o)
 .reginfo       0x00000000       0x18 /opt/microchip/xc32/v2.41/bin/bin/../../lib/gcc/pic32mx/4.8.3/../../../../pic32mx/lib/libm.a(fpexsqrt32.o)
 .text.libm.fpexsqrt
                0x00000000       0xfc /opt/microchip/xc32/v2.41/bin/bin/../../lib/gcc/pic32mx/4.8.3/../../../../pic32mx/lib/libm.a(fpexsqrt32.o)
 .text          0x00000000        0x0 /opt/microchip/xc32/v2.41/bin/bin/../../lib/gcc/pic32mx/4.8.3/../../../../pic32mx/lib/libm.a(fptodp.o)
 .data          0x00000000        0x0 /opt/microchip/xc32/v2.41/bin/bin/../../lib/gcc/pic32mx/4.8.3/../../../../pic32mx/lib/libm.a(fptodp.o)
 .bss           0x00000000        0x0 /opt/microchip/xc32/v2.41/bin/bin/../../lib/gcc/pic32mx/4.8.3/../../../../pic32mx/lib/libm.a(fptodp.o)
 .reginfo       0x00000000       0x18 /opt/microchip/xc32/v2.41/bin/bin/../../lib/gcc/pic32mx/4.8.3/../../../../pic32mx/lib/libm.a(fptodp.o)
 .text.fptodp   0x00000000       0xac /opt/microchip/xc32/v2.41/bin/bin/../../lib/gcc/pic32mx/4.8.3/../../../../pic32mx/lib/libm.a(fptodp.o)
 .text          0x00000000        0x0 /opt/microchip/xc32/v2.41/bin/bin/../../lib/gcc/pic32mx/4.8.3/../../../../pic32mx/lib/libm.a(litodp.o)
 .data          0x00000000        0x0 /opt/microchip/xc32/v2.41/bin/bin/../../lib/gcc/pic32mx/4.8.3/../../../../pic32mx/lib/libm.a(litodp.o)
 .bss           0x00000000        0x0 /opt/microchip/xc32/v2.41/bin/bin/../../lib/gcc/pic32mx/4.8.3/../../../../pic32mx/lib/libm.a(litodp.o)
 .reginfo       0x00000000       0x18 /opt/microchip/xc32/v2.41/bin/bin/../../lib/gcc/pic32mx/4.8.3/../../../../pic32mx/lib/libm.a(litodp.o)
 .text.litodp   0x00000000       0x78 /opt/microchip/xc32/v2.41/bin/bin/../../lib/gcc/pic32mx/4.8.3/../../../../pic32mx/lib/libm.a(litodp.o)
 .text          0x00000000        0x0 /opt/microchip/xc32/v2.41/bin/bin/../../lib/gcc/pic32mx/4.8.3/../../../../pic32mx/lib/libm.a(s_lib_ver.o)
 .data          0x00000000        0x0 /opt/microchip/xc32/v2.41/bin/bin/../../lib/gcc/pic32mx/4.8.3/../../../../pic32mx/lib/libm.a(s_lib_ver.o)
 .bss           0x00000000        0x0 /opt/microchip/xc32/v2.41/bin/bin/../../lib/gcc/pic32mx/4.8.3/../../../../pic32mx/lib/libm.a(s_lib_ver.o)
 .reginfo       0x00000000       0x18 /opt/microchip/xc32/v2.41/bin/bin/../../lib/gcc/pic32mx/4.8.3/../../../../pic32mx/lib/libm.a(s_lib_ver.o)
 .data.math_errhandling_flag
                0x00000000        0x4 /opt/microchip/xc32/v2.41/bin/bin/../../lib/gcc/pic32mx/4.8.3/../../../../pic32mx/lib/libm.a(s_lib_ver.o)
 .text          0x00000000      0x458 /opt/microchip/xc32/v2.41/bin/bin/../../lib/gcc/pic32mx/4.8.3/libgcc.a(_udivdi3.o)
 .data          0x00000000        0x0 /opt/microchip/xc32/v2.41/bin/bin/../../lib/gcc/pic32mx/4.8.3/libgcc.a(_udivdi3.o)
 .bss           0x00000000        0x0 /opt/microchip/xc32/v2.41/bin/bin/../../lib/gcc/pic32mx/4.8.3/libgcc.a(_udivdi3.o)
 .reginfo       0x00000000       0x18 /opt/microchip/xc32/v2.41/bin/bin/../../lib/gcc/pic32mx/4.8.3/libgcc.a(_udivdi3.o)
 .text          0x00000000      0x464 /opt/microchip/xc32/v2.41/bin/bin/../../lib/gcc/pic32mx/4.8.3/libgcc.a(_umoddi3.o)
 .data          0x00000000        0x0 /opt/microchip/xc32/v2.41/bin/bin/../../lib/gcc/pic32mx/4.8.3/libgcc.a(_umoddi3.o)
 .bss           0x00000000        0x0 /opt/microchip/xc32/v2.41/bin/bin/../../lib/gcc/pic32mx/4.8.3/libgcc.a(_umoddi3.o)
 .reginfo       0x00000000       0x18 /opt/microchip/xc32/v2.41/bin/bin/../../lib/gcc/pic32mx/4.8.3/libgcc.a(_umoddi3.o)
 .text          0x00000000        0x0 /opt/microchip/xc32/v2.41/bin/bin/../../lib/gcc/pic32mx/4.8.3/../../../../pic32mx/lib/libpic32.a(sbrk.o)
 .data          0x00000000        0x0 /opt/microchip/xc32/v2.41/bin/bin/../../lib/gcc/pic32mx/4.8.3/../../../../pic32mx/lib/libpic32.a(sbrk.o)
 .bss           0x00000000       0x24 /opt/microchip/xc32/v2.41/bin/bin/../../lib/gcc/pic32mx/4.8.3/../../../../pic32mx/lib/libpic32.a(sbrk.o)
 .reginfo       0x00000000       0x18 /opt/microchip/xc32/v2.41/bin/bin/../../lib/gcc/pic32mx/4.8.3/../../../../pic32mx/lib/libpic32.a(sbrk.o)
 .text.getpagesize
                0x00000000        0x8 /opt/microchip/xc32/v2.41/bin/bin/../../lib/gcc/pic32mx/4.8.3/../../../../pic32mx/lib/libpic32.a(sbrk.o)
 .text._stub_sbd_memlayout
                0x00000000       0x2c /opt/microchip/xc32/v2.41/bin/bin/../../lib/gcc/pic32mx/4.8.3/../../../../pic32mx/lib/libpic32.a(sbrk.o)
 .text._sbrk_init
                0x00000000      0x194 /opt/microchip/xc32/v2.41/bin/bin/../../lib/gcc/pic32mx/4.8.3/../../../../pic32mx/lib/libpic32.a(sbrk.o)
 .text._sbrk    0x00000000       0xc8 /opt/microchip/xc32/v2.41/bin/bin/../../lib/gcc/pic32mx/4.8.3/../../../../pic32mx/lib/libpic32.a(sbrk.o)
 .text.sbrk     0x00000000       0x50 /opt/microchip/xc32/v2.41/bin/bin/../../lib/gcc/pic32mx/4.8.3/../../../../pic32mx/lib/libpic32.a(sbrk.o)
 .text          0x00000000        0x0 /opt/microchip/xc32/v2.41/bin/bin/../../lib/gcc/pic32mx/4.8.3/../../../../pic32mx/lib/libpic32.a(write.o)
 .data          0x00000000        0x0 /opt/microchip/xc32/v2.41/bin/bin/../../lib/gcc/pic32mx/4.8.3/../../../../pic32mx/lib/libpic32.a(write.o)
 .bss           0x00000000        0x0 /opt/microchip/xc32/v2.41/bin/bin/../../lib/gcc/pic32mx/4.8.3/../../../../pic32mx/lib/libpic32.a(write.o)
 .reginfo       0x00000000       0x18 /opt/microchip/xc32/v2.41/bin/bin/../../lib/gcc/pic32mx/4.8.3/../../../../pic32mx/lib/libpic32.a(write.o)
 .text.write    0x00000000       0x9c /opt/microchip/xc32/v2.41/bin/bin/../../lib/gcc/pic32mx/4.8.3/../../../../pic32mx/lib/libpic32.a(write.o)
 .text          0x00000000        0x0 /opt/microchip/xc32/v2.41/bin/bin/../../lib/gcc/pic32mx/4.8.3/../../../../pic32mx/lib/libpic32.a(errno.o)
 .data          0x00000000        0x0 /opt/microchip/xc32/v2.41/bin/bin/../../lib/gcc/pic32mx/4.8.3/../../../../pic32mx/lib/libpic32.a(errno.o)
 .bss           0x00000000        0x0 /opt/microchip/xc32/v2.41/bin/bin/../../lib/gcc/pic32mx/4.8.3/../../../../pic32mx/lib/libpic32.a(errno.o)
 .reginfo       0x00000000       0x18 /opt/microchip/xc32/v2.41/bin/bin/../../lib/gcc/pic32mx/4.8.3/../../../../pic32mx/lib/libpic32.a(errno.o)
 .bss.errno     0x00000000        0x4 /opt/microchip/xc32/v2.41/bin/bin/../../lib/gcc/pic32mx/4.8.3/../../../../pic32mx/lib/libpic32.a(errno.o)
 .text          0x00000000        0x0 /opt/microchip/xc32/v2.41/bin/bin/../../lib/gcc/pic32mx/4.8.3/../../../../pic32mx/lib/libpic32.a(_mon_putc.o)
 .data          0x00000000        0x0 /opt/microchip/xc32/v2.41/bin/bin/../../lib/gcc/pic32mx/4.8.3/../../../../pic32mx/lib/libpic32.a(_mon_putc.o)
 .bss           0x00000000        0x0 /opt/microchip/xc32/v2.41/bin/bin/../../lib/gcc/pic32mx/4.8.3/../../../../pic32mx/lib/libpic32.a(_mon_putc.o)
 .reginfo       0x00000000       0x18 /opt/microchip/xc32/v2.41/bin/bin/../../lib/gcc/pic32mx/4.8.3/../../../../pic32mx/lib/libpic32.a(_mon_putc.o)
 .text._mon_putc
                0x00000000       0xd8 /opt/microchip/xc32/v2.41/bin/bin/../../lib/gcc/pic32mx/4.8.3/../../../../pic32mx/lib/libpic32.a(_mon_putc.o)
 .text          0x00000000        0x0 /opt/microchip/xc32/v2.41/bin/bin/../../lib/gcc/pic32mx/4.8.3/../../../../pic32mx/lib/libpic32.a(xc32_uart.o)
 .data          0x00000000        0x0 /opt/microchip/xc32/v2.41/bin/bin/../../lib/gcc/pic32mx/4.8.3/../../../../pic32mx/lib/libpic32.a(xc32_uart.o)
 .bss           0x00000000        0x0 /opt/microchip/xc32/v2.41/bin/bin/../../lib/gcc/pic32mx/4.8.3/../../../../pic32mx/lib/libpic32.a(xc32_uart.o)
 .reginfo       0x00000000       0x18 /opt/microchip/xc32/v2.41/bin/bin/../../lib/gcc/pic32mx/4.8.3/../../../../pic32mx/lib/libpic32.a(xc32_uart.o)

Memory Configuration

Name             Origin             Length             Attributes
kseg0_program_mem 0x9d000000         0x00200000         xr
kseg0_boot_mem   0x9fc004b0         0x00000000
kseg1_boot_mem   0xbfc00000         0x00000480
kseg1_boot_mem_4B0 0xbfc004b0         0x0000fa50
config_BFC0FF40  0xbfc0ff40         0x00000004
config_BFC0FF44  0xbfc0ff44         0x00000004
config_BFC0FF48  0xbfc0ff48         0x00000004
config_BFC0FF4C  0xbfc0ff4c         0x00000004
config_BFC0FF50  0xbfc0ff50         0x00000004
config_BFC0FF54  0xbfc0ff54         0x00000004
config_BFC0FF58  0xbfc0ff58         0x00000004
config_BFC0FF5C  0xbfc0ff5c         0x00000004
config_BFC0FF60  0xbfc0ff60         0x00000004
config_BFC0FF64  0xbfc0ff64         0x00000004
config_BFC0FF68  0xbfc0ff68         0x00000004
config_BFC0FF6C  0xbfc0ff6c         0x00000004
config_BFC0FF70  0xbfc0ff70         0x00000004
config_BFC0FF74  0xbfc0ff74         0x00000004
config_BFC0FF78  0xbfc0ff78         0x00000004
config_BFC0FF7C  0xbfc0ff7c         0x00000004
config_BFC0FFC0  0xbfc0ffc0         0x00000004
config_BFC0FFC4  0xbfc0ffc4         0x00000004
config_BFC0FFC8  0xbfc0ffc8         0x00000004
config_BFC0FFCC  0xbfc0ffcc         0x00000004
config_BFC0FFD0  0xbfc0ffd0         0x00000004
config_BFC0FFD4  0xbfc0ffd4         0x00000004
config_BFC0FFD8  0xbfc0ffd8         0x00000004
config_BFC0FFDC  0xbfc0ffdc         0x00000004
config_BFC0FFE0  0xbfc0ffe0         0x00000004
config_BFC0FFE4  0xbfc0ffe4         0x00000004
config_BFC0FFE8  0xbfc0ffe8         0x00000004
config_BFC0FFEC  0xbfc0ffec         0x00000004
config_BFC0FFF0  0xbfc0fff0         0x00000004
config_BFC0FFF4  0xbfc0fff4         0x00000004
config_BFC0FFF8  0xbfc0fff8         0x00000004
config_BFC0FFFC  0xbfc0fffc         0x00000004
lowerbootaliaslastpage 0xbfc10000         0x00004000
upperbootalias   0xbfc20000         0x0000ff00
config_BFC2FF40  0xbfc2ff40         0x00000004
config_BFC2FF44  0xbfc2ff44         0x00000004
config_BFC2FF48  0xbfc2ff48         0x00000004
config_BFC2FF4C  0xbfc2ff4c         0x00000004
config_BFC2FF50  0xbfc2ff50         0x00000004
config_BFC2FF54  0xbfc2ff54         0x00000004
config_BFC2FF58  0xbfc2ff58         0x00000004
config_BFC2FF5C  0xbfc2ff5c         0x00000004
config_BFC2FF60  0xbfc2ff60         0x00000004
config_BFC2FF64  0xbfc2ff64         0x00000004
config_BFC2FF68  0xbfc2ff68         0x00000004
config_BFC2FF6C  0xbfc2ff6c         0x00000004
config_BFC2FF70  0xbfc2ff70         0x00000004
config_BFC2FF74  0xbfc2ff74         0x00000004
config_BFC2FF78  0xbfc2ff78         0x00000004
config_BFC2FF7C  0xbfc2ff7c         0x00000004
config_BFC2FFC0  0xbfc2ffc0         0x00000004
config_BFC2FFC4  0xbfc2ffc4         0x00000004
config_BFC2FFC8  0xbfc2ffc8         0x00000004
config_BFC2FFCC  0xbfc2ffcc         0x00000004
config_BFC2FFD0  0xbfc2ffd0         0x00000004
config_BFC2FFD4  0xbfc2ffd4         0x00000004
config_BFC2FFD8  0xbfc2ffd8         0x00000004
config_BFC2FFDC  0xbfc2ffdc         0x00000004
config_BFC2FFE0  0xbfc2ffe0         0x00000004
config_BFC2FFE4  0xbfc2ffe4         0x00000004
config_BFC2FFE8  0xbfc2ffe8         0x00000004
config_BFC2FFEC  0xbfc2ffec         0x00000004
config_BFC2FFF0  0xbfc2fff0         0x00000004
config_BFC2FFF4  0xbfc2fff4         0x00000004
config_BFC2FFF8  0xbfc2fff8         0x00000004
config_BFC2FFFC  0xbfc2fffc         0x00000004
upperbootaliaslastpage 0xbfc30000         0x00004000
boot1            0xbfc40000         0x0000ff00
config_BFC4FF40  0xbfc4ff40         0x00000004
config_BFC4FF44  0xbfc4ff44         0x00000004
config_BFC4FF48  0xbfc4ff48         0x00000004
config_BFC4FF4C  0xbfc4ff4c         0x00000004
config_BFC4FF50  0xbfc4ff50         0x00000004
config_BFC4FF54  0xbfc4ff54         0x00000004
config_BFC4FF58  0xbfc4ff58         0x00000004
config_BFC4FF5C  0xbfc4ff5c         0x00000004
config_BFC4FF60  0xbfc4ff60         0x00000004
config_BFC4FF64  0xbfc4ff64         0x00000004
config_BFC4FF68  0xbfc4ff68         0x00000004
config_BFC4FF6C  0xbfc4ff6c         0x00000004
config_BFC4FF70  0xbfc4ff70         0x00000004
config_BFC4FF74  0xbfc4ff74         0x00000004
config_BFC4FF78  0xbfc4ff78         0x00000004
config_BFC4FF7C  0xbfc4ff7c         0x00000004
config_BFC4FFC0  0xbfc4ffc0         0x00000004
config_BFC4FFC4  0xbfc4ffc4         0x00000004
config_BFC4FFC8  0xbfc4ffc8         0x00000004
config_BFC4FFCC  0xbfc4ffcc         0x00000004
config_BFC4FFD0  0xbfc4ffd0         0x00000004
config_BFC4FFD4  0xbfc4ffd4         0x00000004
config_BFC4FFD8  0xbfc4ffd8         0x00000004
config_BFC4FFDC  0xbfc4ffdc         0x00000004
config_BFC4FFE0  0xbfc4ffe0         0x00000004
config_BFC4FFE4  0xbfc4ffe4         0x00000004
config_BFC4FFE8  0xbfc4ffe8         0x00000004
config_BFC4FFEC  0xbfc4ffec         0x00000004
config_BFC4FFF0  0xbfc4fff0         0x00000004
config_BFC4FFF4  0xbfc4fff4         0x00000004
config_BFC4FFF8  0xbfc4fff8         0x00000004
config_BFC4FFFC  0xbfc4fffc         0x00000004
boot1lastpage    0xbfc50000         0x00004000
config_BFC54000  0xbfc54000         0x00000004
config_BFC54004  0xbfc54004         0x00000004
config_BFC54008  0xbfc54008         0x00000004
config_BFC5400C  0xbfc5400c         0x00000004
config_BFC54010  0xbfc54010         0x00000004
config_BFC54020  0xbfc54020         0x00000004
config_BFC54024  0xbfc54024         0x00000004
boot2            0xbfc60000         0x0000ff00
config_BFC6FF40  0xbfc6ff40         0x00000004
config_BFC6FF44  0xbfc6ff44         0x00000004
config_BFC6FF48  0xbfc6ff48         0x00000004
config_BFC6FF4C  0xbfc6ff4c         0x00000004
config_BFC6FF50  0xbfc6ff50         0x00000004
config_BFC6FF54  0xbfc6ff54         0x00000004
config_BFC6FF58  0xbfc6ff58         0x00000004
config_BFC6FF5C  0xbfc6ff5c         0x00000004
config_BFC6FF60  0xbfc6ff60         0x00000004
config_BFC6FF64  0xbfc6ff64         0x00000004
config_BFC6FF68  0xbfc6ff68         0x00000004
config_BFC6FF6C  0xbfc6ff6c         0x00000004
config_BFC6FF70  0xbfc6ff70         0x00000004
config_BFC6FF74  0xbfc6ff74         0x00000004
config_BFC6FF78  0xbfc6ff78         0x00000004
config_BFC6FF7C  0xbfc6ff7c         0x00000004
config_BFC6FFC0  0xbfc6ffc0         0x00000004
config_BFC6FFC4  0xbfc6ffc4         0x00000004
config_BFC6FFC8  0xbfc6ffc8         0x00000004
config_BFC6FFCC  0xbfc6ffcc         0x00000004
config_BFC6FFD0  0xbfc6ffd0         0x00000004
config_BFC6FFD4  0xbfc6ffd4         0x00000004
config_BFC6FFD8  0xbfc6ffd8         0x00000004
config_BFC6FFDC  0xbfc6ffdc         0x00000004
config_BFC6FFE0  0xbfc6ffe0         0x00000004
config_BFC6FFE4  0xbfc6ffe4         0x00000004
config_BFC6FFE8  0xbfc6ffe8         0x00000004
config_BFC6FFEC  0xbfc6ffec         0x00000004
config_BFC6FFF0  0xbfc6fff0         0x00000004
config_BFC6FFF4  0xbfc6fff4         0x00000004
config_BFC6FFF8  0xbfc6fff8         0x00000004
config_BFC6FFFC  0xbfc6fffc         0x00000004
boot2lastpage    0xbfc70000         0x00004000
kseg0_data_mem   0x80000000         0x00080000         w !x
sfrs             0xbf800000         0x00100000
configsfrs_BFC0FF40 0xbfc0ff40         0x00000040
configsfrs_BFC0FFC0 0xbfc0ffc0         0x00000040
configsfrs_BFC2FF40 0xbfc2ff40         0x00000040
configsfrs_BFC2FFC0 0xbfc2ffc0         0x00000040
configsfrs_BFC4FF40 0xbfc4ff40         0x00000040
configsfrs_BFC4FFC0 0xbfc4ffc0         0x00000040
configsfrs_BFC54000 0xbfc54000         0x00000014
configsfrs_BFC54020 0xbfc54020         0x00000008
configsfrs_BFC6FF40 0xbfc6ff40         0x00000040
configsfrs_BFC6FFC0 0xbfc6ffc0         0x00000040
kseg2_ebi_data_mem 0xc0000000         0x04000000
kseg2_sqi_data_mem 0xd0000000         0x04000000
kseg3_ebi_data_mem 0xe0000000         0x04000000
kseg3_sqi_data_mem 0xf0000000         0x04000000
*default*        0x00000000         0xffffffff

Linker script and memory map

LOAD /opt/microchip/xc32/v2.41/bin/bin/../../lib/gcc/pic32mx/4.8.3/../../../../pic32mx/lib/debug-exception-return.o
LOAD build/default/production/_ext/1650642999/imu.o
LOAD build/default/production/_ext/1650642999/comms.o
LOAD build/default/production/_ext/1650642999/tof.o
LOAD build/default/production/_ext/1650642999/motors.o
LOAD build/default/production/_ext/971049567/Quaternion.o
LOAD build/default/production/_ext/971049567/Vector3D.o
LOAD build/default/production/_ext/1360937237/main.o
LOAD build/default/production/_ext/1360937237/app.o
LOAD build/default/production/_ext/1360937237/mavlink_recv_task.o
LOAD build/default/production/_ext/1360937237/mavlink_send_task.o
LOAD build/default/production/_ext/1360937237/mavlink_status_task.o
LOAD build/default/production/_ext/1360937237/att_controller_task.o
LOAD build/default/production/_ext/443942460/PID.o
LOAD build/default/production/_ext/1035051164/SixDOFQuadcopterModel.o
LOAD build/default/production/_ext/1204493032/PositionEstimatorAltitude.o
LOAD build/default/production/_ext/1204493032/SensFusion.o
LOAD build/default/production/_ext/1204493032/ComplementaryFilter.o
LOAD build/default/production/_ext/1204493032/AttitudeController.o
LOAD build/default/production/_ext/149289479/MAVLinkSender.o
LOAD build/default/production/_ext/149289479/MAVLinkHandler.o
LOAD build/default/production/_ext/1715884449/AttitudeControllerTask.o
LOAD build/default/production/_ext/1158199258/MAVLinkSendTask.o
LOAD build/default/production/_ext/1158199258/MAVLinkRecvTask.o
LOAD build/default/production/_ext/1315301415/TOFUpdateTask.o
LOAD build/default/production/_ext/1315301415/MAVStatusTask.o
LOAD build/default/production/_ext/1315301415/IMUUpdateTask.o
LOAD build/default/production/_ext/1313821444/num.o
LOAD build/default/production/_ext/1353086322/osal_freertos.o
LOAD build/default/production/_ext/121284916/sys_devcon.o
LOAD build/default/production/_ext/121284916/sys_devcon_pic32mz.o
LOAD build/default/production/_ext/121284916/sys_devcon_cache_pic32mz.o
LOAD build/default/production/_ext/1317643790/sys_int_pic32.o
LOAD build/default/production/_ext/1276567923/croutine.o
LOAD build/default/production/_ext/1276567923/list.o
LOAD build/default/production/_ext/1276567923/queue.o
LOAD build/default/production/_ext/1276567923/tasks.o
LOAD build/default/production/_ext/1276567923/timers.o
LOAD build/default/production/_ext/1276567923/event_groups.o
LOAD build/default/production/_ext/457403440/heap_1.o
LOAD build/default/production/_ext/1571139743/port.o
LOAD build/default/production/_ext/1571139743/port_asm.o
LOAD build/default/production/_ext/1047219354/drv_oc_mapping.o
LOAD build/default/production/_ext/1047219354/drv_oc_static.o
LOAD build/default/production/_ext/1407244131/drv_tmr_static.o
LOAD build/default/production/_ext/1407244131/drv_tmr_mapping.o
LOAD build/default/production/_ext/327000265/drv_usart_mapping.o
LOAD build/default/production/_ext/327000265/drv_usart_static.o
LOAD build/default/production/_ext/327000265/drv_usart_static_byte_model.o
LOAD build/default/production/_ext/639803181/sys_clk_pic32mz.o
LOAD build/default/production/_ext/822048611/sys_ports_static.o
LOAD build/default/production/_ext/1688732426/system_init.o
LOAD build/default/production/_ext/1688732426/system_interrupt.o
LOAD build/default/production/_ext/1688732426/general_exception_handler.o
LOAD build/default/production/_ext/1688732426/general-exception-context.o
LOAD build/default/production/_ext/1688732426/fassert.o
LOAD build/default/production/_ext/1688732426/system_tasks.o
LOAD build/default/production/_ext/1688732426/system_interrupt_a.o
LOAD build/default/production/_ext/1688732426/rtos_hooks.o
LOAD ../../../../../microchip/harmony/v2_06/bin/framework/math/dsp/dsp_pic32mz_nofpu.a
LOAD ../../../../../microchip/harmony/v2_06/bin/framework/math/libq/libq_c_mips32_mz_l.a
LOAD ../../../../../microchip/harmony/v2_06/bin/framework/peripheral/PIC32MZ2048ECM100_peripherals.a
                0x00000001                __MPLAB_BUILD = 0x1
                0x00000000                _min_heap_size = 0x0
LOAD /tmp/cckkSrlX.o
LOAD /tmp/cccJcx6W.o
LOAD /tmp/ccB9yIu0.o
LOAD /opt/microchip/xc32/v2.41/bin/bin/../../lib/gcc/pic32mx/4.8.3/../../../../pic32mx/lib/pic32_software_reset.o
                0x00000400                PROVIDE (_min_stack_size, 0x400)
START GROUP
LOAD /opt/microchip/xc32/v2.41/bin/bin/../../lib/gcc/pic32mx/4.8.3/../../../../pic32mx/lib/./proc/32MZ2048ECM100/vector_offset_init.o
END GROUP
                0x00000001                PROVIDE (_vector_spacing, 0x1)
                0x9d000000                PROVIDE (_ebase_address, 0x9d000000)
                0xbfc00000                _RESET_ADDR = 0xbfc00000
                0xbfc00380                _BEV_EXCPT_ADDR = 0xbfc00380
                0xbfc00480                _DBG_EXCPT_ADDR = 0xbfc00480
                0x9d000000                _SIMPLE_TLB_REFILL_EXCPT_ADDR = (_ebase_address + 0x0)
                0x9d000100                _CACHE_ERR_EXCPT_ADDR = (_ebase_address + 0x100)
                0x9d000180                _GEN_EXCPT_ADDR = (_ebase_address + 0x180)

.config_BFC0FF40
 *(.config_BFC0FF40)

.config_BFC0FF44
 *(.config_BFC0FF44)

.config_BFC0FF48
 *(.config_BFC0FF48)

.config_BFC0FF4C
 *(.config_BFC0FF4C)

.config_BFC0FF50
 *(.config_BFC0FF50)

.config_BFC0FF54
 *(.config_BFC0FF54)

.config_BFC0FF58
 *(.config_BFC0FF58)

.config_BFC0FF5C
 *(.config_BFC0FF5C)

.config_BFC0FF60
 *(.config_BFC0FF60)

.config_BFC0FF64
 *(.config_BFC0FF64)

.config_BFC0FF68
 *(.config_BFC0FF68)

.config_BFC0FF6C
 *(.config_BFC0FF6C)

.config_BFC0FF70
 *(.config_BFC0FF70)

.config_BFC0FF74
 *(.config_BFC0FF74)

.config_BFC0FF78
 *(.config_BFC0FF78)

.config_BFC0FF7C
 *(.config_BFC0FF7C)

.config_BFC0FFC0
                0xbfc0ffc0        0x4
 *(.config_BFC0FFC0)
 .config_BFC0FFC0
                0xbfc0ffc0        0x4 build/default/production/_ext/1688732426/system_init.o

.config_BFC0FFC4
                0xbfc0ffc4        0x4
 *(.config_BFC0FFC4)
 .config_BFC0FFC4
                0xbfc0ffc4        0x4 build/default/production/_ext/1688732426/system_init.o

.config_BFC0FFC8
                0xbfc0ffc8        0x4
 *(.config_BFC0FFC8)
 .config_BFC0FFC8
                0xbfc0ffc8        0x4 build/default/production/_ext/1688732426/system_init.o

.config_BFC0FFCC
                0xbfc0ffcc        0x4
 *(.config_BFC0FFCC)
 .config_BFC0FFCC
                0xbfc0ffcc        0x4 build/default/production/_ext/1688732426/system_init.o

.config_BFC0FFD0
 *(.config_BFC0FFD0)

.config_BFC0FFD4
 *(.config_BFC0FFD4)

.config_BFC0FFD8
 *(.config_BFC0FFD8)

.config_BFC0FFDC
                0xbfc0ffdc        0x4
 *(.config_BFC0FFDC)
 .config_BFC0FFDC
                0xbfc0ffdc        0x4 build/default/production/_ext/1688732426/system_init.o

.config_BFC0FFE0
 *(.config_BFC0FFE0)

.config_BFC0FFE4
 *(.config_BFC0FFE4)

.config_BFC0FFE8
 *(.config_BFC0FFE8)

.config_BFC0FFEC
 *(.config_BFC0FFEC)

.config_BFC0FFF0
 *(.config_BFC0FFF0)

.config_BFC0FFF4
 *(.config_BFC0FFF4)

.config_BFC0FFF8
 *(.config_BFC0FFF8)

.config_BFC0FFFC
                0xbfc0fffc        0x4
 *(.config_BFC0FFFC)
 .config_BFC0FFFC
                0xbfc0fffc        0x4 build/default/production/_ext/1688732426/system_init.o

.config_BFC2FF40
 *(.config_BFC2FF40)

.config_BFC2FF44
 *(.config_BFC2FF44)

.config_BFC2FF48
 *(.config_BFC2FF48)

.config_BFC2FF4C
 *(.config_BFC2FF4C)

.config_BFC2FF50
 *(.config_BFC2FF50)

.config_BFC2FF54
 *(.config_BFC2FF54)

.config_BFC2FF58
 *(.config_BFC2FF58)

.config_BFC2FF5C
 *(.config_BFC2FF5C)

.config_BFC2FF60
 *(.config_BFC2FF60)

.config_BFC2FF64
 *(.config_BFC2FF64)

.config_BFC2FF68
 *(.config_BFC2FF68)

.config_BFC2FF6C
 *(.config_BFC2FF6C)

.config_BFC2FF70
 *(.config_BFC2FF70)

.config_BFC2FF74
 *(.config_BFC2FF74)

.config_BFC2FF78
 *(.config_BFC2FF78)

.config_BFC2FF7C
 *(.config_BFC2FF7C)

.config_BFC2FFC0
 *(.config_BFC2FFC0)

.config_BFC2FFC4
 *(.config_BFC2FFC4)

.config_BFC2FFC8
 *(.config_BFC2FFC8)

.config_BFC2FFCC
 *(.config_BFC2FFCC)

.config_BFC2FFD0
 *(.config_BFC2FFD0)

.config_BFC2FFD4
 *(.config_BFC2FFD4)

.config_BFC2FFD8
 *(.config_BFC2FFD8)

.config_BFC2FFDC
 *(.config_BFC2FFDC)

.config_BFC2FFE0
 *(.config_BFC2FFE0)

.config_BFC2FFE4
 *(.config_BFC2FFE4)

.config_BFC2FFE8
 *(.config_BFC2FFE8)

.config_BFC2FFEC
 *(.config_BFC2FFEC)

.config_BFC2FFF0
 *(.config_BFC2FFF0)

.config_BFC2FFF4
 *(.config_BFC2FFF4)

.config_BFC2FFF8
 *(.config_BFC2FFF8)

.config_BFC2FFFC
 *(.config_BFC2FFFC)

.config_BFC4FF40
 *(.config_BFC4FF40)

.config_BFC4FF44
 *(.config_BFC4FF44)

.config_BFC4FF48
 *(.config_BFC4FF48)

.config_BFC4FF4C
 *(.config_BFC4FF4C)

.config_BFC4FF50
 *(.config_BFC4FF50)

.config_BFC4FF54
 *(.config_BFC4FF54)

.config_BFC4FF58
 *(.config_BFC4FF58)

.config_BFC4FF5C
 *(.config_BFC4FF5C)

.config_BFC4FF60
 *(.config_BFC4FF60)

.config_BFC4FF64
 *(.config_BFC4FF64)

.config_BFC4FF68
 *(.config_BFC4FF68)

.config_BFC4FF6C
 *(.config_BFC4FF6C)

.config_BFC4FF70
 *(.config_BFC4FF70)

.config_BFC4FF74
 *(.config_BFC4FF74)

.config_BFC4FF78
 *(.config_BFC4FF78)

.config_BFC4FF7C
 *(.config_BFC4FF7C)

.config_BFC4FFC0
 *(.config_BFC4FFC0)

.config_BFC4FFC4
 *(.config_BFC4FFC4)

.config_BFC4FFC8
 *(.config_BFC4FFC8)

.config_BFC4FFCC
 *(.config_BFC4FFCC)

.config_BFC4FFD0
 *(.config_BFC4FFD0)

.config_BFC4FFD4
 *(.config_BFC4FFD4)

.config_BFC4FFD8
 *(.config_BFC4FFD8)

.config_BFC4FFDC
 *(.config_BFC4FFDC)

.config_BFC4FFE0
 *(.config_BFC4FFE0)

.config_BFC4FFE4
 *(.config_BFC4FFE4)

.config_BFC4FFE8
 *(.config_BFC4FFE8)

.config_BFC4FFEC
 *(.config_BFC4FFEC)

.config_BFC4FFF0
 *(.config_BFC4FFF0)

.config_BFC4FFF4
 *(.config_BFC4FFF4)

.config_BFC4FFF8
 *(.config_BFC4FFF8)

.config_BFC4FFFC
 *(.config_BFC4FFFC)

.config_BFC54000
 *(.config_BFC54000)

.config_BFC54004
 *(.config_BFC54004)

.config_BFC54008
 *(.config_BFC54008)

.config_BFC5400C
 *(.config_BFC5400C)

.config_BFC54010
 *(.config_BFC54010)

.config_BFC54020
 *(.config_BFC54020)

.config_BFC54024
 *(.config_BFC54024)

.config_BFC6FF40
 *(.config_BFC6FF40)

.config_BFC6FF44
 *(.config_BFC6FF44)

.config_BFC6FF48
 *(.config_BFC6FF48)

.config_BFC6FF4C
 *(.config_BFC6FF4C)

.config_BFC6FF50
 *(.config_BFC6FF50)

.config_BFC6FF54
 *(.config_BFC6FF54)

.config_BFC6FF58
 *(.config_BFC6FF58)

.config_BFC6FF5C
 *(.config_BFC6FF5C)

.config_BFC6FF60
 *(.config_BFC6FF60)

.config_BFC6FF64
 *(.config_BFC6FF64)

.config_BFC6FF68
 *(.config_BFC6FF68)

.config_BFC6FF6C
 *(.config_BFC6FF6C)

.config_BFC6FF70
 *(.config_BFC6FF70)

.config_BFC6FF74
 *(.config_BFC6FF74)

.config_BFC6FF78
 *(.config_BFC6FF78)

.config_BFC6FF7C
 *(.config_BFC6FF7C)

.config_BFC6FFC0
 *(.config_BFC6FFC0)

.config_BFC6FFC4
 *(.config_BFC6FFC4)

.config_BFC6FFC8
 *(.config_BFC6FFC8)

.config_BFC6FFCC
 *(.config_BFC6FFCC)

.config_BFC6FFD0
 *(.config_BFC6FFD0)

.config_BFC6FFD4
 *(.config_BFC6FFD4)

.config_BFC6FFD8
 *(.config_BFC6FFD8)

.config_BFC6FFDC
 *(.config_BFC6FFDC)

.config_BFC6FFE0
 *(.config_BFC6FFE0)

.config_BFC6FFE4
 *(.config_BFC6FFE4)

.config_BFC6FFE8
 *(.config_BFC6FFE8)

.config_BFC6FFEC
 *(.config_BFC6FFEC)

.config_BFC6FFF0
 *(.config_BFC6FFF0)

.config_BFC6FFF4
 *(.config_BFC6FFF4)

.config_BFC6FFF8
 *(.config_BFC6FFF8)

.config_BFC6FFFC
 *(.config_BFC6FFFC)

.reset          0xbfc00000      0x1a4
 *(.reset)
 .reset         0xbfc00000       0x18 /tmp/cckkSrlX.o
                0xbfc00000                _reset
 *(.reset.startup)
 .reset.startup
                0xbfc00018      0x18c /tmp/cckkSrlX.o
                0xbfc00018                _startup

.bev_excpt      0xbfc00380       0x10
 *(.bev_handler)
 .bev_handler   0xbfc00380       0x10 /tmp/cckkSrlX.o

.cache_init     0xbfc004b0      0x1c0
 *(.cache_init)
 *(.cache_init.*)
 .cache_init.cache
                0xbfc004b0       0xc0 /opt/microchip/xc32/v2.41/bin/bin/../../lib/gcc/pic32mx/4.8.3/../../../../pic32mx/lib/libpic32.a(pic32_init_cache.o)
 .cache_init.pic32_init_cache
                0xbfc00570      0x100 /opt/microchip/xc32/v2.41/bin/bin/../../lib/gcc/pic32mx/4.8.3/../../../../pic32mx/lib/libpic32.a(pic32_init_cache.o)
                0xbfc00570                __pic32_init_cache

.simple_tlb_refill_excpt
                0x9d000000       0x10
 *(.simple_tlb_refill_vector)
 .simple_tlb_refill_vector
                0x9d000000       0x10 /tmp/cckkSrlX.o

.cache_err_excpt
                0x9d000100       0x10
 *(.cache_err_vector)
 .cache_err_vector
                0x9d000100       0x10 /tmp/cckkSrlX.o

.app_excpt      0x9d000180       0x10
 *(.gen_handler)
 .gen_handler   0x9d000180       0x10 /tmp/cckkSrlX.o

.vectors        0x9d000200     0x1438
                0x9d000200                . = ALIGN (0x4)
                0x000015f0                __vector_offset_0 = DEFINED (__vector_dispatch_0)?(. - _ebase_address):__vector_offset_default
 *(.vector_0)
                0x9d000200                . = ALIGN (0x4)
                0x00000200                __vector_offset_1 = DEFINED (__vector_dispatch_1)?(. - _ebase_address):__vector_offset_default
 *(.vector_1)
 .vector_1      0x9d000200      0x258 build/default/production/_ext/1571139743/port_asm.o
                0x9d000200                vPortYieldISR
                0x9d000200                __vector_dispatch_1
                0x9d000458                . = ALIGN (0x4)
                0x000015f0                __vector_offset_2 = DEFINED (__vector_dispatch_2)?(. - _ebase_address):__vector_offset_default
 *(.vector_2)
                0x9d000458                . = ALIGN (0x4)
                0x000015f0                __vector_offset_3 = DEFINED (__vector_dispatch_3)?(. - _ebase_address):__vector_offset_default
 *(.vector_3)
                0x9d000458                . = ALIGN (0x4)
                0x00000458                __vector_offset_4 = DEFINED (__vector_dispatch_4)?(. - _ebase_address):__vector_offset_default
 *(.vector_4)
 .vector_4      0x9d000458      0x22c build/default/production/_ext/1571139743/port_asm.o
                0x9d000458                vPortTickInterruptHandler
                0x9d000458                __vector_dispatch_4
                0x9d000684                . = ALIGN (0x4)
                0x000015f0                __vector_offset_5 = DEFINED (__vector_dispatch_5)?(. - _ebase_address):__vector_offset_default
 *(.vector_5)
                0x9d000684                . = ALIGN (0x4)
                0x000015f0                __vector_offset_6 = DEFINED (__vector_dispatch_6)?(. - _ebase_address):__vector_offset_default
 *(.vector_6)
                0x9d000684                . = ALIGN (0x4)
                0x000015f0                __vector_offset_7 = DEFINED (__vector_dispatch_7)?(. - _ebase_address):__vector_offset_default
 *(.vector_7)
                0x9d000684                . = ALIGN (0x4)
                0x000015f0                __vector_offset_8 = DEFINED (__vector_dispatch_8)?(. - _ebase_address):__vector_offset_default
 *(.vector_8)
                0x9d000684                . = ALIGN (0x4)
                0x00000684                __vector_offset_9 = DEFINED (__vector_dispatch_9)?(. - _ebase_address):__vector_offset_default
 *(.vector_9)
 .vector_9      0x9d000684      0x234 build/default/production/_ext/1688732426/system_interrupt_a.o
                0x9d000684                __vector_dispatch_9
                0x9d0008b8                . = ALIGN (0x4)
                0x000015f0                __vector_offset_10 = DEFINED (__vector_dispatch_10)?(. - _ebase_address):__vector_offset_default
 *(.vector_10)
                0x9d0008b8                . = ALIGN (0x4)
                0x000015f0                __vector_offset_11 = DEFINED (__vector_dispatch_11)?(. - _ebase_address):__vector_offset_default
 *(.vector_11)
                0x9d0008b8                . = ALIGN (0x4)
                0x000015f0                __vector_offset_12 = DEFINED (__vector_dispatch_12)?(. - _ebase_address):__vector_offset_default
 *(.vector_12)
                0x9d0008b8                . = ALIGN (0x4)
                0x000015f0                __vector_offset_13 = DEFINED (__vector_dispatch_13)?(. - _ebase_address):__vector_offset_default
 *(.vector_13)
                0x9d0008b8                . = ALIGN (0x4)
                0x000015f0                __vector_offset_14 = DEFINED (__vector_dispatch_14)?(. - _ebase_address):__vector_offset_default
 *(.vector_14)
                0x9d0008b8                . = ALIGN (0x4)
                0x000015f0                __vector_offset_15 = DEFINED (__vector_dispatch_15)?(. - _ebase_address):__vector_offset_default
 *(.vector_15)
                0x9d0008b8                . = ALIGN (0x4)
                0x000015f0                __vector_offset_16 = DEFINED (__vector_dispatch_16)?(. - _ebase_address):__vector_offset_default
 *(.vector_16)
                0x9d0008b8                . = ALIGN (0x4)
                0x000015f0                __vector_offset_17 = DEFINED (__vector_dispatch_17)?(. - _ebase_address):__vector_offset_default
 *(.vector_17)
                0x9d0008b8                . = ALIGN (0x4)
                0x000015f0                __vector_offset_18 = DEFINED (__vector_dispatch_18)?(. - _ebase_address):__vector_offset_default
 *(.vector_18)
                0x9d0008b8                . = ALIGN (0x4)
                0x000015f0                __vector_offset_19 = DEFINED (__vector_dispatch_19)?(. - _ebase_address):__vector_offset_default
 *(.vector_19)
                0x9d0008b8                . = ALIGN (0x4)
                0x000015f0                __vector_offset_20 = DEFINED (__vector_dispatch_20)?(. - _ebase_address):__vector_offset_default
 *(.vector_20)
                0x9d0008b8                . = ALIGN (0x4)
                0x000015f0                __vector_offset_21 = DEFINED (__vector_dispatch_21)?(. - _ebase_address):__vector_offset_default
 *(.vector_21)
                0x9d0008b8                . = ALIGN (0x4)
                0x000015f0                __vector_offset_22 = DEFINED (__vector_dispatch_22)?(. - _ebase_address):__vector_offset_default
 *(.vector_22)
                0x9d0008b8                . = ALIGN (0x4)
                0x000015f0                __vector_offset_23 = DEFINED (__vector_dispatch_23)?(. - _ebase_address):__vector_offset_default
 *(.vector_23)
                0x9d0008b8                . = ALIGN (0x4)
                0x000015f0                __vector_offset_24 = DEFINED (__vector_dispatch_24)?(. - _ebase_address):__vector_offset_default
 *(.vector_24)
                0x9d0008b8                . = ALIGN (0x4)
                0x000015f0                __vector_offset_25 = DEFINED (__vector_dispatch_25)?(. - _ebase_address):__vector_offset_default
 *(.vector_25)
                0x9d0008b8                . = ALIGN (0x4)
                0x000015f0                __vector_offset_26 = DEFINED (__vector_dispatch_26)?(. - _ebase_address):__vector_offset_default
 *(.vector_26)
                0x9d0008b8                . = ALIGN (0x4)
                0x000015f0                __vector_offset_27 = DEFINED (__vector_dispatch_27)?(. - _ebase_address):__vector_offset_default
 *(.vector_27)
                0x9d0008b8                . = ALIGN (0x4)
                0x000015f0                __vector_offset_28 = DEFINED (__vector_dispatch_28)?(. - _ebase_address):__vector_offset_default
 *(.vector_28)
                0x9d0008b8                . = ALIGN (0x4)
                0x000015f0                __vector_offset_29 = DEFINED (__vector_dispatch_29)?(. - _ebase_address):__vector_offset_default
 *(.vector_29)
                0x9d0008b8                . = ALIGN (0x4)
                0x000015f0                __vector_offset_30 = DEFINED (__vector_dispatch_30)?(. - _ebase_address):__vector_offset_default
 *(.vector_30)
                0x9d0008b8                . = ALIGN (0x4)
                0x000015f0                __vector_offset_31 = DEFINED (__vector_dispatch_31)?(. - _ebase_address):__vector_offset_default
 *(.vector_31)
                0x9d0008b8                . = ALIGN (0x4)
                0x000015f0                __vector_offset_32 = DEFINED (__vector_dispatch_32)?(. - _ebase_address):__vector_offset_default
 *(.vector_32)
                0x9d0008b8                . = ALIGN (0x4)
                0x000015f0                __vector_offset_33 = DEFINED (__vector_dispatch_33)?(. - _ebase_address):__vector_offset_default
 *(.vector_33)
                0x9d0008b8                . = ALIGN (0x4)
                0x000015f0                __vector_offset_34 = DEFINED (__vector_dispatch_34)?(. - _ebase_address):__vector_offset_default
 *(.vector_34)
                0x9d0008b8                . = ALIGN (0x4)
                0x000015f0                __vector_offset_35 = DEFINED (__vector_dispatch_35)?(. - _ebase_address):__vector_offset_default
 *(.vector_35)
                0x9d0008b8                . = ALIGN (0x4)
                0x000015f0                __vector_offset_36 = DEFINED (__vector_dispatch_36)?(. - _ebase_address):__vector_offset_default
 *(.vector_36)
                0x9d0008b8                . = ALIGN (0x4)
                0x000015f0                __vector_offset_37 = DEFINED (__vector_dispatch_37)?(. - _ebase_address):__vector_offset_default
 *(.vector_37)
                0x9d0008b8                . = ALIGN (0x4)
                0x000015f0                __vector_offset_38 = DEFINED (__vector_dispatch_38)?(. - _ebase_address):__vector_offset_default
 *(.vector_38)
                0x9d0008b8                . = ALIGN (0x4)
                0x000015f0                __vector_offset_39 = DEFINED (__vector_dispatch_39)?(. - _ebase_address):__vector_offset_default
 *(.vector_39)
                0x9d0008b8                . = ALIGN (0x4)
                0x000015f0                __vector_offset_40 = DEFINED (__vector_dispatch_40)?(. - _ebase_address):__vector_offset_default
 *(.vector_40)
                0x9d0008b8                . = ALIGN (0x4)
                0x000015f0                __vector_offset_41 = DEFINED (__vector_dispatch_41)?(. - _ebase_address):__vector_offset_default
 *(.vector_41)
                0x9d0008b8                . = ALIGN (0x4)
                0x000015f0                __vector_offset_42 = DEFINED (__vector_dispatch_42)?(. - _ebase_address):__vector_offset_default
 *(.vector_42)
                0x9d0008b8                . = ALIGN (0x4)
                0x000015f0                __vector_offset_43 = DEFINED (__vector_dispatch_43)?(. - _ebase_address):__vector_offset_default
 *(.vector_43)
                0x9d0008b8                . = ALIGN (0x4)
                0x000015f0                __vector_offset_44 = DEFINED (__vector_dispatch_44)?(. - _ebase_address):__vector_offset_default
 *(.vector_44)
                0x9d0008b8                . = ALIGN (0x4)
                0x000015f0                __vector_offset_45 = DEFINED (__vector_dispatch_45)?(. - _ebase_address):__vector_offset_default
 *(.vector_45)
                0x9d0008b8                . = ALIGN (0x4)
                0x000015f0                __vector_offset_46 = DEFINED (__vector_dispatch_46)?(. - _ebase_address):__vector_offset_default
 *(.vector_46)
                0x9d0008b8                . = ALIGN (0x4)
                0x000015f0                __vector_offset_47 = DEFINED (__vector_dispatch_47)?(. - _ebase_address):__vector_offset_default
 *(.vector_47)
                0x9d0008b8                . = ALIGN (0x4)
                0x000015f0                __vector_offset_48 = DEFINED (__vector_dispatch_48)?(. - _ebase_address):__vector_offset_default
 *(.vector_48)
                0x9d0008b8                . = ALIGN (0x4)
                0x000015f0                __vector_offset_49 = DEFINED (__vector_dispatch_49)?(. - _ebase_address):__vector_offset_default
 *(.vector_49)
                0x9d0008b8                . = ALIGN (0x4)
                0x000015f0                __vector_offset_50 = DEFINED (__vector_dispatch_50)?(. - _ebase_address):__vector_offset_default
 *(.vector_50)
                0x9d0008b8                . = ALIGN (0x4)
                0x000015f0                __vector_offset_51 = DEFINED (__vector_dispatch_51)?(. - _ebase_address):__vector_offset_default
 *(.vector_51)
                0x9d0008b8                . = ALIGN (0x4)
                0x000015f0                __vector_offset_52 = DEFINED (__vector_dispatch_52)?(. - _ebase_address):__vector_offset_default
 *(.vector_52)
                0x9d0008b8                . = ALIGN (0x4)
                0x000015f0                __vector_offset_53 = DEFINED (__vector_dispatch_53)?(. - _ebase_address):__vector_offset_default
 *(.vector_53)
                0x9d0008b8                . = ALIGN (0x4)
                0x000015f0                __vector_offset_54 = DEFINED (__vector_dispatch_54)?(. - _ebase_address):__vector_offset_default
 *(.vector_54)
                0x9d0008b8                . = ALIGN (0x4)
                0x000015f0                __vector_offset_55 = DEFINED (__vector_dispatch_55)?(. - _ebase_address):__vector_offset_default
 *(.vector_55)
                0x9d0008b8                . = ALIGN (0x4)
                0x000015f0                __vector_offset_56 = DEFINED (__vector_dispatch_56)?(. - _ebase_address):__vector_offset_default
 *(.vector_56)
                0x9d0008b8                . = ALIGN (0x4)
                0x000015f0                __vector_offset_57 = DEFINED (__vector_dispatch_57)?(. - _ebase_address):__vector_offset_default
 *(.vector_57)
                0x9d0008b8                . = ALIGN (0x4)
                0x000015f0                __vector_offset_58 = DEFINED (__vector_dispatch_58)?(. - _ebase_address):__vector_offset_default
 *(.vector_58)
                0x9d0008b8                . = ALIGN (0x4)
                0x000015f0                __vector_offset_59 = DEFINED (__vector_dispatch_59)?(. - _ebase_address):__vector_offset_default
 *(.vector_59)
                0x9d0008b8                . = ALIGN (0x4)
                0x000015f0                __vector_offset_60 = DEFINED (__vector_dispatch_60)?(. - _ebase_address):__vector_offset_default
 *(.vector_60)
                0x9d0008b8                . = ALIGN (0x4)
                0x000015f0                __vector_offset_61 = DEFINED (__vector_dispatch_61)?(. - _ebase_address):__vector_offset_default
 *(.vector_61)
                0x9d0008b8                . = ALIGN (0x4)
                0x000015f0                __vector_offset_62 = DEFINED (__vector_dispatch_62)?(. - _ebase_address):__vector_offset_default
 *(.vector_62)
                0x9d0008b8                . = ALIGN (0x4)
                0x000015f0                __vector_offset_63 = DEFINED (__vector_dispatch_63)?(. - _ebase_address):__vector_offset_default
 *(.vector_63)
                0x9d0008b8                . = ALIGN (0x4)
                0x000015f0                __vector_offset_64 = DEFINED (__vector_dispatch_64)?(. - _ebase_address):__vector_offset_default
 *(.vector_64)
                0x9d0008b8                . = ALIGN (0x4)
                0x000015f0                __vector_offset_65 = DEFINED (__vector_dispatch_65)?(. - _ebase_address):__vector_offset_default
 *(.vector_65)
                0x9d0008b8                . = ALIGN (0x4)
                0x000015f0                __vector_offset_66 = DEFINED (__vector_dispatch_66)?(. - _ebase_address):__vector_offset_default
 *(.vector_66)
                0x9d0008b8                . = ALIGN (0x4)
                0x000015f0                __vector_offset_67 = DEFINED (__vector_dispatch_67)?(. - _ebase_address):__vector_offset_default
 *(.vector_67)
                0x9d0008b8                . = ALIGN (0x4)
                0x000015f0                __vector_offset_68 = DEFINED (__vector_dispatch_68)?(. - _ebase_address):__vector_offset_default
 *(.vector_68)
                0x9d0008b8                . = ALIGN (0x4)
                0x000015f0                __vector_offset_69 = DEFINED (__vector_dispatch_69)?(. - _ebase_address):__vector_offset_default
 *(.vector_69)
                0x9d0008b8                . = ALIGN (0x4)
                0x000015f0                __vector_offset_70 = DEFINED (__vector_dispatch_70)?(. - _ebase_address):__vector_offset_default
 *(.vector_70)
                0x9d0008b8                . = ALIGN (0x4)
                0x000015f0                __vector_offset_71 = DEFINED (__vector_dispatch_71)?(. - _ebase_address):__vector_offset_default
 *(.vector_71)
                0x9d0008b8                . = ALIGN (0x4)
                0x000015f0                __vector_offset_72 = DEFINED (__vector_dispatch_72)?(. - _ebase_address):__vector_offset_default
 *(.vector_72)
                0x9d0008b8                . = ALIGN (0x4)
                0x000015f0                __vector_offset_73 = DEFINED (__vector_dispatch_73)?(. - _ebase_address):__vector_offset_default
 *(.vector_73)
                0x9d0008b8                . = ALIGN (0x4)
                0x000015f0                __vector_offset_74 = DEFINED (__vector_dispatch_74)?(. - _ebase_address):__vector_offset_default
 *(.vector_74)
                0x9d0008b8                . = ALIGN (0x4)
                0x000015f0                __vector_offset_75 = DEFINED (__vector_dispatch_75)?(. - _ebase_address):__vector_offset_default
 *(.vector_75)
                0x9d0008b8                . = ALIGN (0x4)
                0x000015f0                __vector_offset_76 = DEFINED (__vector_dispatch_76)?(. - _ebase_address):__vector_offset_default
 *(.vector_76)
                0x9d0008b8                . = ALIGN (0x4)
                0x000015f0                __vector_offset_77 = DEFINED (__vector_dispatch_77)?(. - _ebase_address):__vector_offset_default
 *(.vector_77)
                0x9d0008b8                . = ALIGN (0x4)
                0x000015f0                __vector_offset_78 = DEFINED (__vector_dispatch_78)?(. - _ebase_address):__vector_offset_default
 *(.vector_78)
                0x9d0008b8                . = ALIGN (0x4)
                0x000015f0                __vector_offset_79 = DEFINED (__vector_dispatch_79)?(. - _ebase_address):__vector_offset_default
 *(.vector_79)
                0x9d0008b8                . = ALIGN (0x4)
                0x000015f0                __vector_offset_80 = DEFINED (__vector_dispatch_80)?(. - _ebase_address):__vector_offset_default
 *(.vector_80)
                0x9d0008b8                . = ALIGN (0x4)
                0x000015f0                __vector_offset_81 = DEFINED (__vector_dispatch_81)?(. - _ebase_address):__vector_offset_default
 *(.vector_81)
                0x9d0008b8                . = ALIGN (0x4)
                0x000015f0                __vector_offset_82 = DEFINED (__vector_dispatch_82)?(. - _ebase_address):__vector_offset_default
 *(.vector_82)
                0x9d0008b8                . = ALIGN (0x4)
                0x000015f0                __vector_offset_83 = DEFINED (__vector_dispatch_83)?(. - _ebase_address):__vector_offset_default
 *(.vector_83)
                0x9d0008b8                . = ALIGN (0x4)
                0x000015f0                __vector_offset_84 = DEFINED (__vector_dispatch_84)?(. - _ebase_address):__vector_offset_default
 *(.vector_84)
                0x9d0008b8                . = ALIGN (0x4)
                0x000015f0                __vector_offset_85 = DEFINED (__vector_dispatch_85)?(. - _ebase_address):__vector_offset_default
 *(.vector_85)
                0x9d0008b8                . = ALIGN (0x4)
                0x000015f0                __vector_offset_86 = DEFINED (__vector_dispatch_86)?(. - _ebase_address):__vector_offset_default
 *(.vector_86)
                0x9d0008b8                . = ALIGN (0x4)
                0x000015f0                __vector_offset_87 = DEFINED (__vector_dispatch_87)?(. - _ebase_address):__vector_offset_default
 *(.vector_87)
                0x9d0008b8                . = ALIGN (0x4)
                0x000015f0                __vector_offset_88 = DEFINED (__vector_dispatch_88)?(. - _ebase_address):__vector_offset_default
 *(.vector_88)
                0x9d0008b8                . = ALIGN (0x4)
                0x000015f0                __vector_offset_89 = DEFINED (__vector_dispatch_89)?(. - _ebase_address):__vector_offset_default
 *(.vector_89)
                0x9d0008b8                . = ALIGN (0x4)
                0x000015f0                __vector_offset_90 = DEFINED (__vector_dispatch_90)?(. - _ebase_address):__vector_offset_default
 *(.vector_90)
                0x9d0008b8                . = ALIGN (0x4)
                0x000015f0                __vector_offset_91 = DEFINED (__vector_dispatch_91)?(. - _ebase_address):__vector_offset_default
 *(.vector_91)
                0x9d0008b8                . = ALIGN (0x4)
                0x000015f0                __vector_offset_92 = DEFINED (__vector_dispatch_92)?(. - _ebase_address):__vector_offset_default
 *(.vector_92)
                0x9d0008b8                . = ALIGN (0x4)
                0x000015f0                __vector_offset_93 = DEFINED (__vector_dispatch_93)?(. - _ebase_address):__vector_offset_default
 *(.vector_93)
                0x9d0008b8                . = ALIGN (0x4)
                0x000015f0                __vector_offset_94 = DEFINED (__vector_dispatch_94)?(. - _ebase_address):__vector_offset_default
 *(.vector_94)
                0x9d0008b8                . = ALIGN (0x4)
                0x000015f0                __vector_offset_95 = DEFINED (__vector_dispatch_95)?(. - _ebase_address):__vector_offset_default
 *(.vector_95)
                0x9d0008b8                . = ALIGN (0x4)
                0x000015f0                __vector_offset_96 = DEFINED (__vector_dispatch_96)?(. - _ebase_address):__vector_offset_default
 *(.vector_96)
                0x9d0008b8                . = ALIGN (0x4)
                0x000015f0                __vector_offset_97 = DEFINED (__vector_dispatch_97)?(. - _ebase_address):__vector_offset_default
 *(.vector_97)
                0x9d0008b8                . = ALIGN (0x4)
                0x000015f0                __vector_offset_98 = DEFINED (__vector_dispatch_98)?(. - _ebase_address):__vector_offset_default
 *(.vector_98)
                0x9d0008b8                . = ALIGN (0x4)
                0x000015f0                __vector_offset_99 = DEFINED (__vector_dispatch_99)?(. - _ebase_address):__vector_offset_default
 *(.vector_99)
                0x9d0008b8                . = ALIGN (0x4)
                0x000015f0                __vector_offset_100 = DEFINED (__vector_dispatch_100)?(. - _ebase_address):__vector_offset_default
 *(.vector_100)
                0x9d0008b8                . = ALIGN (0x4)
                0x000015f0                __vector_offset_101 = DEFINED (__vector_dispatch_101)?(. - _ebase_address):__vector_offset_default
 *(.vector_101)
                0x9d0008b8                . = ALIGN (0x4)
                0x000015f0                __vector_offset_102 = DEFINED (__vector_dispatch_102)?(. - _ebase_address):__vector_offset_default
 *(.vector_102)
                0x9d0008b8                . = ALIGN (0x4)
                0x000015f0                __vector_offset_103 = DEFINED (__vector_dispatch_103)?(. - _ebase_address):__vector_offset_default
 *(.vector_103)
                0x9d0008b8                . = ALIGN (0x4)
                0x000015f0                __vector_offset_104 = DEFINED (__vector_dispatch_104)?(. - _ebase_address):__vector_offset_default
 *(.vector_104)
                0x9d0008b8                . = ALIGN (0x4)
                0x000015f0                __vector_offset_105 = DEFINED (__vector_dispatch_105)?(. - _ebase_address):__vector_offset_default
 *(.vector_105)
                0x9d0008b8                . = ALIGN (0x4)
                0x000015f0                __vector_offset_106 = DEFINED (__vector_dispatch_106)?(. - _ebase_address):__vector_offset_default
 *(.vector_106)
                0x9d0008b8                . = ALIGN (0x4)
                0x000015f0                __vector_offset_107 = DEFINED (__vector_dispatch_107)?(. - _ebase_address):__vector_offset_default
 *(.vector_107)
                0x9d0008b8                . = ALIGN (0x4)
                0x000015f0                __vector_offset_108 = DEFINED (__vector_dispatch_108)?(. - _ebase_address):__vector_offset_default
 *(.vector_108)
                0x9d0008b8                . = ALIGN (0x4)
                0x000015f0                __vector_offset_109 = DEFINED (__vector_dispatch_109)?(. - _ebase_address):__vector_offset_default
 *(.vector_109)
                0x9d0008b8                . = ALIGN (0x4)
                0x000015f0                __vector_offset_110 = DEFINED (__vector_dispatch_110)?(. - _ebase_address):__vector_offset_default
 *(.vector_110)
                0x9d0008b8                . = ALIGN (0x4)
                0x000015f0                __vector_offset_111 = DEFINED (__vector_dispatch_111)?(. - _ebase_address):__vector_offset_default
 *(.vector_111)
                0x9d0008b8                . = ALIGN (0x4)
                0x000015f0                __vector_offset_112 = DEFINED (__vector_dispatch_112)?(. - _ebase_address):__vector_offset_default
 *(.vector_112)
                0x9d0008b8                . = ALIGN (0x4)
                0x000015f0                __vector_offset_113 = DEFINED (__vector_dispatch_113)?(. - _ebase_address):__vector_offset_default
 *(.vector_113)
                0x9d0008b8                . = ALIGN (0x4)
                0x000015f0                __vector_offset_114 = DEFINED (__vector_dispatch_114)?(. - _ebase_address):__vector_offset_default
 *(.vector_114)
                0x9d0008b8                . = ALIGN (0x4)
                0x000015f0                __vector_offset_115 = DEFINED (__vector_dispatch_115)?(. - _ebase_address):__vector_offset_default
 *(.vector_115)
                0x9d0008b8                . = ALIGN (0x4)
                0x000015f0                __vector_offset_116 = DEFINED (__vector_dispatch_116)?(. - _ebase_address):__vector_offset_default
 *(.vector_116)
                0x9d0008b8                . = ALIGN (0x4)
                0x000015f0                __vector_offset_117 = DEFINED (__vector_dispatch_117)?(. - _ebase_address):__vector_offset_default
 *(.vector_117)
                0x9d0008b8                . = ALIGN (0x4)
                0x000015f0                __vector_offset_118 = DEFINED (__vector_dispatch_118)?(. - _ebase_address):__vector_offset_default
 *(.vector_118)
                0x9d0008b8                . = ALIGN (0x4)
                0x000015f0                __vector_offset_119 = DEFINED (__vector_dispatch_119)?(. - _ebase_address):__vector_offset_default
 *(.vector_119)
                0x9d0008b8                . = ALIGN (0x4)
                0x000015f0                __vector_offset_120 = DEFINED (__vector_dispatch_120)?(. - _ebase_address):__vector_offset_default
 *(.vector_120)
                0x9d0008b8                . = ALIGN (0x4)
                0x000015f0                __vector_offset_121 = DEFINED (__vector_dispatch_121)?(. - _ebase_address):__vector_offset_default
 *(.vector_121)
                0x9d0008b8                . = ALIGN (0x4)
                0x000015f0                __vector_offset_122 = DEFINED (__vector_dispatch_122)?(. - _ebase_address):__vector_offset_default
 *(.vector_122)
                0x9d0008b8                . = ALIGN (0x4)
                0x000015f0                __vector_offset_123 = DEFINED (__vector_dispatch_123)?(. - _ebase_address):__vector_offset_default
 *(.vector_123)
                0x9d0008b8                . = ALIGN (0x4)
                0x000015f0                __vector_offset_124 = DEFINED (__vector_dispatch_124)?(. - _ebase_address):__vector_offset_default
 *(.vector_124)
                0x9d0008b8                . = ALIGN (0x4)
                0x000015f0                __vector_offset_125 = DEFINED (__vector_dispatch_125)?(. - _ebase_address):__vector_offset_default
 *(.vector_125)
                0x9d0008b8                . = ALIGN (0x4)
                0x000015f0                __vector_offset_126 = DEFINED (__vector_dispatch_126)?(. - _ebase_address):__vector_offset_default
 *(.vector_126)
                0x9d0008b8                . = ALIGN (0x4)
                0x000015f0                __vector_offset_127 = DEFINED (__vector_dispatch_127)?(. - _ebase_address):__vector_offset_default
 *(.vector_127)
                0x9d0008b8                . = ALIGN (0x4)
                0x000015f0                __vector_offset_128 = DEFINED (__vector_dispatch_128)?(. - _ebase_address):__vector_offset_default
 *(.vector_128)
                0x9d0008b8                . = ALIGN (0x4)
                0x000015f0                __vector_offset_129 = DEFINED (__vector_dispatch_129)?(. - _ebase_address):__vector_offset_default
 *(.vector_129)
                0x9d0008b8                . = ALIGN (0x4)
                0x000015f0                __vector_offset_130 = DEFINED (__vector_dispatch_130)?(. - _ebase_address):__vector_offset_default
 *(.vector_130)
                0x9d0008b8                . = ALIGN (0x4)
                0x000015f0                __vector_offset_131 = DEFINED (__vector_dispatch_131)?(. - _ebase_address):__vector_offset_default
 *(.vector_131)
                0x9d0008b8                . = ALIGN (0x4)
                0x000015f0                __vector_offset_132 = DEFINED (__vector_dispatch_132)?(. - _ebase_address):__vector_offset_default
 *(.vector_132)
                0x9d0008b8                . = ALIGN (0x4)
                0x000015f0                __vector_offset_133 = DEFINED (__vector_dispatch_133)?(. - _ebase_address):__vector_offset_default
 *(.vector_133)
                0x9d0008b8                . = ALIGN (0x4)
                0x000015f0                __vector_offset_134 = DEFINED (__vector_dispatch_134)?(. - _ebase_address):__vector_offset_default
 *(.vector_134)
                0x9d0008b8                . = ALIGN (0x4)
                0x000015f0                __vector_offset_135 = DEFINED (__vector_dispatch_135)?(. - _ebase_address):__vector_offset_default
 *(.vector_135)
                0x9d0008b8                . = ALIGN (0x4)
                0x000015f0                __vector_offset_136 = DEFINED (__vector_dispatch_136)?(. - _ebase_address):__vector_offset_default
 *(.vector_136)
                0x9d0008b8                . = ALIGN (0x4)
                0x000015f0                __vector_offset_137 = DEFINED (__vector_dispatch_137)?(. - _ebase_address):__vector_offset_default
 *(.vector_137)
                0x9d0008b8                . = ALIGN (0x4)
                0x000015f0                __vector_offset_138 = DEFINED (__vector_dispatch_138)?(. - _ebase_address):__vector_offset_default
 *(.vector_138)
                0x9d0008b8                . = ALIGN (0x4)
                0x000015f0                __vector_offset_139 = DEFINED (__vector_dispatch_139)?(. - _ebase_address):__vector_offset_default
 *(.vector_139)
                0x9d0008b8                . = ALIGN (0x4)
                0x000015f0                __vector_offset_140 = DEFINED (__vector_dispatch_140)?(. - _ebase_address):__vector_offset_default
 *(.vector_140)
                0x9d0008b8                . = ALIGN (0x4)
                0x000015f0                __vector_offset_141 = DEFINED (__vector_dispatch_141)?(. - _ebase_address):__vector_offset_default
 *(.vector_141)
                0x9d0008b8                . = ALIGN (0x4)
                0x000015f0                __vector_offset_142 = DEFINED (__vector_dispatch_142)?(. - _ebase_address):__vector_offset_default
 *(.vector_142)
                0x9d0008b8                . = ALIGN (0x4)
                0x000015f0                __vector_offset_143 = DEFINED (__vector_dispatch_143)?(. - _ebase_address):__vector_offset_default
 *(.vector_143)
                0x9d0008b8                . = ALIGN (0x4)
                0x000015f0                __vector_offset_144 = DEFINED (__vector_dispatch_144)?(. - _ebase_address):__vector_offset_default
 *(.vector_144)
                0x9d0008b8                . = ALIGN (0x4)
                0x000015f0                __vector_offset_145 = DEFINED (__vector_dispatch_145)?(. - _ebase_address):__vector_offset_default
 *(.vector_145)
                0x9d0008b8                . = ALIGN (0x4)
                0x000015f0                __vector_offset_146 = DEFINED (__vector_dispatch_146)?(. - _ebase_address):__vector_offset_default
 *(.vector_146)
                0x9d0008b8                . = ALIGN (0x4)
                0x000015f0                __vector_offset_147 = DEFINED (__vector_dispatch_147)?(. - _ebase_address):__vector_offset_default
 *(.vector_147)
                0x9d0008b8                . = ALIGN (0x4)
                0x000015f0                __vector_offset_148 = DEFINED (__vector_dispatch_148)?(. - _ebase_address):__vector_offset_default
 *(.vector_148)
                0x9d0008b8                . = ALIGN (0x4)
                0x000015f0                __vector_offset_149 = DEFINED (__vector_dispatch_149)?(. - _ebase_address):__vector_offset_default
 *(.vector_149)
                0x9d0008b8                . = ALIGN (0x4)
                0x000015f0                __vector_offset_150 = DEFINED (__vector_dispatch_150)?(. - _ebase_address):__vector_offset_default
 *(.vector_150)
                0x9d0008b8                . = ALIGN (0x4)
                0x000015f0                __vector_offset_151 = DEFINED (__vector_dispatch_151)?(. - _ebase_address):__vector_offset_default
 *(.vector_151)
                0x9d0008b8                . = ALIGN (0x4)
                0x000015f0                __vector_offset_152 = DEFINED (__vector_dispatch_152)?(. - _ebase_address):__vector_offset_default
 *(.vector_152)
                0x9d0008b8                . = ALIGN (0x4)
                0x000015f0                __vector_offset_153 = DEFINED (__vector_dispatch_153)?(. - _ebase_address):__vector_offset_default
 *(.vector_153)
                0x9d0008b8                . = ALIGN (0x4)
                0x000015f0                __vector_offset_154 = DEFINED (__vector_dispatch_154)?(. - _ebase_address):__vector_offset_default
 *(.vector_154)
                0x9d0008b8                . = ALIGN (0x4)
                0x000015f0                __vector_offset_155 = DEFINED (__vector_dispatch_155)?(. - _ebase_address):__vector_offset_default
 *(.vector_155)
                0x9d0008b8                . = ALIGN (0x4)
                0x000015f0                __vector_offset_156 = DEFINED (__vector_dispatch_156)?(. - _ebase_address):__vector_offset_default
 *(.vector_156)
                0x9d0008b8                . = ALIGN (0x4)
                0x000008b8                __vector_offset_157 = DEFINED (__vector_dispatch_157)?(. - _ebase_address):__vector_offset_default
 *(.vector_157)
 .vector_157    0x9d0008b8      0x234 build/default/production/_ext/1688732426/system_interrupt_a.o
                0x9d0008b8                __vector_dispatch_157
                0x9d000aec                . = ALIGN (0x4)
                0x00000aec                __vector_offset_158 = DEFINED (__vector_dispatch_158)?(. - _ebase_address):__vector_offset_default
 *(.vector_158)
 .vector_158    0x9d000aec      0x234 build/default/production/_ext/1688732426/system_interrupt_a.o
                0x9d000aec                __vector_dispatch_158
                0x9d000d20                . = ALIGN (0x4)
                0x00000d20                __vector_offset_159 = DEFINED (__vector_dispatch_159)?(. - _ebase_address):__vector_offset_default
 *(.vector_159)
 .vector_159    0x9d000d20      0x234 build/default/production/_ext/1688732426/system_interrupt_a.o
                0x9d000d20                __vector_dispatch_159
                0x9d000f54                . = ALIGN (0x4)
                0x000015f0                __vector_offset_160 = DEFINED (__vector_dispatch_160)?(. - _ebase_address):__vector_offset_default
 *(.vector_160)
                0x9d000f54                . = ALIGN (0x4)
                0x000015f0                __vector_offset_161 = DEFINED (__vector_dispatch_161)?(. - _ebase_address):__vector_offset_default
 *(.vector_161)
                0x9d000f54                . = ALIGN (0x4)
                0x000015f0                __vector_offset_162 = DEFINED (__vector_dispatch_162)?(. - _ebase_address):__vector_offset_default
 *(.vector_162)
                0x9d000f54                . = ALIGN (0x4)
                0x000015f0                __vector_offset_163 = DEFINED (__vector_dispatch_163)?(. - _ebase_address):__vector_offset_default
 *(.vector_163)
                0x9d000f54                . = ALIGN (0x4)
                0x000015f0                __vector_offset_164 = DEFINED (__vector_dispatch_164)?(. - _ebase_address):__vector_offset_default
 *(.vector_164)
                0x9d000f54                . = ALIGN (0x4)
                0x000015f0                __vector_offset_165 = DEFINED (__vector_dispatch_165)?(. - _ebase_address):__vector_offset_default
 *(.vector_165)
                0x9d000f54                . = ALIGN (0x4)
                0x000015f0                __vector_offset_166 = DEFINED (__vector_dispatch_166)?(. - _ebase_address):__vector_offset_default
 *(.vector_166)
                0x9d000f54                . = ALIGN (0x4)
                0x000015f0                __vector_offset_167 = DEFINED (__vector_dispatch_167)?(. - _ebase_address):__vector_offset_default
 *(.vector_167)
                0x9d000f54                . = ALIGN (0x4)
                0x000015f0                __vector_offset_168 = DEFINED (__vector_dispatch_168)?(. - _ebase_address):__vector_offset_default
 *(.vector_168)
                0x9d000f54                . = ALIGN (0x4)
                0x000015f0                __vector_offset_169 = DEFINED (__vector_dispatch_169)?(. - _ebase_address):__vector_offset_default
 *(.vector_169)
                0x9d000f54                . = ALIGN (0x4)
                0x000015f0                __vector_offset_170 = DEFINED (__vector_dispatch_170)?(. - _ebase_address):__vector_offset_default
 *(.vector_170)
                0x9d000f54                . = ALIGN (0x4)
                0x000015f0                __vector_offset_171 = DEFINED (__vector_dispatch_171)?(. - _ebase_address):__vector_offset_default
 *(.vector_171)
                0x9d000f54                . = ALIGN (0x4)
                0x000015f0                __vector_offset_172 = DEFINED (__vector_dispatch_172)?(. - _ebase_address):__vector_offset_default
 *(.vector_172)
                0x9d000f54                . = ALIGN (0x4)
                0x000015f0                __vector_offset_173 = DEFINED (__vector_dispatch_173)?(. - _ebase_address):__vector_offset_default
 *(.vector_173)
                0x9d000f54                . = ALIGN (0x4)
                0x000015f0                __vector_offset_174 = DEFINED (__vector_dispatch_174)?(. - _ebase_address):__vector_offset_default
 *(.vector_174)
                0x9d000f54                . = ALIGN (0x4)
                0x000015f0                __vector_offset_175 = DEFINED (__vector_dispatch_175)?(. - _ebase_address):__vector_offset_default
 *(.vector_175)
                0x9d000f54                . = ALIGN (0x4)
                0x000015f0                __vector_offset_176 = DEFINED (__vector_dispatch_176)?(. - _ebase_address):__vector_offset_default
 *(.vector_176)
                0x9d000f54                . = ALIGN (0x4)
                0x000015f0                __vector_offset_177 = DEFINED (__vector_dispatch_177)?(. - _ebase_address):__vector_offset_default
 *(.vector_177)
                0x9d000f54                . = ALIGN (0x4)
                0x000015f0                __vector_offset_178 = DEFINED (__vector_dispatch_178)?(. - _ebase_address):__vector_offset_default
 *(.vector_178)
                0x9d000f54                . = ALIGN (0x4)
                0x00000f54                __vector_offset_179 = DEFINED (__vector_dispatch_179)?(. - _ebase_address):__vector_offset_default
 *(.vector_179)
 .vector_179    0x9d000f54      0x234 build/default/production/_ext/1688732426/system_interrupt_a.o
                0x9d000f54                __vector_dispatch_179
                0x9d001188                . = ALIGN (0x4)
                0x00001188                __vector_offset_180 = DEFINED (__vector_dispatch_180)?(. - _ebase_address):__vector_offset_default
 *(.vector_180)
 .vector_180    0x9d001188      0x234 build/default/production/_ext/1688732426/system_interrupt_a.o
                0x9d001188                __vector_dispatch_180
                0x9d0013bc                . = ALIGN (0x4)
                0x000013bc                __vector_offset_181 = DEFINED (__vector_dispatch_181)?(. - _ebase_address):__vector_offset_default
 *(.vector_181)
 .vector_181    0x9d0013bc      0x234 build/default/production/_ext/1688732426/system_interrupt_a.o
                0x9d0013bc                __vector_dispatch_181
                0x9d0015f0                . = ALIGN (0x4)
                0x000015f0                __vector_offset_182 = DEFINED (__vector_dispatch_182)?(. - _ebase_address):__vector_offset_default
 *(.vector_182)
                0x9d0015f0                . = ALIGN (0x4)
                0x000015f0                __vector_offset_183 = DEFINED (__vector_dispatch_183)?(. - _ebase_address):__vector_offset_default
 *(.vector_183)
                0x9d0015f0                . = ALIGN (0x4)
                0x000015f0                __vector_offset_184 = DEFINED (__vector_dispatch_184)?(. - _ebase_address):__vector_offset_default
 *(.vector_184)
                0x9d0015f0                . = ALIGN (0x4)
                0x000015f0                __vector_offset_185 = DEFINED (__vector_dispatch_185)?(. - _ebase_address):__vector_offset_default
 *(.vector_185)
                0x9d0015f0                . = ALIGN (0x4)
                0x000015f0                __vector_offset_186 = DEFINED (__vector_dispatch_186)?(. - _ebase_address):__vector_offset_default
 *(.vector_186)
                0x9d0015f0                . = ALIGN (0x4)
                0x000015f0                __vector_offset_187 = DEFINED (__vector_dispatch_187)?(. - _ebase_address):__vector_offset_default
 *(.vector_187)
                0x9d0015f0                . = ALIGN (0x4)
                0x000015f0                __vector_offset_188 = DEFINED (__vector_dispatch_188)?(. - _ebase_address):__vector_offset_default
 *(.vector_188)
                0x9d0015f0                . = ALIGN (0x4)
                0x000015f0                __vector_offset_189 = DEFINED (__vector_dispatch_189)?(. - _ebase_address):__vector_offset_default
 *(.vector_189)
                0x9d0015f0                . = ALIGN (0x4)
                0x000015f0                __vector_offset_190 = DEFINED (__vector_dispatch_190)?(. - _ebase_address):__vector_offset_default
 *(.vector_190)
                0x9d0015f0                . = ALIGN (0x4)
                0x000015f0                __vector_offset_191 = DEFINED (__vector_dispatch_191)?(. - _ebase_address):__vector_offset_default
 *(.vector_191)
                0x9d0015f0                . = ALIGN (0x4)
                0x000015f0                __vector_offset_192 = DEFINED (__vector_dispatch_192)?(. - _ebase_address):__vector_offset_default
 *(.vector_192)
                0x9d0015f0                . = ALIGN (0x4)
                0x000015f0                __vector_offset_193 = DEFINED (__vector_dispatch_193)?(. - _ebase_address):__vector_offset_default
 *(.vector_193)
                0x9d0015f0                . = ALIGN (0x4)
                0x000015f0                __vector_offset_194 = DEFINED (__vector_dispatch_194)?(. - _ebase_address):__vector_offset_default
 *(.vector_194)
                0x9d0015f0                . = ALIGN (0x4)
                0x000015f0                __vector_offset_195 = DEFINED (__vector_dispatch_195)?(. - _ebase_address):__vector_offset_default
 *(.vector_195)
                0x9d0015f0                . = ALIGN (0x4)
                0x000015f0                __vector_offset_196 = DEFINED (__vector_dispatch_196)?(. - _ebase_address):__vector_offset_default
 *(.vector_196)
                0x9d0015f0                . = ALIGN (0x4)
                0x000015f0                __vector_offset_197 = DEFINED (__vector_dispatch_197)?(. - _ebase_address):__vector_offset_default
 *(.vector_197)
                0x9d0015f0                . = ALIGN (0x4)
                0x000015f0                __vector_offset_198 = DEFINED (__vector_dispatch_198)?(. - _ebase_address):__vector_offset_default
 *(.vector_198)
                0x9d0015f0                . = ALIGN (0x4)
                0x000015f0                __vector_offset_199 = DEFINED (__vector_dispatch_199)?(. - _ebase_address):__vector_offset_default
 *(.vector_199)
                0x9d0015f0                . = ALIGN (0x4)
                0x000015f0                __vector_offset_200 = DEFINED (__vector_dispatch_200)?(. - _ebase_address):__vector_offset_default
 *(.vector_200)
                0x9d0015f0                . = ALIGN (0x4)
                0x000015f0                __vector_offset_201 = DEFINED (__vector_dispatch_201)?(. - _ebase_address):__vector_offset_default
 *(.vector_201)
                0x9d0015f0                . = ALIGN (0x4)
                0x000015f0                __vector_offset_202 = DEFINED (__vector_dispatch_202)?(. - _ebase_address):__vector_offset_default
 *(.vector_202)
                0x9d0015f0                . = ALIGN (0x4)
                0x000015f0                __vector_offset_203 = DEFINED (__vector_dispatch_203)?(. - _ebase_address):__vector_offset_default
 *(.vector_203)
                0x9d0015f0                . = ALIGN (0x4)
                0x000015f0                __vector_offset_204 = DEFINED (__vector_dispatch_204)?(. - _ebase_address):__vector_offset_default
 *(.vector_204)
                0x9d0015f0                . = ALIGN (0x4)
                0x000015f0                __vector_offset_205 = DEFINED (__vector_dispatch_205)?(. - _ebase_address):__vector_offset_default
 *(.vector_205)
                0x9d0015f0                . = ALIGN (0x4)
                0x000015f0                __vector_offset_206 = DEFINED (__vector_dispatch_206)?(. - _ebase_address):__vector_offset_default
 *(.vector_206)
                0x9d0015f0                . = ALIGN (0x4)
                0x000015f0                __vector_offset_207 = DEFINED (__vector_dispatch_207)?(. - _ebase_address):__vector_offset_default
 *(.vector_207)
                0x9d0015f0                . = ALIGN (0x4)
                0x000015f0                __vector_offset_208 = DEFINED (__vector_dispatch_208)?(. - _ebase_address):__vector_offset_default
 *(.vector_208)
                0x9d0015f0                . = ALIGN (0x4)
                0x000015f0                __vector_offset_209 = DEFINED (__vector_dispatch_209)?(. - _ebase_address):__vector_offset_default
 *(.vector_209)
                0x9d0015f0                . = ALIGN (0x4)
                0x000015f0                __vector_offset_210 = DEFINED (__vector_dispatch_210)?(. - _ebase_address):__vector_offset_default
 *(.vector_210)
                0x9d0015f0                . = ALIGN (0x4)
                0x000015f0                __vector_offset_211 = DEFINED (__vector_dispatch_211)?(. - _ebase_address):__vector_offset_default
 *(.vector_211)
                0x9d0015f0                . = ALIGN (0x4)
                0x000015f0                __vector_offset_212 = DEFINED (__vector_dispatch_212)?(. - _ebase_address):__vector_offset_default
 *(.vector_212)
                0x9d0015f0                . = ALIGN (0x4)
                0x000015f0                __vector_offset_213 = DEFINED (__vector_dispatch_213)?(. - _ebase_address):__vector_offset_default
 *(.vector_213)
                0x9d0015f0                . = ALIGN (0x4)
                0x000015f0                __vector_offset_214 = DEFINED (__vector_dispatch_214)?(. - _ebase_address):__vector_offset_default
 *(.vector_214)
                0x9d0015f0                . = ALIGN (0x4)
                0x000015f0                __vector_offset_215 = DEFINED (__vector_dispatch_215)?(. - _ebase_address):__vector_offset_default
 *(.vector_215)
                0x9d0015f0                . = ALIGN (0x4)
                0x000015f0                __vector_offset_216 = DEFINED (__vector_dispatch_216)?(. - _ebase_address):__vector_offset_default
 *(.vector_216)
                0x9d0015f0                . = ALIGN (0x4)
                0x000015f0                __vector_offset_217 = DEFINED (__vector_dispatch_217)?(. - _ebase_address):__vector_offset_default
 *(.vector_217)
                0x9d0015f0                . = ALIGN (0x4)
                0x000015f0                __vector_offset_218 = DEFINED (__vector_dispatch_218)?(. - _ebase_address):__vector_offset_default
 *(.vector_218)
                0x9d0015f0                . = ALIGN (0x4)
                0x000015f0                __vector_offset_219 = DEFINED (__vector_dispatch_219)?(. - _ebase_address):__vector_offset_default
 *(.vector_219)
                0x9d0015f0                . = ALIGN (0x4)
                0x000015f0                __vector_offset_220 = DEFINED (__vector_dispatch_220)?(. - _ebase_address):__vector_offset_default
 *(.vector_220)
                0x9d0015f0                . = ALIGN (0x4)
                0x000015f0                __vector_offset_221 = DEFINED (__vector_dispatch_221)?(. - _ebase_address):__vector_offset_default
 *(.vector_221)
                0x9d0015f0                . = ALIGN (0x4)
                0x000015f0                __vector_offset_222 = DEFINED (__vector_dispatch_222)?(. - _ebase_address):__vector_offset_default
 *(.vector_222)
                0x9d0015f0                . = ALIGN (0x4)
                0x000015f0                __vector_offset_223 = DEFINED (__vector_dispatch_223)?(. - _ebase_address):__vector_offset_default
 *(.vector_223)
                0x9d0015f0                . = ALIGN (0x4)
                0x000015f0                __vector_offset_224 = DEFINED (__vector_dispatch_224)?(. - _ebase_address):__vector_offset_default
 *(.vector_224)
                0x9d0015f0                . = ALIGN (0x4)
                0x000015f0                __vector_offset_225 = DEFINED (__vector_dispatch_225)?(. - _ebase_address):__vector_offset_default
 *(.vector_225)
                0x9d0015f0                . = ALIGN (0x4)
                0x000015f0                __vector_offset_226 = DEFINED (__vector_dispatch_226)?(. - _ebase_address):__vector_offset_default
 *(.vector_226)
                0x9d0015f0                . = ALIGN (0x4)
                0x000015f0                __vector_offset_227 = DEFINED (__vector_dispatch_227)?(. - _ebase_address):__vector_offset_default
 *(.vector_227)
                0x9d0015f0                . = ALIGN (0x4)
                0x000015f0                __vector_offset_228 = DEFINED (__vector_dispatch_228)?(. - _ebase_address):__vector_offset_default
 *(.vector_228)
                0x9d0015f0                . = ALIGN (0x4)
                0x000015f0                __vector_offset_229 = DEFINED (__vector_dispatch_229)?(. - _ebase_address):__vector_offset_default
 *(.vector_229)
                0x9d0015f0                . = ALIGN (0x4)
                0x000015f0                __vector_offset_230 = DEFINED (__vector_dispatch_230)?(. - _ebase_address):__vector_offset_default
 *(.vector_230)
                0x9d0015f0                . = ALIGN (0x4)
                0x000015f0                __vector_offset_231 = DEFINED (__vector_dispatch_231)?(. - _ebase_address):__vector_offset_default
 *(.vector_231)
                0x9d0015f0                . = ALIGN (0x4)
                0x000015f0                __vector_offset_232 = DEFINED (__vector_dispatch_232)?(. - _ebase_address):__vector_offset_default
 *(.vector_232)
                0x9d0015f0                . = ALIGN (0x4)
                0x000015f0                __vector_offset_233 = DEFINED (__vector_dispatch_233)?(. - _ebase_address):__vector_offset_default
 *(.vector_233)
                0x9d0015f0                . = ALIGN (0x4)
                0x000015f0                __vector_offset_234 = DEFINED (__vector_dispatch_234)?(. - _ebase_address):__vector_offset_default
 *(.vector_234)
                0x9d0015f0                . = ALIGN (0x4)
                0x000015f0                __vector_offset_235 = DEFINED (__vector_dispatch_235)?(. - _ebase_address):__vector_offset_default
 *(.vector_235)
                0x9d0015f0                . = ALIGN (0x4)
                0x000015f0                __vector_offset_236 = DEFINED (__vector_dispatch_236)?(. - _ebase_address):__vector_offset_default
 *(.vector_236)
                0x9d0015f0                . = ALIGN (0x4)
                0x000015f0                __vector_offset_237 = DEFINED (__vector_dispatch_237)?(. - _ebase_address):__vector_offset_default
 *(.vector_237)
                0x9d0015f0                . = ALIGN (0x4)
                0x000015f0                __vector_offset_238 = DEFINED (__vector_dispatch_238)?(. - _ebase_address):__vector_offset_default
 *(.vector_238)
                0x9d0015f0                . = ALIGN (0x4)
                0x000015f0                __vector_offset_239 = DEFINED (__vector_dispatch_239)?(. - _ebase_address):__vector_offset_default
 *(.vector_239)
                0x9d0015f0                . = ALIGN (0x4)
                0x000015f0                __vector_offset_240 = DEFINED (__vector_dispatch_240)?(. - _ebase_address):__vector_offset_default
 *(.vector_240)
                0x9d0015f0                . = ALIGN (0x4)
                0x000015f0                __vector_offset_241 = DEFINED (__vector_dispatch_241)?(. - _ebase_address):__vector_offset_default
 *(.vector_241)
                0x9d0015f0                . = ALIGN (0x4)
                0x000015f0                __vector_offset_242 = DEFINED (__vector_dispatch_242)?(. - _ebase_address):__vector_offset_default
 *(.vector_242)
                0x9d0015f0                . = ALIGN (0x4)
                0x000015f0                __vector_offset_243 = DEFINED (__vector_dispatch_243)?(. - _ebase_address):__vector_offset_default
 *(.vector_243)
                0x9d0015f0                . = ALIGN (0x4)
                0x000015f0                __vector_offset_244 = DEFINED (__vector_dispatch_244)?(. - _ebase_address):__vector_offset_default
 *(.vector_244)
                0x9d0015f0                . = ALIGN (0x4)
                0x000015f0                __vector_offset_245 = DEFINED (__vector_dispatch_245)?(. - _ebase_address):__vector_offset_default
 *(.vector_245)
                0x9d0015f0                . = ALIGN (0x4)
                0x000015f0                __vector_offset_246 = DEFINED (__vector_dispatch_246)?(. - _ebase_address):__vector_offset_default
 *(.vector_246)
                0x9d0015f0                . = ALIGN (0x4)
                0x000015f0                __vector_offset_247 = DEFINED (__vector_dispatch_247)?(. - _ebase_address):__vector_offset_default
 *(.vector_247)
                0x9d0015f0                . = ALIGN (0x4)
                0x000015f0                __vector_offset_248 = DEFINED (__vector_dispatch_248)?(. - _ebase_address):__vector_offset_default
 *(.vector_248)
                0x9d0015f0                . = ALIGN (0x4)
                0x000015f0                __vector_offset_249 = DEFINED (__vector_dispatch_249)?(. - _ebase_address):__vector_offset_default
 *(.vector_249)
                0x9d0015f0                . = ALIGN (0x4)
                0x000015f0                __vector_offset_250 = DEFINED (__vector_dispatch_250)?(. - _ebase_address):__vector_offset_default
 *(.vector_250)
                0x9d0015f0                . = ALIGN (0x4)
                0x000015f0                __vector_offset_251 = DEFINED (__vector_dispatch_251)?(. - _ebase_address):__vector_offset_default
 *(.vector_251)
                0x9d0015f0                . = ALIGN (0x4)
                0x000015f0                __vector_offset_252 = DEFINED (__vector_dispatch_252)?(. - _ebase_address):__vector_offset_default
 *(.vector_252)
                0x9d0015f0                . = ALIGN (0x4)
                0x000015f0                __vector_offset_253 = DEFINED (__vector_dispatch_253)?(. - _ebase_address):__vector_offset_default
 *(.vector_253)
                0x9d0015f0                . = ALIGN (0x4)
                0x000015f0                __vector_offset_254 = DEFINED (__vector_dispatch_254)?(. - _ebase_address):__vector_offset_default
 *(.vector_254)
                0x9d0015f0                . = ALIGN (0x4)
                0x000015f0                __vector_offset_255 = DEFINED (__vector_dispatch_255)?(. - _ebase_address):__vector_offset_default
 *(.vector_255)
                0x9d0015f0                . = ALIGN (0x4)
                0x000015f0                __vector_offset_default = (. - _ebase_address)
 *(.vector_default)
 .vector_default
                0x9d0015f0       0x48 /opt/microchip/xc32/v2.41/bin/bin/../../lib/gcc/pic32mx/4.8.3/../../../../pic32mx/lib/libpic32.a(defaultinterrupt.o)
                0x9d0015f0                _DefaultInterrupt

.startup
 *(.startup)

.text           0x9d001638        0x0
 *(.stub .gnu.linkonce.t.*)
 *(.text.*personality*)
 *(.mips16.fn.*)
 *(.mips16.call.*)
 *(.gnu.warning)
                0x9d001638                . = ALIGN (0x4)

.init           0x9d001638        0x0
 *crti.o(.init)
 *crtbegin.o(.init)
 *(EXCLUDE_FILE(*crtn.o *crtend?.o *crtend.o) .init)
 *crtend.o(.init)
 *crtn.o(.init)
                0x9d001638                . = ALIGN (0x4)

.fini           0x9d001638        0x0
 *(.fini)
                0x9d001638                . = ALIGN (0x4)

.preinit_array  0x9d001638        0x0
                0x9d001638                PROVIDE (__preinit_array_start, .)
 *(.preinit_array)
                0x9d001638                PROVIDE (__preinit_array_end, .)
                0x9d001638                . = ALIGN (0x4)

.init_array     0x9d001638        0x0
                0x9d001638                PROVIDE (__init_array_start, .)
 *(SORT(.init_array.*))
 *(.init_array)
                0x9d001638                PROVIDE (__init_array_end, .)
                0x9d001638                . = ALIGN (0x4)

.fini_array     0x9d001638        0x0
                0x9d001638                PROVIDE (__fini_array_start, .)
 *(SORT(.fini_array.*))
 *(.fini_array)
                0x9d001638                PROVIDE (__fini_array_end, .)
                0x9d001638                . = ALIGN (0x4)

.ctors          0x9d001638        0x0
 *crtbegin.o(.ctors)
 *crtbegin?.o(.ctors)
 *(EXCLUDE_FILE(*crtend?.o *crtend.o) .ctors)
 *(SORT(.ctors.*))
 *(.ctors)
                0x9d001638                . = ALIGN (0x4)

.dtors          0x9d001638        0x0
 *crtbegin.o(.dtors)
 *crtbegin?.o(.dtors)
 *(EXCLUDE_FILE(*crtend?.o *crtend.o) .dtors)
 *(SORT(.dtors.*))
 *(.dtors)
                0x9d001638                . = ALIGN (0x4)

.rodata         0x9d001638        0x0
 *(.gnu.linkonce.r.*)
 *(.rodata1)
                0x9d001638                . = ALIGN (0x4)

.sdata2         0x9fc004b0        0x0
 *(.sdata2 .sdata2.* .gnu.linkonce.s2.*)
                0x9fc004b0                . = ALIGN (0x4)

.sbss2          0x9fc004b0        0x0
 *(.sbss2 .sbss2.* .gnu.linkonce.sb2.*)
                0x9fc004b0                . = ALIGN (0x4)

.eh_frame_hdr
 *(.eh_frame_hdr)
                0x9fc004b0                . = ALIGN (0x4)

.eh_frame
 *(.eh_frame)
                0x9fc004b0                . = ALIGN (0x4)

.gcc_except_table
 *(.gcc_except_table .gcc_except_table.*)
                0x9fc004b0                . = ALIGN (0x4)

.dbg_data       0x80000000        0x0
                0x80000000                . = (. + DEFINED (_DEBUGGER)?0x200:0x0)
                0x80000000                . = (. + DEFINED (_DEBUGGER)?0x80:0x0)

.jcr            0x80000000        0x0
 *(.jcr)
                0x80000000                . = ALIGN (0x4)

.eh_frame
 *(.eh_frame)
                0x80000000                . = ALIGN (0x4)

.gcc_except_table
 *(.gcc_except_table .gcc_except_table.*)
                0x80000000                . = ALIGN (0x4)

.persist        0x80000000        0x0
                0x80000000                _persist_begin = .
 *(.persist .persist.*)
                0x80000000                . = ALIGN (0x4)
                0x80000000                _persist_end = .

.data           0x80000000        0x0
 *(.gnu.linkonce.d.*)
 *(.data1)
                0x80000000                . = ALIGN (0x4)
                0x80000000                . = .
                0x80007ff0                _gp = (ALIGN (0x10) + 0x7ff0)

.got            0x80000000        0x0
 *(.got.plt)
 *(.got)
                0x80000000                . = ALIGN (0x4)

.sdata          0x80000000       0x2c
                0x80000000                _sdata_begin = .
 *(.sdata .sdata.* .gnu.linkonce.s.*)
 .sdata         0x80000000        0x4 build/default/production/_ext/1571139743/port.o
                0x80000000                uxInterruptNesting
 .sdata         0x80000004       0x24 /opt/microchip/xc32/v2.41/bin/bin/../../lib/gcc/pic32mx/4.8.3/../../../../pic32mx/lib/libpic32.a(pic32_init_cache.o)
                0x80000004                __pic32_icache_size
                0x80000008                __pic32_icache_linesize
                0x8000000c                __pic32_icache_ways
                0x80000010                __pic32_dcache_size
                0x80000014                __pic32_dcache_linesize
                0x80000018                __pic32_dcache_ways
                0x8000001c                __pic32_scache_size
                0x80000020                __pic32_scache_linesize
                0x80000024                __pic32_scache_ways
 .sdata         0x80000028        0x4 /opt/microchip/xc32/v2.41/bin/bin/../../lib/gcc/pic32mx/4.8.3/../../../../pic32mx/lib/libpic32.a(xc32_uart.o)
                0x80000028                __XC_UART
                0x8000002c                . = ALIGN (0x4)
                0x8000002c                _sdata_end = .

.lit8
 *(.lit8)

.lit4
 *(.lit4)
                0x8000002c                . = ALIGN (0x4)
                0x8000002c                _data_end = .
                0x8000002c                _bss_begin = .

.sbss           0x8000002c       0xc0
                0x8000002c                _sbss_begin = .
 *(.dynsbss)
 *(.sbss .sbss.* .gnu.linkonce.sb.*)
 .sbss          0x8000002c        0x1 build/default/production/_ext/1650642999/comms.o
 *fill*         0x8000002d        0x3 
 .sbss          0x80000030        0x8 build/default/production/_ext/1204493032/PositionEstimatorAltitude.o
 .sbss          0x80000038        0x4 build/default/production/_ext/149289479/MAVLinkHandler.o
 .sbss          0x8000003c        0x8 build/default/production/_ext/1715884449/AttitudeControllerTask.o
 .sbss          0x80000044        0x4 build/default/production/_ext/1158199258/MAVLinkSendTask.o
 .sbss          0x80000048        0xc build/default/production/_ext/1315301415/MAVStatusTask.o
 .sbss          0x80000054       0x3c build/default/production/_ext/1276567923/tasks.o
                0x8000008c                pxCurrentTCB
 .sbss          0x80000090        0x8 build/default/production/_ext/457403440/heap_1.o
 .sbss          0x80000098        0x4 build/default/production/_ext/1571139743/port.o
                0x80000098                uxSavedTaskStackPointer
 .sbss          0x8000009c        0x1 build/default/production/_ext/1407244131/drv_tmr_static.o
 *fill*         0x8000009d        0x3 
 .sbss          0x800000a0       0x18 build/default/production/_ext/1688732426/general_exception_handler.o
 *(.scommon)
 .scommon       0x800000b8        0x8 build/default/production/_ext/1360937237/app.o
                0x800000b8                appData
                0x800000bc                i
 .scommon       0x800000c0        0x4 build/default/production/_ext/1360937237/mavlink_recv_task.o
                0x800000c0                mavlink_recv_taskData
 .scommon       0x800000c4        0x8 build/default/production/_ext/1360937237/mavlink_send_task.o
                0x800000c4                mavlink_send_taskData
                0x800000c8                g_mavLinkSendQueue
 .scommon       0x800000cc        0x4 build/default/production/_ext/1360937237/mavlink_status_task.o
                0x800000cc                mavlink_status_taskData
 .scommon       0x800000d0        0x4 build/default/production/_ext/1360937237/att_controller_task.o
                0x800000d0                att_controller_taskData
 .scommon       0x800000d4        0x8 build/default/production/_ext/121284916/sys_devcon.o
                0x800000d4                sysDevconObj
 .scommon       0x800000dc       0x10 build/default/production/_ext/327000265/drv_usart_static.o
                0x800000dc                gDrvUSART0Obj
                0x800000e4                gDrvUSART1Obj
                0x800000ec                _sbss_end = .
                0x800000ec                . = ALIGN (0x4)

.bss            0x800000ec       0x10
 *(.dynbss)
 *(COMMON)
 COMMON         0x800000ec       0x10 build/default/production/_ext/1688732426/system_init.o
                0x800000ec                sysObj
                0x800000fc                . = ALIGN ((. != 0x0)?0x4:0x1)
                0x800000fc                . = ALIGN (0x4)
                0x800000fc                _end = .
                0x800000fc                _bss_end = .
                0x00080000                _bmxdudba_address = 0x80000
                0x00080000                _bmxdupba_address = 0x80000

/DISCARD/
 *(.pdr)
 *(.rel.dyn)
 *(.note.GNU-stack)
 *(.note.GNU-stack)
 *(.gnu_debuglink)
 *(.gnu.lto_*)
 *(.discard)

.gptab.sdata
 *(.gptab.data)
 *(.gptab.sdata)

.gptab.sbss
 *(.gptab.bss)
 *(.gptab.sbss)

.mdebug.abi32   0x00000000        0x0
 *(.mdebug.abi32)
 .mdebug.abi32  0x00000000        0x0 build/default/production/_ext/1650642999/imu.o
 .mdebug.abi32  0x00000000        0x0 build/default/production/_ext/1650642999/comms.o
 .mdebug.abi32  0x00000000        0x0 build/default/production/_ext/1650642999/tof.o
 .mdebug.abi32  0x00000000        0x0 build/default/production/_ext/1650642999/motors.o
 .mdebug.abi32  0x00000000        0x0 build/default/production/_ext/971049567/Quaternion.o
 .mdebug.abi32  0x00000000        0x0 build/default/production/_ext/971049567/Vector3D.o
 .mdebug.abi32  0x00000000        0x0 build/default/production/_ext/1360937237/main.o
 .mdebug.abi32  0x00000000        0x0 build/default/production/_ext/1360937237/app.o
 .mdebug.abi32  0x00000000        0x0 build/default/production/_ext/1360937237/mavlink_recv_task.o
 .mdebug.abi32  0x00000000        0x0 build/default/production/_ext/1360937237/mavlink_send_task.o
 .mdebug.abi32  0x00000000        0x0 build/default/production/_ext/1360937237/mavlink_status_task.o
 .mdebug.abi32  0x00000000        0x0 build/default/production/_ext/1360937237/att_controller_task.o
 .mdebug.abi32  0x00000000        0x0 build/default/production/_ext/443942460/PID.o
 .mdebug.abi32  0x00000000        0x0 build/default/production/_ext/1035051164/SixDOFQuadcopterModel.o
 .mdebug.abi32  0x00000000        0x0 build/default/production/_ext/1204493032/PositionEstimatorAltitude.o
 .mdebug.abi32  0x00000000        0x0 build/default/production/_ext/1204493032/SensFusion.o
 .mdebug.abi32  0x00000000        0x0 build/default/production/_ext/1204493032/ComplementaryFilter.o
 .mdebug.abi32  0x00000000        0x0 build/default/production/_ext/1204493032/AttitudeController.o
 .mdebug.abi32  0x00000000        0x0 build/default/production/_ext/149289479/MAVLinkSender.o
 .mdebug.abi32  0x00000000        0x0 build/default/production/_ext/149289479/MAVLinkHandler.o
 .mdebug.abi32  0x00000000        0x0 build/default/production/_ext/1715884449/AttitudeControllerTask.o
 .mdebug.abi32  0x00000000        0x0 build/default/production/_ext/1158199258/MAVLinkSendTask.o
 .mdebug.abi32  0x00000000        0x0 build/default/production/_ext/1158199258/MAVLinkRecvTask.o
 .mdebug.abi32  0x00000000        0x0 build/default/production/_ext/1315301415/TOFUpdateTask.o
 .mdebug.abi32  0x00000000        0x0 build/default/production/_ext/1315301415/MAVStatusTask.o
 .mdebug.abi32  0x00000000        0x0 build/default/production/_ext/1315301415/IMUUpdateTask.o
 .mdebug.abi32  0x00000000        0x0 build/default/production/_ext/1313821444/num.o
 .mdebug.abi32  0x00000000        0x0 build/default/production/_ext/1353086322/osal_freertos.o
 .mdebug.abi32  0x00000000        0x0 build/default/production/_ext/121284916/sys_devcon.o
 .mdebug.abi32  0x00000000        0x0 build/default/production/_ext/121284916/sys_devcon_pic32mz.o
 .mdebug.abi32  0x00000000        0x0 build/default/production/_ext/1317643790/sys_int_pic32.o
 .mdebug.abi32  0x00000000        0x0 build/default/production/_ext/1276567923/croutine.o
 .mdebug.abi32  0x00000000        0x0 build/default/production/_ext/1276567923/list.o
 .mdebug.abi32  0x00000000        0x0 build/default/production/_ext/1276567923/queue.o
 .mdebug.abi32  0x00000000        0x0 build/default/production/_ext/1276567923/tasks.o
 .mdebug.abi32  0x00000000        0x0 build/default/production/_ext/1276567923/timers.o
 .mdebug.abi32  0x00000000        0x0 build/default/production/_ext/1276567923/event_groups.o
 .mdebug.abi32  0x00000000        0x0 build/default/production/_ext/457403440/heap_1.o
 .mdebug.abi32  0x00000000        0x0 build/default/production/_ext/1571139743/port.o
 .mdebug.abi32  0x00000000        0x0 build/default/production/_ext/1047219354/drv_oc_mapping.o
 .mdebug.abi32  0x00000000        0x0 build/default/production/_ext/1047219354/drv_oc_static.o
 .mdebug.abi32  0x00000000        0x0 build/default/production/_ext/1407244131/drv_tmr_static.o
 .mdebug.abi32  0x00000000        0x0 build/default/production/_ext/1407244131/drv_tmr_mapping.o
 .mdebug.abi32  0x00000000        0x0 build/default/production/_ext/327000265/drv_usart_mapping.o
 .mdebug.abi32  0x00000000        0x0 build/default/production/_ext/327000265/drv_usart_static.o
 .mdebug.abi32  0x00000000        0x0 build/default/production/_ext/327000265/drv_usart_static_byte_model.o
 .mdebug.abi32  0x00000000        0x0 build/default/production/_ext/639803181/sys_clk_pic32mz.o
 .mdebug.abi32  0x00000000        0x0 build/default/production/_ext/822048611/sys_ports_static.o
 .mdebug.abi32  0x00000000        0x0 build/default/production/_ext/1688732426/system_init.o
 .mdebug.abi32  0x00000000        0x0 build/default/production/_ext/1688732426/system_interrupt.o
 .mdebug.abi32  0x00000000        0x0 build/default/production/_ext/1688732426/general_exception_handler.o
 .mdebug.abi32  0x00000000        0x0 build/default/production/_ext/1688732426/fassert.o
 .mdebug.abi32  0x00000000        0x0 build/default/production/_ext/1688732426/system_tasks.o
 .mdebug.abi32  0x00000000        0x0 build/default/production/_ext/1688732426/rtos_hooks.o
 .mdebug.abi32  0x00000000        0x0 /opt/microchip/xc32/v2.41/bin/bin/../../lib/gcc/pic32mx/4.8.3/libgcc.a(floatunsisf.o)
 .mdebug.abi32  0x00000000        0x0 /opt/microchip/xc32/v2.41/bin/bin/../../lib/gcc/pic32mx/4.8.3/../../../../pic32mx/lib/libpic32.a(default-bootstrap-exception-handler.o)
 .mdebug.abi32  0x00000000        0x0 /opt/microchip/xc32/v2.41/bin/bin/../../lib/gcc/pic32mx/4.8.3/../../../../pic32mx/lib/libpic32.a(default-on-reset.o)
 .mdebug.abi32  0x00000000        0x0 /opt/microchip/xc32/v2.41/bin/bin/../../lib/gcc/pic32mx/4.8.3/../../../../pic32mx/lib/libpic32.a(default-on-bootstrap.o)
 .mdebug.abi32  0x00000000        0x0 /opt/microchip/xc32/v2.41/bin/bin/../../lib/gcc/pic32mx/4.8.3/../../../../pic32mx/lib/libpic32.a(defaultinterrupt.o)
 .mdebug.abi32  0x00000000        0x0 /opt/microchip/xc32/v2.41/bin/bin/../../lib/gcc/pic32mx/4.8.3/../../../../pic32mx/lib/libpic32.a(default-cache-err-exception-handler.o)
 .mdebug.abi32  0x00000000        0x0 /opt/microchip/xc32/v2.41/bin/bin/../../lib/gcc/pic32mx/4.8.3/../../../../pic32mx/lib/libpic32.a(default-simple-tlb-refill-exception-handler.o)
 .mdebug.abi32  0x00000000        0x0 /opt/microchip/xc32/v2.41/bin/bin/../../lib/gcc/pic32mx/4.8.3/../../../../pic32mx/lib/libc.a(malloc.o)
 .mdebug.abi32  0x00000000        0x0 /opt/microchip/xc32/v2.41/bin/bin/../../lib/gcc/pic32mx/4.8.3/../../../../pic32mx/lib/libc.a(puts.o)
 .mdebug.abi32  0x00000000        0x0 /opt/microchip/xc32/v2.41/bin/bin/../../lib/gcc/pic32mx/4.8.3/../../../../pic32mx/lib/libc.a(strcat.o)
 .mdebug.abi32  0x00000000        0x0 /opt/microchip/xc32/v2.41/bin/bin/../../lib/gcc/pic32mx/4.8.3/../../../../pic32mx/lib/libc.a(sprintf_cdnopuxX.eo)
 .mdebug.abi32  0x00000000        0x0 /opt/microchip/xc32/v2.41/bin/bin/../../lib/gcc/pic32mx/4.8.3/../../../../pic32mx/lib/libc.a(_iob.o)
 .mdebug.abi32  0x00000000        0x0 /opt/microchip/xc32/v2.41/bin/bin/../../lib/gcc/pic32mx/4.8.3/../../../../pic32mx/lib/libc.a(_fputc_simple.o)
 .mdebug.abi32  0x00000000        0x0 /opt/microchip/xc32/v2.41/bin/bin/../../lib/gcc/pic32mx/4.8.3/../../../../pic32mx/lib/libc.a(doprnt_cdnopuxX.eo)
 .mdebug.abi32  0x00000000        0x0 /opt/microchip/xc32/v2.41/bin/bin/../../lib/gcc/pic32mx/4.8.3/../../../../pic32mx/lib/libc.a(_flsbuf_simple.o)
 .mdebug.abi32  0x00000000        0x0 /opt/microchip/xc32/v2.41/bin/bin/../../lib/gcc/pic32mx/4.8.3/../../../../pic32mx/lib/libc.a(ctype.o)
 .mdebug.abi32  0x00000000        0x0 /opt/microchip/xc32/v2.41/bin/bin/../../lib/gcc/pic32mx/4.8.3/../../../../pic32mx/lib/libm.a(w_asinf.o)
 .mdebug.abi32  0x00000000        0x0 /opt/microchip/xc32/v2.41/bin/bin/../../lib/gcc/pic32mx/4.8.3/../../../../pic32mx/lib/libm.a(w_atan2f.o)
 .mdebug.abi32  0x00000000        0x0 /opt/microchip/xc32/v2.41/bin/bin/../../lib/gcc/pic32mx/4.8.3/../../../../pic32mx/lib/libm.a(support.o)
 .mdebug.abi32  0x00000000        0x0 /opt/microchip/xc32/v2.41/bin/bin/../../lib/gcc/pic32mx/4.8.3/../../../../pic32mx/lib/libm.a(s_lib_ver.o)
 .mdebug.abi32  0x00000000        0x0 /opt/microchip/xc32/v2.41/bin/bin/../../lib/gcc/pic32mx/4.8.3/libgcc.a(_udivdi3.o)
 .mdebug.abi32  0x00000000        0x0 /opt/microchip/xc32/v2.41/bin/bin/../../lib/gcc/pic32mx/4.8.3/libgcc.a(_umoddi3.o)
 .mdebug.abi32  0x00000000        0x0 /opt/microchip/xc32/v2.41/bin/bin/../../lib/gcc/pic32mx/4.8.3/../../../../pic32mx/lib/libpic32.a(sbrk.o)
 .mdebug.abi32  0x00000000        0x0 /opt/microchip/xc32/v2.41/bin/bin/../../lib/gcc/pic32mx/4.8.3/../../../../pic32mx/lib/libpic32.a(write.o)
 .mdebug.abi32  0x00000000        0x0 /opt/microchip/xc32/v2.41/bin/bin/../../lib/gcc/pic32mx/4.8.3/../../../../pic32mx/lib/libpic32.a(errno.o)
 .mdebug.abi32  0x00000000        0x0 /opt/microchip/xc32/v2.41/bin/bin/../../lib/gcc/pic32mx/4.8.3/../../../../pic32mx/lib/libpic32.a(_mon_putc.o)
 .mdebug.abi32  0x00000000        0x0 /opt/microchip/xc32/v2.41/bin/bin/../../lib/gcc/pic32mx/4.8.3/../../../../pic32mx/lib/libpic32.a(xc32_uart.o)

.mdebug.abiN32
 *(.mdebug.abiN32)

.mdebug.abi64
 *(.mdebug.abi64)

.mdebug.abiO64
 *(.mdebug.abiO64)

.mdebug.eabi32
 *(.mdebug.eabi32)

.mdebug.eabi64
 *(.mdebug.eabi64)

.gcc_compiled_long32
 *(.gcc_compiled_long32)

.gcc_compiled_long64
 *(.gcc_compiled_long64)

.stab
 *(.stab)

.stabstr
 *(.stabstr)

.stab.excl
 *(.stab.excl)

.stab.exclstr
 *(.stab.exclstr)

.stab.index
 *(.stab.index)

.stab.indexstr
 *(.stab.indexstr)

.comment        0x00000000      0x105
 *(.comment)
 .comment       0x00000000       0x3c build/default/production/_ext/1650642999/imu.o
                                 0x3d (size before relaxing)
 .comment       0x00000000       0x3d build/default/production/_ext/1650642999/comms.o
 .comment       0x00000000       0x3d build/default/production/_ext/1650642999/tof.o
 .comment       0x00000000       0x3d build/default/production/_ext/1650642999/motors.o
 .comment       0x00000000       0x3d build/default/production/_ext/971049567/Quaternion.o
 .comment       0x00000000       0x3d build/default/production/_ext/971049567/Vector3D.o
 .comment       0x00000000       0x3d build/default/production/_ext/1360937237/main.o
 .comment       0x00000000       0x3d build/default/production/_ext/1360937237/app.o
 .comment       0x00000000       0x3d build/default/production/_ext/1360937237/mavlink_recv_task.o
 .comment       0x00000000       0x3d build/default/production/_ext/1360937237/mavlink_send_task.o
 .comment       0x00000000       0x3d build/default/production/_ext/1360937237/mavlink_status_task.o
 .comment       0x00000000       0x3d build/default/production/_ext/1360937237/att_controller_task.o
 .comment       0x00000000       0x3d build/default/production/_ext/443942460/PID.o
 .comment       0x00000000       0x3d build/default/production/_ext/1035051164/SixDOFQuadcopterModel.o
 .comment       0x00000000       0x3d build/default/production/_ext/1204493032/PositionEstimatorAltitude.o
 .comment       0x00000000       0x3d build/default/production/_ext/1204493032/SensFusion.o
 .comment       0x00000000       0x3d build/default/production/_ext/1204493032/ComplementaryFilter.o
 .comment       0x00000000       0x3d build/default/production/_ext/1204493032/AttitudeController.o
 .comment       0x00000000       0x3d build/default/production/_ext/149289479/MAVLinkSender.o
 .comment       0x00000000       0x3d build/default/production/_ext/149289479/MAVLinkHandler.o
 .comment       0x00000000       0x3d build/default/production/_ext/1715884449/AttitudeControllerTask.o
 .comment       0x00000000       0x3d build/default/production/_ext/1158199258/MAVLinkSendTask.o
 .comment       0x00000000       0x3d build/default/production/_ext/1158199258/MAVLinkRecvTask.o
 .comment       0x00000000       0x3d build/default/production/_ext/1315301415/TOFUpdateTask.o
 .comment       0x00000000       0x3d build/default/production/_ext/1315301415/MAVStatusTask.o
 .comment       0x00000000       0x3d build/default/production/_ext/1315301415/IMUUpdateTask.o
 .comment       0x00000000       0x3d build/default/production/_ext/1313821444/num.o
 .comment       0x00000000       0x3d build/default/production/_ext/1353086322/osal_freertos.o
 .comment       0x00000000       0x3d build/default/production/_ext/121284916/sys_devcon.o
 .comment       0x00000000       0x3d build/default/production/_ext/121284916/sys_devcon_pic32mz.o
 .comment       0x00000000       0x3d build/default/production/_ext/1317643790/sys_int_pic32.o
 .comment       0x00000000       0x3d build/default/production/_ext/1276567923/croutine.o
 .comment       0x00000000       0x3d build/default/production/_ext/1276567923/list.o
 .comment       0x00000000       0x3d build/default/production/_ext/1276567923/queue.o
 .comment       0x00000000       0x3d build/default/production/_ext/1276567923/tasks.o
 .comment       0x00000000       0x3d build/default/production/_ext/1276567923/timers.o
 .comment       0x00000000       0x3d build/default/production/_ext/1276567923/event_groups.o
 .comment       0x00000000       0x3d build/default/production/_ext/457403440/heap_1.o
 .comment       0x00000000       0x3d build/default/production/_ext/1571139743/port.o
 .comment       0x00000000       0x3d build/default/production/_ext/1047219354/drv_oc_mapping.o
 .comment       0x00000000       0x3d build/default/production/_ext/1047219354/drv_oc_static.o
 .comment       0x00000000       0x3d build/default/production/_ext/1407244131/drv_tmr_static.o
 .comment       0x00000000       0x3d build/default/production/_ext/1407244131/drv_tmr_mapping.o
 .comment       0x00000000       0x3d build/default/production/_ext/327000265/drv_usart_mapping.o
 .comment       0x00000000       0x3d build/default/production/_ext/327000265/drv_usart_static.o
 .comment       0x00000000       0x3d build/default/production/_ext/327000265/drv_usart_static_byte_model.o
 .comment       0x00000000       0x3d build/default/production/_ext/639803181/sys_clk_pic32mz.o
 .comment       0x00000000       0x3d build/default/production/_ext/822048611/sys_ports_static.o
 .comment       0x00000000       0x3d build/default/production/_ext/1688732426/system_init.o
 .comment       0x00000000       0x3d build/default/production/_ext/1688732426/system_interrupt.o
 .comment       0x00000000       0x3d build/default/production/_ext/1688732426/general_exception_handler.o
 .comment       0x00000000       0x3d build/default/production/_ext/1688732426/fassert.o
 .comment       0x00000000       0x3d build/default/production/_ext/1688732426/system_tasks.o
 .comment       0x00000000       0x3d build/default/production/_ext/1688732426/rtos_hooks.o
 .comment       0x00000000       0x3d /opt/microchip/xc32/v2.41/bin/bin/../../lib/gcc/pic32mx/4.8.3/libgcc.a(floatunsisf.o)
 .comment       0x0000003c       0x18 /opt/microchip/xc32/v2.41/bin/bin/../../lib/gcc/pic32mx/4.8.3/../../../../pic32mx/lib/libpic32.a(memcmp.o)
                                 0x19 (size before relaxing)
 .comment       0x00000054       0x18 /opt/microchip/xc32/v2.41/bin/bin/../../lib/gcc/pic32mx/4.8.3/../../../../pic32mx/lib/libpic32.a(memset.o)
                                 0x19 (size before relaxing)
 .comment       0x00000000       0x3d /opt/microchip/xc32/v2.41/bin/bin/../../lib/gcc/pic32mx/4.8.3/../../../../pic32mx/lib/libpic32.a(default-bootstrap-exception-handler.o)
 .comment       0x00000000       0x3d /opt/microchip/xc32/v2.41/bin/bin/../../lib/gcc/pic32mx/4.8.3/../../../../pic32mx/lib/libpic32.a(default-on-reset.o)
 .comment       0x00000000       0x3d /opt/microchip/xc32/v2.41/bin/bin/../../lib/gcc/pic32mx/4.8.3/../../../../pic32mx/lib/libpic32.a(default-on-bootstrap.o)
 .comment       0x00000000       0x3d /opt/microchip/xc32/v2.41/bin/bin/../../lib/gcc/pic32mx/4.8.3/../../../../pic32mx/lib/libpic32.a(defaultinterrupt.o)
 .comment       0x00000000       0x3d /opt/microchip/xc32/v2.41/bin/bin/../../lib/gcc/pic32mx/4.8.3/../../../../pic32mx/lib/libpic32.a(default-cache-err-exception-handler.o)
 .comment       0x00000000       0x3d /opt/microchip/xc32/v2.41/bin/bin/../../lib/gcc/pic32mx/4.8.3/../../../../pic32mx/lib/libpic32.a(default-simple-tlb-refill-exception-handler.o)
 .comment       0x00000000       0x3d /opt/microchip/xc32/v2.41/bin/bin/../../lib/gcc/pic32mx/4.8.3/../../../../pic32mx/lib/libc.a(malloc.o)
 .comment       0x00000000       0x3d /opt/microchip/xc32/v2.41/bin/bin/../../lib/gcc/pic32mx/4.8.3/../../../../pic32mx/lib/libc.a(puts.o)
 .comment       0x00000000       0x3d /opt/microchip/xc32/v2.41/bin/bin/../../lib/gcc/pic32mx/4.8.3/../../../../pic32mx/lib/libc.a(strcat.o)
 .comment       0x00000000       0x3d /opt/microchip/xc32/v2.41/bin/bin/../../lib/gcc/pic32mx/4.8.3/../../../../pic32mx/lib/libc.a(sprintf_cdnopuxX.eo)
 .comment       0x00000000       0x3d /opt/microchip/xc32/v2.41/bin/bin/../../lib/gcc/pic32mx/4.8.3/../../../../pic32mx/lib/libc.a(_iob.o)
 .comment       0x00000000       0x3d /opt/microchip/xc32/v2.41/bin/bin/../../lib/gcc/pic32mx/4.8.3/../../../../pic32mx/lib/libc.a(_fputc_simple.o)
 .comment       0x00000000       0x3d /opt/microchip/xc32/v2.41/bin/bin/../../lib/gcc/pic32mx/4.8.3/../../../../pic32mx/lib/libc.a(doprnt_cdnopuxX.eo)
 .comment       0x00000000       0x3d /opt/microchip/xc32/v2.41/bin/bin/../../lib/gcc/pic32mx/4.8.3/../../../../pic32mx/lib/libc.a(_flsbuf_simple.o)
 .comment       0x0000006c       0x4e /opt/microchip/xc32/v2.41/bin/bin/../../lib/gcc/pic32mx/4.8.3/../../../../pic32mx/lib/libc.a(ctype.o)
                                 0x8b (size before relaxing)
 .comment       0x00000000       0x3d /opt/microchip/xc32/v2.41/bin/bin/../../lib/gcc/pic32mx/4.8.3/../../../../pic32mx/lib/libm.a(w_asinf.o)
 .comment       0x00000000       0x3d /opt/microchip/xc32/v2.41/bin/bin/../../lib/gcc/pic32mx/4.8.3/../../../../pic32mx/lib/libm.a(w_atan2f.o)
 .comment       0x00000000       0x3d /opt/microchip/xc32/v2.41/bin/bin/../../lib/gcc/pic32mx/4.8.3/../../../../pic32mx/lib/libm.a(support.o)
 .comment       0x00000000       0x3d /opt/microchip/xc32/v2.41/bin/bin/../../lib/gcc/pic32mx/4.8.3/../../../../pic32mx/lib/libm.a(s_lib_ver.o)
 .comment       0x00000000       0x3d /opt/microchip/xc32/v2.41/bin/bin/../../lib/gcc/pic32mx/4.8.3/libgcc.a(_udivdi3.o)
 .comment       0x00000000       0x3d /opt/microchip/xc32/v2.41/bin/bin/../../lib/gcc/pic32mx/4.8.3/libgcc.a(_umoddi3.o)
 .comment       0x000000ba       0x4b /opt/microchip/xc32/v2.41/bin/bin/../../lib/gcc/pic32mx/4.8.3/../../../../pic32mx/lib/libpic32.a(sbrk.o)
                                 0x88 (size before relaxing)
 .comment       0x00000000       0x3d /opt/microchip/xc32/v2.41/bin/bin/../../lib/gcc/pic32mx/4.8.3/../../../../pic32mx/lib/libpic32.a(write.o)
 .comment       0x00000000       0x3d /opt/microchip/xc32/v2.41/bin/bin/../../lib/gcc/pic32mx/4.8.3/../../../../pic32mx/lib/libpic32.a(errno.o)
 .comment       0x00000000       0x3d /opt/microchip/xc32/v2.41/bin/bin/../../lib/gcc/pic32mx/4.8.3/../../../../pic32mx/lib/libpic32.a(_mon_putc.o)
 .comment       0x00000000       0x3d /opt/microchip/xc32/v2.41/bin/bin/../../lib/gcc/pic32mx/4.8.3/../../../../pic32mx/lib/libpic32.a(xc32_uart.o)

.debug
 *.elf(.debug)
 *(.debug)

.line
 *.elf(.line)
 *(.line)

.debug_srcinfo
 *.elf(.debug_srcinfo)
 *(.debug_srcinfo)

.debug_sfnames
 *.elf(.debug_sfnames)
 *(.debug_sfnames)

.debug_aranges  0x00000000     0x15b0
 *.elf(.debug_aranges)
 *(.debug_aranges)
 .debug_aranges
                0x00000000       0x50 build/default/production/_ext/1650642999/imu.o
 .debug_aranges
                0x00000050       0x38 build/default/production/_ext/1650642999/comms.o
 .debug_aranges
                0x00000088       0x48 build/default/production/_ext/1650642999/tof.o
 .debug_aranges
                0x000000d0       0x18 build/default/production/_ext/1650642999/motors.o
 .debug_aranges
                0x000000e8       0x28 build/default/production/_ext/971049567/Quaternion.o
 .debug_aranges
                0x00000110       0x18 build/default/production/_ext/971049567/Vector3D.o
 .debug_aranges
                0x00000128       0x20 build/default/production/_ext/1360937237/main.o
 .debug_aranges
                0x00000148       0x28 build/default/production/_ext/1360937237/app.o
 .debug_aranges
                0x00000170       0x28 build/default/production/_ext/1360937237/mavlink_recv_task.o
 .debug_aranges
                0x00000198       0x28 build/default/production/_ext/1360937237/mavlink_send_task.o
 .debug_aranges
                0x000001c0       0x28 build/default/production/_ext/1360937237/mavlink_status_task.o
 .debug_aranges
                0x000001e8       0x28 build/default/production/_ext/1360937237/att_controller_task.o
 .debug_aranges
                0x00000210       0x20 build/default/production/_ext/443942460/PID.o
 .debug_aranges
                0x00000230       0x28 build/default/production/_ext/1035051164/SixDOFQuadcopterModel.o
 .debug_aranges
                0x00000258       0x28 build/default/production/_ext/1204493032/PositionEstimatorAltitude.o
 .debug_aranges
                0x00000280       0x30 build/default/production/_ext/1204493032/SensFusion.o
 .debug_aranges
                0x000002b0       0x20 build/default/production/_ext/1204493032/ComplementaryFilter.o
 .debug_aranges
                0x000002d0       0x20 build/default/production/_ext/1204493032/AttitudeController.o
 .debug_aranges
                0x000002f0       0x20 build/default/production/_ext/149289479/MAVLinkSender.o
 .debug_aranges
                0x00000310       0x30 build/default/production/_ext/149289479/MAVLinkHandler.o
 .debug_aranges
                0x00000340       0x30 build/default/production/_ext/1715884449/AttitudeControllerTask.o
 .debug_aranges
                0x00000370       0x30 build/default/production/_ext/1158199258/MAVLinkSendTask.o
 .debug_aranges
                0x000003a0       0x30 build/default/production/_ext/1158199258/MAVLinkRecvTask.o
 .debug_aranges
                0x000003d0       0x20 build/default/production/_ext/1315301415/TOFUpdateTask.o
 .debug_aranges
                0x000003f0       0x30 build/default/production/_ext/1315301415/MAVStatusTask.o
 .debug_aranges
                0x00000420       0x20 build/default/production/_ext/1315301415/IMUUpdateTask.o
 .debug_aranges
                0x00000440       0x28 build/default/production/_ext/1313821444/num.o
 .debug_aranges
                0x00000468       0x88 build/default/production/_ext/1353086322/osal_freertos.o
 .debug_aranges
                0x000004f0       0x78 build/default/production/_ext/121284916/sys_devcon.o
 .debug_aranges
                0x00000568       0xc8 build/default/production/_ext/121284916/sys_devcon_pic32mz.o
 .debug_aranges
                0x00000630       0x48 build/default/production/_ext/1317643790/sys_int_pic32.o
 .debug_aranges
                0x00000678       0x18 build/default/production/_ext/1276567923/croutine.o
 .debug_aranges
                0x00000690       0x40 build/default/production/_ext/1276567923/list.o
 .debug_aranges
                0x000006d0       0xd8 build/default/production/_ext/1276567923/queue.o
 .debug_aranges
                0x000007a8      0x158 build/default/production/_ext/1276567923/tasks.o
 .debug_aranges
                0x00000900       0x18 build/default/production/_ext/1276567923/timers.o
 .debug_aranges
                0x00000918       0x60 build/default/production/_ext/1276567923/event_groups.o
 .debug_aranges
                0x00000978       0x38 build/default/production/_ext/457403440/heap_1.o
 .debug_aranges
                0x000009b0       0x58 build/default/production/_ext/1571139743/port.o
 .debug_aranges
                0x00000a08       0x30 build/default/production/_ext/1571139743/port_asm.o
 .debug_aranges
                0x00000a38       0x50 build/default/production/_ext/1047219354/drv_oc_mapping.o
 .debug_aranges
                0x00000a88       0xf8 build/default/production/_ext/1047219354/drv_oc_static.o
 .debug_aranges
                0x00000b80       0x90 build/default/production/_ext/1407244131/drv_tmr_static.o
 .debug_aranges
                0x00000c10       0xe8 build/default/production/_ext/1407244131/drv_tmr_mapping.o
 .debug_aranges
                0x00000cf8       0xb0 build/default/production/_ext/327000265/drv_usart_mapping.o
 .debug_aranges
                0x00000da8       0xf8 build/default/production/_ext/327000265/drv_usart_static.o
 .debug_aranges
                0x00000ea0       0x78 build/default/production/_ext/327000265/drv_usart_static_byte_model.o
 .debug_aranges
                0x00000f18       0x50 build/default/production/_ext/639803181/sys_clk_pic32mz.o
 .debug_aranges
                0x00000f68      0x148 build/default/production/_ext/822048611/sys_ports_static.o
 .debug_aranges
                0x000010b0       0x20 build/default/production/_ext/1688732426/system_init.o
 .debug_aranges
                0x000010d0       0x50 build/default/production/_ext/1688732426/system_interrupt.o
 .debug_aranges
                0x00001120       0x20 build/default/production/_ext/1688732426/general_exception_handler.o
 .debug_aranges
                0x00001140       0x20 build/default/production/_ext/1688732426/general-exception-context.o
 .debug_aranges
                0x00001160       0x20 build/default/production/_ext/1688732426/fassert.o
 .debug_aranges
                0x00001180       0x50 build/default/production/_ext/1688732426/system_tasks.o
 .debug_aranges
                0x000011d0       0x50 build/default/production/_ext/1688732426/system_interrupt_a.o
 .debug_aranges
                0x00001220       0x40 build/default/production/_ext/1688732426/rtos_hooks.o
 .debug_aranges
                0x00001260       0x20 /opt/microchip/xc32/v2.41/bin/bin/../../lib/gcc/pic32mx/4.8.3/libgcc.a(floatunsisf.o)
 .debug_aranges
                0x00001280       0x20 /opt/microchip/xc32/v2.41/bin/bin/../../lib/gcc/pic32mx/4.8.3/../../../../pic32mx/lib/libpic32.a(default-bootstrap-exception-handler.o)
 .debug_aranges
                0x000012a0       0x20 /opt/microchip/xc32/v2.41/bin/bin/../../lib/gcc/pic32mx/4.8.3/../../../../pic32mx/lib/libpic32.a(default-on-reset.o)
 .debug_aranges
                0x000012c0       0x20 /opt/microchip/xc32/v2.41/bin/bin/../../lib/gcc/pic32mx/4.8.3/../../../../pic32mx/lib/libpic32.a(default-on-bootstrap.o)
 .debug_aranges
                0x000012e0       0x20 /opt/microchip/xc32/v2.41/bin/bin/../../lib/gcc/pic32mx/4.8.3/../../../../pic32mx/lib/libpic32.a(defaultinterrupt.o)
 .debug_aranges
                0x00001300       0x20 /opt/microchip/xc32/v2.41/bin/bin/../../lib/gcc/pic32mx/4.8.3/../../../../pic32mx/lib/libpic32.a(default-cache-err-exception-handler.o)
 .debug_aranges
                0x00001320       0x20 /opt/microchip/xc32/v2.41/bin/bin/../../lib/gcc/pic32mx/4.8.3/../../../../pic32mx/lib/libpic32.a(default-simple-tlb-refill-exception-handler.o)
 .debug_aranges
                0x00001340       0x30 /opt/microchip/xc32/v2.41/bin/bin/../../lib/gcc/pic32mx/4.8.3/../../../../pic32mx/lib/libc.a(malloc.o)
 .debug_aranges
                0x00001370       0x28 /opt/microchip/xc32/v2.41/bin/bin/../../lib/gcc/pic32mx/4.8.3/../../../../pic32mx/lib/libc.a(puts.o)
 .debug_aranges
                0x00001398       0x20 /opt/microchip/xc32/v2.41/bin/bin/../../lib/gcc/pic32mx/4.8.3/../../../../pic32mx/lib/libc.a(strcat.o)
 .debug_aranges
                0x000013b8       0x20 /opt/microchip/xc32/v2.41/bin/bin/../../lib/gcc/pic32mx/4.8.3/../../../../pic32mx/lib/libc.a(sprintf_cdnopuxX.eo)
 .debug_aranges
                0x000013d8       0x20 /opt/microchip/xc32/v2.41/bin/bin/../../lib/gcc/pic32mx/4.8.3/../../../../pic32mx/lib/libc.a(_fputc_simple.o)
 .debug_aranges
                0x000013f8       0x20 /opt/microchip/xc32/v2.41/bin/bin/../../lib/gcc/pic32mx/4.8.3/../../../../pic32mx/lib/libc.a(doprnt_cdnopuxX.eo)
 .debug_aranges
                0x00001418       0x20 /opt/microchip/xc32/v2.41/bin/bin/../../lib/gcc/pic32mx/4.8.3/../../../../pic32mx/lib/libc.a(_flsbuf_simple.o)
 .debug_aranges
                0x00001438       0x20 /opt/microchip/xc32/v2.41/bin/bin/../../lib/gcc/pic32mx/4.8.3/../../../../pic32mx/lib/libm.a(w_asinf.o)
 .debug_aranges
                0x00001458       0x20 /opt/microchip/xc32/v2.41/bin/bin/../../lib/gcc/pic32mx/4.8.3/../../../../pic32mx/lib/libm.a(w_atan2f.o)
 .debug_aranges
                0x00001478       0x78 /opt/microchip/xc32/v2.41/bin/bin/../../lib/gcc/pic32mx/4.8.3/../../../../pic32mx/lib/libm.a(support.o)
 .debug_aranges
                0x000014f0       0x20 /opt/microchip/xc32/v2.41/bin/bin/../../lib/gcc/pic32mx/4.8.3/libgcc.a(_udivdi3.o)
 .debug_aranges
                0x00001510       0x20 /opt/microchip/xc32/v2.41/bin/bin/../../lib/gcc/pic32mx/4.8.3/libgcc.a(_umoddi3.o)
 .debug_aranges
                0x00001530       0x40 /opt/microchip/xc32/v2.41/bin/bin/../../lib/gcc/pic32mx/4.8.3/../../../../pic32mx/lib/libpic32.a(sbrk.o)
 .debug_aranges
                0x00001570       0x20 /opt/microchip/xc32/v2.41/bin/bin/../../lib/gcc/pic32mx/4.8.3/../../../../pic32mx/lib/libpic32.a(write.o)
 .debug_aranges
                0x00001590       0x20 /opt/microchip/xc32/v2.41/bin/bin/../../lib/gcc/pic32mx/4.8.3/../../../../pic32mx/lib/libpic32.a(_mon_putc.o)

.debug_pubnames
 *.elf(.debug_pubnames)
 *(.debug_pubnames)

.debug_info     0x00000000    0x42129
 *.elf(.debug_info .gnu.linkonce.wi.*)
 *(.debug_info .gnu.linkonce.wi.*)
 .debug_info    0x00000000      0x51f build/default/production/_ext/1650642999/imu.o
 .debug_info    0x0000051f     0x31ae build/default/production/_ext/1650642999/comms.o
 .debug_info    0x000036cd      0x4f0 build/default/production/_ext/1650642999/tof.o
 .debug_info    0x00003bbd      0x1d5 build/default/production/_ext/1650642999/motors.o
 .debug_info    0x00003d92      0x59e build/default/production/_ext/971049567/Quaternion.o
 .debug_info    0x00004330       0xbe build/default/production/_ext/971049567/Vector3D.o
 .debug_info    0x000043ee      0x1b6 build/default/production/_ext/1360937237/main.o
 .debug_info    0x000045a4      0xc70 build/default/production/_ext/1360937237/app.o
 .debug_info    0x00005214      0xb6a build/default/production/_ext/1360937237/mavlink_recv_task.o
 .debug_info    0x00005d7e      0xb09 build/default/production/_ext/1360937237/mavlink_send_task.o
 .debug_info    0x00006887      0x9ef build/default/production/_ext/1360937237/mavlink_status_task.o
 .debug_info    0x00007276      0xb16 build/default/production/_ext/1360937237/att_controller_task.o
 .debug_info    0x00007d8c      0x288 build/default/production/_ext/443942460/PID.o
 .debug_info    0x00008014      0x8e3 build/default/production/_ext/1035051164/SixDOFQuadcopterModel.o
 .debug_info    0x000088f7      0x942 build/default/production/_ext/1204493032/PositionEstimatorAltitude.o
 .debug_info    0x00009239      0x467 build/default/production/_ext/1204493032/SensFusion.o
 .debug_info    0x000096a0      0x68a build/default/production/_ext/1204493032/ComplementaryFilter.o
 .debug_info    0x00009d2a      0x63f build/default/production/_ext/1204493032/AttitudeController.o
 .debug_info    0x0000a369      0x451 build/default/production/_ext/149289479/MAVLinkSender.o
 .debug_info    0x0000a7ba     0x42bf build/default/production/_ext/149289479/MAVLinkHandler.o
 .debug_info    0x0000ea79      0x7d3 build/default/production/_ext/1715884449/AttitudeControllerTask.o
 .debug_info    0x0000f24c      0x7b8 build/default/production/_ext/1158199258/MAVLinkSendTask.o
 .debug_info    0x0000fa04      0xb33 build/default/production/_ext/1158199258/MAVLinkRecvTask.o
 .debug_info    0x00010537      0x2af build/default/production/_ext/1315301415/TOFUpdateTask.o
 .debug_info    0x000107e6     0x1f28 build/default/production/_ext/1315301415/MAVStatusTask.o
 .debug_info    0x0001270e      0x2af build/default/production/_ext/1315301415/IMUUpdateTask.o
 .debug_info    0x000129bd      0x14d build/default/production/_ext/1313821444/num.o
 .debug_info    0x00012b0a      0xa46 build/default/production/_ext/1353086322/osal_freertos.o
 .debug_info    0x00013550     0x1560 build/default/production/_ext/121284916/sys_devcon.o
 .debug_info    0x00014ab0     0x126b build/default/production/_ext/121284916/sys_devcon_pic32mz.o
 .debug_info    0x00015d1b     0x1d1a build/default/production/_ext/1317643790/sys_int_pic32.o
 .debug_info    0x00017a35      0x196 build/default/production/_ext/1276567923/croutine.o
 .debug_info    0x00017bcb      0x499 build/default/production/_ext/1276567923/list.o
 .debug_info    0x00018064     0x1f3e build/default/production/_ext/1276567923/queue.o
 .debug_info    0x00019fa2     0x24a0 build/default/production/_ext/1276567923/tasks.o
 .debug_info    0x0001c442      0x194 build/default/production/_ext/1276567923/timers.o
 .debug_info    0x0001c5d6      0xd6c build/default/production/_ext/1276567923/event_groups.o
 .debug_info    0x0001d342      0x39c build/default/production/_ext/457403440/heap_1.o
 .debug_info    0x0001d6de      0xe87 build/default/production/_ext/1571139743/port.o
 .debug_info    0x0001e565       0xe0 build/default/production/_ext/1571139743/port_asm.o
 .debug_info    0x0001e645      0xf10 build/default/production/_ext/1047219354/drv_oc_mapping.o
 .debug_info    0x0001f555     0x1d9e build/default/production/_ext/1047219354/drv_oc_static.o
 .debug_info    0x000212f3     0x4fa9 build/default/production/_ext/1407244131/drv_tmr_static.o
 .debug_info    0x0002629c     0x1682 build/default/production/_ext/1407244131/drv_tmr_mapping.o
 .debug_info    0x0002791e     0x1ccf build/default/production/_ext/327000265/drv_usart_mapping.o
 .debug_info    0x000295ed     0x56ea build/default/production/_ext/327000265/drv_usart_static.o
 .debug_info    0x0002ecd7     0x2cb7 build/default/production/_ext/327000265/drv_usart_static_byte_model.o
 .debug_info    0x0003198e     0x1cad build/default/production/_ext/639803181/sys_clk_pic32mz.o
 .debug_info    0x0003363b     0x5adf build/default/production/_ext/822048611/sys_ports_static.o
 .debug_info    0x0003911a     0x289a build/default/production/_ext/1688732426/system_init.o
 .debug_info    0x0003b9b4     0x1e84 build/default/production/_ext/1688732426/system_interrupt.o
 .debug_info    0x0003d838      0xd18 build/default/production/_ext/1688732426/general_exception_handler.o
 .debug_info    0x0003e550       0xb3 build/default/production/_ext/1688732426/general-exception-context.o
 .debug_info    0x0003e603      0x876 build/default/production/_ext/1688732426/fassert.o
 .debug_info    0x0003ee79      0xd72 build/default/production/_ext/1688732426/system_tasks.o
 .debug_info    0x0003fbeb       0xa8 build/default/production/_ext/1688732426/system_interrupt_a.o
 .debug_info    0x0003fc93      0x353 build/default/production/_ext/1688732426/rtos_hooks.o
 .debug_info    0x0003ffe6      0x129 /opt/microchip/xc32/v2.41/bin/bin/../../lib/gcc/pic32mx/4.8.3/libgcc.a(floatunsisf.o)
 .debug_info    0x0004010f       0xf4 /opt/microchip/xc32/v2.41/bin/bin/../../lib/gcc/pic32mx/4.8.3/../../../../pic32mx/lib/libpic32.a(default-bootstrap-exception-handler.o)
 .debug_info    0x00040203       0xcd /opt/microchip/xc32/v2.41/bin/bin/../../lib/gcc/pic32mx/4.8.3/../../../../pic32mx/lib/libpic32.a(default-on-reset.o)
 .debug_info    0x000402d0       0xd5 /opt/microchip/xc32/v2.41/bin/bin/../../lib/gcc/pic32mx/4.8.3/../../../../pic32mx/lib/libpic32.a(default-on-bootstrap.o)
 .debug_info    0x000403a5       0xe7 /opt/microchip/xc32/v2.41/bin/bin/../../lib/gcc/pic32mx/4.8.3/../../../../pic32mx/lib/libpic32.a(defaultinterrupt.o)
 .debug_info    0x0004048c       0xf4 /opt/microchip/xc32/v2.41/bin/bin/../../lib/gcc/pic32mx/4.8.3/../../../../pic32mx/lib/libpic32.a(default-cache-err-exception-handler.o)
 .debug_info    0x00040580      0x104 /opt/microchip/xc32/v2.41/bin/bin/../../lib/gcc/pic32mx/4.8.3/../../../../pic32mx/lib/libpic32.a(default-simple-tlb-refill-exception-handler.o)
 .debug_info    0x00040684       0xf5 /opt/microchip/xc32/v2.41/bin/bin/../../lib/gcc/pic32mx/4.8.3/../../../../pic32mx/lib/libc.a(malloc.o)
 .debug_info    0x00040779       0xd5 /opt/microchip/xc32/v2.41/bin/bin/../../lib/gcc/pic32mx/4.8.3/../../../../pic32mx/lib/libc.a(puts.o)
 .debug_info    0x0004084e       0xc4 /opt/microchip/xc32/v2.41/bin/bin/../../lib/gcc/pic32mx/4.8.3/../../../../pic32mx/lib/libc.a(strcat.o)
 .debug_info    0x00040912       0xd0 /opt/microchip/xc32/v2.41/bin/bin/../../lib/gcc/pic32mx/4.8.3/../../../../pic32mx/lib/libc.a(sprintf_cdnopuxX.eo)
 .debug_info    0x000409e2       0xc2 /opt/microchip/xc32/v2.41/bin/bin/../../lib/gcc/pic32mx/4.8.3/../../../../pic32mx/lib/libc.a(_fputc_simple.o)
 .debug_info    0x00040aa4       0xd1 /opt/microchip/xc32/v2.41/bin/bin/../../lib/gcc/pic32mx/4.8.3/../../../../pic32mx/lib/libc.a(doprnt_cdnopuxX.eo)
 .debug_info    0x00040b75       0xc5 /opt/microchip/xc32/v2.41/bin/bin/../../lib/gcc/pic32mx/4.8.3/../../../../pic32mx/lib/libc.a(_flsbuf_simple.o)
 .debug_info    0x00040c3a       0xbe /opt/microchip/xc32/v2.41/bin/bin/../../lib/gcc/pic32mx/4.8.3/../../../../pic32mx/lib/libm.a(w_asinf.o)
 .debug_info    0x00040cf8       0xce /opt/microchip/xc32/v2.41/bin/bin/../../lib/gcc/pic32mx/4.8.3/../../../../pic32mx/lib/libm.a(w_atan2f.o)
 .debug_info    0x00040dc6      0x1d9 /opt/microchip/xc32/v2.41/bin/bin/../../lib/gcc/pic32mx/4.8.3/../../../../pic32mx/lib/libm.a(support.o)
 .debug_info    0x00040f9f      0x74b /opt/microchip/xc32/v2.41/bin/bin/../../lib/gcc/pic32mx/4.8.3/libgcc.a(_udivdi3.o)
 .debug_info    0x000416ea      0x788 /opt/microchip/xc32/v2.41/bin/bin/../../lib/gcc/pic32mx/4.8.3/libgcc.a(_umoddi3.o)
 .debug_info    0x00041e72      0x131 /opt/microchip/xc32/v2.41/bin/bin/../../lib/gcc/pic32mx/4.8.3/../../../../pic32mx/lib/libpic32.a(sbrk.o)
 .debug_info    0x00041fa3       0xbf /opt/microchip/xc32/v2.41/bin/bin/../../lib/gcc/pic32mx/4.8.3/../../../../pic32mx/lib/libpic32.a(write.o)
 .debug_info    0x00042062       0xc7 /opt/microchip/xc32/v2.41/bin/bin/../../lib/gcc/pic32mx/4.8.3/../../../../pic32mx/lib/libpic32.a(_mon_putc.o)

.debug_abbrev   0x00000000     0x6391
 *.elf(.debug_abbrev)
 *(.debug_abbrev)
 .debug_abbrev  0x00000000      0x121 build/default/production/_ext/1650642999/imu.o
 .debug_abbrev  0x00000121      0x41d build/default/production/_ext/1650642999/comms.o
 .debug_abbrev  0x0000053e      0x148 build/default/production/_ext/1650642999/tof.o
 .debug_abbrev  0x00000686       0x4e build/default/production/_ext/1650642999/motors.o
 .debug_abbrev  0x000006d4      0x106 build/default/production/_ext/971049567/Quaternion.o
 .debug_abbrev  0x000007da       0x1b build/default/production/_ext/971049567/Vector3D.o
 .debug_abbrev  0x000007f5       0x93 build/default/production/_ext/1360937237/main.o
 .debug_abbrev  0x00000888      0x172 build/default/production/_ext/1360937237/app.o
 .debug_abbrev  0x000009fa      0x161 build/default/production/_ext/1360937237/mavlink_recv_task.o
 .debug_abbrev  0x00000b5b      0x1b4 build/default/production/_ext/1360937237/mavlink_send_task.o
 .debug_abbrev  0x00000d0f      0x187 build/default/production/_ext/1360937237/mavlink_status_task.o
 .debug_abbrev  0x00000e96      0x116 build/default/production/_ext/1360937237/att_controller_task.o
 .debug_abbrev  0x00000fac       0x9e build/default/production/_ext/443942460/PID.o
 .debug_abbrev  0x0000104a      0x18a build/default/production/_ext/1035051164/SixDOFQuadcopterModel.o
 .debug_abbrev  0x000011d4      0x18e build/default/production/_ext/1204493032/PositionEstimatorAltitude.o
 .debug_abbrev  0x00001362       0xe6 build/default/production/_ext/1204493032/SensFusion.o
 .debug_abbrev  0x00001448       0xe2 build/default/production/_ext/1204493032/ComplementaryFilter.o
 .debug_abbrev  0x0000152a      0x117 build/default/production/_ext/1204493032/AttitudeController.o
 .debug_abbrev  0x00001641      0x109 build/default/production/_ext/149289479/MAVLinkSender.o
 .debug_abbrev  0x0000174a      0x3e2 build/default/production/_ext/149289479/MAVLinkHandler.o
 .debug_abbrev  0x00001b2c      0x167 build/default/production/_ext/1715884449/AttitudeControllerTask.o
 .debug_abbrev  0x00001c93      0x1ff build/default/production/_ext/1158199258/MAVLinkSendTask.o
 .debug_abbrev  0x00001e92      0x1b7 build/default/production/_ext/1158199258/MAVLinkRecvTask.o
 .debug_abbrev  0x00002049       0xe7 build/default/production/_ext/1315301415/TOFUpdateTask.o
 .debug_abbrev  0x00002130      0x167 build/default/production/_ext/1315301415/MAVStatusTask.o
 .debug_abbrev  0x00002297       0xe7 build/default/production/_ext/1315301415/IMUUpdateTask.o
 .debug_abbrev  0x0000237e       0x66 build/default/production/_ext/1313821444/num.o
 .debug_abbrev  0x000023e4      0x1fe build/default/production/_ext/1353086322/osal_freertos.o
 .debug_abbrev  0x000025e2      0x2bb build/default/production/_ext/121284916/sys_devcon.o
 .debug_abbrev  0x0000289d      0x290 build/default/production/_ext/121284916/sys_devcon_pic32mz.o
 .debug_abbrev  0x00002b2d      0x223 build/default/production/_ext/1317643790/sys_int_pic32.o
 .debug_abbrev  0x00002d50       0x1b build/default/production/_ext/1276567923/croutine.o
 .debug_abbrev  0x00002d6b       0xf8 build/default/production/_ext/1276567923/list.o
 .debug_abbrev  0x00002e63      0x34a build/default/production/_ext/1276567923/queue.o
 .debug_abbrev  0x000031ad      0x39c build/default/production/_ext/1276567923/tasks.o
 .debug_abbrev  0x00003549       0x1b build/default/production/_ext/1276567923/timers.o
 .debug_abbrev  0x00003564      0x27d build/default/production/_ext/1276567923/event_groups.o
 .debug_abbrev  0x000037e1      0x13f build/default/production/_ext/457403440/heap_1.o
 .debug_abbrev  0x00003920      0x27b build/default/production/_ext/1571139743/port.o
 .debug_abbrev  0x00003b9b       0x12 build/default/production/_ext/1571139743/port_asm.o
 .debug_abbrev  0x00003bad      0x1b7 build/default/production/_ext/1047219354/drv_oc_mapping.o
 .debug_abbrev  0x00003d64      0x1e7 build/default/production/_ext/1047219354/drv_oc_static.o
 .debug_abbrev  0x00003f4b      0x384 build/default/production/_ext/1407244131/drv_tmr_static.o
 .debug_abbrev  0x000042cf      0x2b6 build/default/production/_ext/1407244131/drv_tmr_mapping.o
 .debug_abbrev  0x00004585      0x231 build/default/production/_ext/327000265/drv_usart_mapping.o
 .debug_abbrev  0x000047b6      0x47c build/default/production/_ext/327000265/drv_usart_static.o
 .debug_abbrev  0x00004c32      0x2fd build/default/production/_ext/327000265/drv_usart_static_byte_model.o
 .debug_abbrev  0x00004f2f      0x280 build/default/production/_ext/639803181/sys_clk_pic32mz.o
 .debug_abbrev  0x000051af      0x2c9 build/default/production/_ext/822048611/sys_ports_static.o
 .debug_abbrev  0x00005478      0x28e build/default/production/_ext/1688732426/system_init.o
 .debug_abbrev  0x00005706      0x1a9 build/default/production/_ext/1688732426/system_interrupt.o
 .debug_abbrev  0x000058af      0x105 build/default/production/_ext/1688732426/general_exception_handler.o
 .debug_abbrev  0x000059b4       0x14 build/default/production/_ext/1688732426/general-exception-context.o
 .debug_abbrev  0x000059c8       0xc2 build/default/production/_ext/1688732426/fassert.o
 .debug_abbrev  0x00005a8a      0x188 build/default/production/_ext/1688732426/system_tasks.o
 .debug_abbrev  0x00005c12       0x12 build/default/production/_ext/1688732426/system_interrupt_a.o
 .debug_abbrev  0x00005c24       0xdf build/default/production/_ext/1688732426/rtos_hooks.o
 .debug_abbrev  0x00005d03       0x62 /opt/microchip/xc32/v2.41/bin/bin/../../lib/gcc/pic32mx/4.8.3/libgcc.a(floatunsisf.o)
 .debug_abbrev  0x00005d65       0x28 /opt/microchip/xc32/v2.41/bin/bin/../../lib/gcc/pic32mx/4.8.3/../../../../pic32mx/lib/libpic32.a(default-bootstrap-exception-handler.o)
 .debug_abbrev  0x00005d8d       0x28 /opt/microchip/xc32/v2.41/bin/bin/../../lib/gcc/pic32mx/4.8.3/../../../../pic32mx/lib/libpic32.a(default-on-reset.o)
 .debug_abbrev  0x00005db5       0x28 /opt/microchip/xc32/v2.41/bin/bin/../../lib/gcc/pic32mx/4.8.3/../../../../pic32mx/lib/libpic32.a(default-on-bootstrap.o)
 .debug_abbrev  0x00005ddd       0x28 /opt/microchip/xc32/v2.41/bin/bin/../../lib/gcc/pic32mx/4.8.3/../../../../pic32mx/lib/libpic32.a(defaultinterrupt.o)
 .debug_abbrev  0x00005e05       0x28 /opt/microchip/xc32/v2.41/bin/bin/../../lib/gcc/pic32mx/4.8.3/../../../../pic32mx/lib/libpic32.a(default-cache-err-exception-handler.o)
 .debug_abbrev  0x00005e2d       0x28 /opt/microchip/xc32/v2.41/bin/bin/../../lib/gcc/pic32mx/4.8.3/../../../../pic32mx/lib/libpic32.a(default-simple-tlb-refill-exception-handler.o)
 .debug_abbrev  0x00005e55       0x47 /opt/microchip/xc32/v2.41/bin/bin/../../lib/gcc/pic32mx/4.8.3/../../../../pic32mx/lib/libc.a(malloc.o)
 .debug_abbrev  0x00005e9c       0x28 /opt/microchip/xc32/v2.41/bin/bin/../../lib/gcc/pic32mx/4.8.3/../../../../pic32mx/lib/libc.a(puts.o)
 .debug_abbrev  0x00005ec4       0x28 /opt/microchip/xc32/v2.41/bin/bin/../../lib/gcc/pic32mx/4.8.3/../../../../pic32mx/lib/libc.a(strcat.o)
 .debug_abbrev  0x00005eec       0x28 /opt/microchip/xc32/v2.41/bin/bin/../../lib/gcc/pic32mx/4.8.3/../../../../pic32mx/lib/libc.a(sprintf_cdnopuxX.eo)
 .debug_abbrev  0x00005f14       0x28 /opt/microchip/xc32/v2.41/bin/bin/../../lib/gcc/pic32mx/4.8.3/../../../../pic32mx/lib/libc.a(_fputc_simple.o)
 .debug_abbrev  0x00005f3c       0x28 /opt/microchip/xc32/v2.41/bin/bin/../../lib/gcc/pic32mx/4.8.3/../../../../pic32mx/lib/libc.a(doprnt_cdnopuxX.eo)
 .debug_abbrev  0x00005f64       0x28 /opt/microchip/xc32/v2.41/bin/bin/../../lib/gcc/pic32mx/4.8.3/../../../../pic32mx/lib/libc.a(_flsbuf_simple.o)
 .debug_abbrev  0x00005f8c       0x28 /opt/microchip/xc32/v2.41/bin/bin/../../lib/gcc/pic32mx/4.8.3/../../../../pic32mx/lib/libm.a(w_asinf.o)
 .debug_abbrev  0x00005fb4       0x37 /opt/microchip/xc32/v2.41/bin/bin/../../lib/gcc/pic32mx/4.8.3/../../../../pic32mx/lib/libm.a(w_atan2f.o)
 .debug_abbrev  0x00005feb       0x83 /opt/microchip/xc32/v2.41/bin/bin/../../lib/gcc/pic32mx/4.8.3/../../../../pic32mx/lib/libm.a(support.o)
 .debug_abbrev  0x0000606e      0x138 /opt/microchip/xc32/v2.41/bin/bin/../../lib/gcc/pic32mx/4.8.3/libgcc.a(_udivdi3.o)
 .debug_abbrev  0x000061a6      0x147 /opt/microchip/xc32/v2.41/bin/bin/../../lib/gcc/pic32mx/4.8.3/libgcc.a(_umoddi3.o)
 .debug_abbrev  0x000062ed       0x54 /opt/microchip/xc32/v2.41/bin/bin/../../lib/gcc/pic32mx/4.8.3/../../../../pic32mx/lib/libpic32.a(sbrk.o)
 .debug_abbrev  0x00006341       0x28 /opt/microchip/xc32/v2.41/bin/bin/../../lib/gcc/pic32mx/4.8.3/../../../../pic32mx/lib/libpic32.a(write.o)
 .debug_abbrev  0x00006369       0x28 /opt/microchip/xc32/v2.41/bin/bin/../../lib/gcc/pic32mx/4.8.3/../../../../pic32mx/lib/libpic32.a(_mon_putc.o)

.debug_line     0x00000000     0xcf92
 *.elf(.debug_line)
 *(.debug_line)
 .debug_line    0x00000000      0x29b build/default/production/_ext/1650642999/imu.o
 .debug_line    0x0000029b      0x73b build/default/production/_ext/1650642999/comms.o
 .debug_line    0x000009d6      0x24c build/default/production/_ext/1650642999/tof.o
 .debug_line    0x00000c22       0xd0 build/default/production/_ext/1650642999/motors.o
 .debug_line    0x00000cf2      0x246 build/default/production/_ext/971049567/Quaternion.o
 .debug_line    0x00000f38       0x1d build/default/production/_ext/971049567/Vector3D.o
 .debug_line    0x00000f55       0xc4 build/default/production/_ext/1360937237/main.o
 .debug_line    0x00001019      0x2f1 build/default/production/_ext/1360937237/app.o
 .debug_line    0x0000130a      0x27a build/default/production/_ext/1360937237/mavlink_recv_task.o
 .debug_line    0x00001584      0x35e build/default/production/_ext/1360937237/mavlink_send_task.o
 .debug_line    0x000018e2      0x23a build/default/production/_ext/1360937237/mavlink_status_task.o
 .debug_line    0x00001b1c      0x204 build/default/production/_ext/1360937237/att_controller_task.o
 .debug_line    0x00001d20       0xa8 build/default/production/_ext/443942460/PID.o
 .debug_line    0x00001dc8      0x156 build/default/production/_ext/1035051164/SixDOFQuadcopterModel.o
 .debug_line    0x00001f1e      0x43c build/default/production/_ext/1204493032/PositionEstimatorAltitude.o
 .debug_line    0x0000235a      0x26d build/default/production/_ext/1204493032/SensFusion.o
 .debug_line    0x000025c7      0x354 build/default/production/_ext/1204493032/ComplementaryFilter.o
 .debug_line    0x0000291b      0x350 build/default/production/_ext/1204493032/AttitudeController.o
 .debug_line    0x00002c6b      0x225 build/default/production/_ext/149289479/MAVLinkSender.o
 .debug_line    0x00002e90      0x84c build/default/production/_ext/149289479/MAVLinkHandler.o
 .debug_line    0x000036dc      0x46f build/default/production/_ext/1715884449/AttitudeControllerTask.o
 .debug_line    0x00003b4b      0x38b build/default/production/_ext/1158199258/MAVLinkSendTask.o
 .debug_line    0x00003ed6      0x2ee build/default/production/_ext/1158199258/MAVLinkRecvTask.o
 .debug_line    0x000041c4      0x26b build/default/production/_ext/1315301415/TOFUpdateTask.o
 .debug_line    0x0000442f      0x2d5 build/default/production/_ext/1315301415/MAVStatusTask.o
 .debug_line    0x00004704      0x26b build/default/production/_ext/1315301415/IMUUpdateTask.o
 .debug_line    0x0000496f       0xa9 build/default/production/_ext/1313821444/num.o
 .debug_line    0x00004a18      0x2f4 build/default/production/_ext/1353086322/osal_freertos.o
 .debug_line    0x00004d0c      0x62b build/default/production/_ext/121284916/sys_devcon.o
 .debug_line    0x00005337      0x577 build/default/production/_ext/121284916/sys_devcon_pic32mz.o
 .debug_line    0x000058ae      0x2f5 build/default/production/_ext/1317643790/sys_int_pic32.o
 .debug_line    0x00005ba3       0x1d build/default/production/_ext/1276567923/croutine.o
 .debug_line    0x00005bc0      0x1e4 build/default/production/_ext/1276567923/list.o
 .debug_line    0x00005da4      0x55d build/default/production/_ext/1276567923/queue.o
 .debug_line    0x00006301      0x700 build/default/production/_ext/1276567923/tasks.o
 .debug_line    0x00006a01       0x1d build/default/production/_ext/1276567923/timers.o
 .debug_line    0x00006a1e      0x31a build/default/production/_ext/1276567923/event_groups.o
 .debug_line    0x00006d38      0x20d build/default/production/_ext/457403440/heap_1.o
 .debug_line    0x00006f45      0x24c build/default/production/_ext/1571139743/port.o
 .debug_line    0x00007191      0x18e build/default/production/_ext/1571139743/port_asm.o
 .debug_line    0x0000731f      0x30e build/default/production/_ext/1047219354/drv_oc_mapping.o
 .debug_line    0x0000762d      0x575 build/default/production/_ext/1047219354/drv_oc_static.o
 .debug_line    0x00007ba2      0x6e8 build/default/production/_ext/1407244131/drv_tmr_static.o
 .debug_line    0x0000828a      0x531 build/default/production/_ext/1407244131/drv_tmr_mapping.o
 .debug_line    0x000087bb      0x4ca build/default/production/_ext/327000265/drv_usart_mapping.o
 .debug_line    0x00008c85      0xb48 build/default/production/_ext/327000265/drv_usart_static.o
 .debug_line    0x000097cd      0x5c6 build/default/production/_ext/327000265/drv_usart_static_byte_model.o
 .debug_line    0x00009d93      0x516 build/default/production/_ext/639803181/sys_clk_pic32mz.o
 .debug_line    0x0000a2a9      0x9fb build/default/production/_ext/822048611/sys_ports_static.o
 .debug_line    0x0000aca4      0x6c9 build/default/production/_ext/1688732426/system_init.o
 .debug_line    0x0000b36d      0x31e build/default/production/_ext/1688732426/system_interrupt.o
 .debug_line    0x0000b68b      0x1f8 build/default/production/_ext/1688732426/general_exception_handler.o
 .debug_line    0x0000b883       0xac build/default/production/_ext/1688732426/general-exception-context.o
 .debug_line    0x0000b92f      0x169 build/default/production/_ext/1688732426/fassert.o
 .debug_line    0x0000ba98      0x3e3 build/default/production/_ext/1688732426/system_tasks.o
 .debug_line    0x0000be7b      0x23b build/default/production/_ext/1688732426/system_interrupt_a.o
 .debug_line    0x0000c0b6      0x1e0 build/default/production/_ext/1688732426/rtos_hooks.o
 .debug_line    0x0000c296       0x94 /opt/microchip/xc32/v2.41/bin/bin/../../lib/gcc/pic32mx/4.8.3/libgcc.a(floatunsisf.o)
 .debug_line    0x0000c32a       0xa6 /opt/microchip/xc32/v2.41/bin/bin/../../lib/gcc/pic32mx/4.8.3/../../../../pic32mx/lib/libpic32.a(default-bootstrap-exception-handler.o)
 .debug_line    0x0000c3d0       0x93 /opt/microchip/xc32/v2.41/bin/bin/../../lib/gcc/pic32mx/4.8.3/../../../../pic32mx/lib/libpic32.a(default-on-reset.o)
 .debug_line    0x0000c463       0x97 /opt/microchip/xc32/v2.41/bin/bin/../../lib/gcc/pic32mx/4.8.3/../../../../pic32mx/lib/libpic32.a(default-on-bootstrap.o)
 .debug_line    0x0000c4fa       0xa5 /opt/microchip/xc32/v2.41/bin/bin/../../lib/gcc/pic32mx/4.8.3/../../../../pic32mx/lib/libpic32.a(defaultinterrupt.o)
 .debug_line    0x0000c59f       0xa6 /opt/microchip/xc32/v2.41/bin/bin/../../lib/gcc/pic32mx/4.8.3/../../../../pic32mx/lib/libpic32.a(default-cache-err-exception-handler.o)
 .debug_line    0x0000c645       0xae /opt/microchip/xc32/v2.41/bin/bin/../../lib/gcc/pic32mx/4.8.3/../../../../pic32mx/lib/libpic32.a(default-simple-tlb-refill-exception-handler.o)
 .debug_line    0x0000c6f3       0x7e /opt/microchip/xc32/v2.41/bin/bin/../../lib/gcc/pic32mx/4.8.3/../../../../pic32mx/lib/libc.a(malloc.o)
 .debug_line    0x0000c771       0x7c /opt/microchip/xc32/v2.41/bin/bin/../../lib/gcc/pic32mx/4.8.3/../../../../pic32mx/lib/libc.a(puts.o)
 .debug_line    0x0000c7ed       0x7e /opt/microchip/xc32/v2.41/bin/bin/../../lib/gcc/pic32mx/4.8.3/../../../../pic32mx/lib/libc.a(strcat.o)
 .debug_line    0x0000c86b       0x7f /opt/microchip/xc32/v2.41/bin/bin/../../lib/gcc/pic32mx/4.8.3/../../../../pic32mx/lib/libc.a(sprintf_cdnopuxX.eo)
 .debug_line    0x0000c8ea        0x0 /opt/microchip/xc32/v2.41/bin/bin/../../lib/gcc/pic32mx/4.8.3/../../../../pic32mx/lib/libc.a(_iob.o)
 .debug_line    0x0000c8ea       0x7d /opt/microchip/xc32/v2.41/bin/bin/../../lib/gcc/pic32mx/4.8.3/../../../../pic32mx/lib/libc.a(_fputc_simple.o)
 .debug_line    0x0000c967       0x7e /opt/microchip/xc32/v2.41/bin/bin/../../lib/gcc/pic32mx/4.8.3/../../../../pic32mx/lib/libc.a(doprnt_cdnopuxX.eo)
 .debug_line    0x0000c9e5       0x7e /opt/microchip/xc32/v2.41/bin/bin/../../lib/gcc/pic32mx/4.8.3/../../../../pic32mx/lib/libc.a(_flsbuf_simple.o)
 .debug_line    0x0000ca63        0x0 /opt/microchip/xc32/v2.41/bin/bin/../../lib/gcc/pic32mx/4.8.3/../../../../pic32mx/lib/libc.a(ctype.o)
 .debug_line    0x0000ca63       0x87 /opt/microchip/xc32/v2.41/bin/bin/../../lib/gcc/pic32mx/4.8.3/../../../../pic32mx/lib/libm.a(w_asinf.o)
 .debug_line    0x0000caea       0x88 /opt/microchip/xc32/v2.41/bin/bin/../../lib/gcc/pic32mx/4.8.3/../../../../pic32mx/lib/libm.a(w_atan2f.o)
 .debug_line    0x0000cb72       0x85 /opt/microchip/xc32/v2.41/bin/bin/../../lib/gcc/pic32mx/4.8.3/../../../../pic32mx/lib/libm.a(support.o)
 .debug_line    0x0000cbf7        0x0 /opt/microchip/xc32/v2.41/bin/bin/../../lib/gcc/pic32mx/4.8.3/../../../../pic32mx/lib/libm.a(s_lib_ver.o)
 .debug_line    0x0000cbf7       0xf7 /opt/microchip/xc32/v2.41/bin/bin/../../lib/gcc/pic32mx/4.8.3/libgcc.a(_udivdi3.o)
 .debug_line    0x0000ccee      0x109 /opt/microchip/xc32/v2.41/bin/bin/../../lib/gcc/pic32mx/4.8.3/libgcc.a(_umoddi3.o)
 .debug_line    0x0000cdf7       0x87 /opt/microchip/xc32/v2.41/bin/bin/../../lib/gcc/pic32mx/4.8.3/../../../../pic32mx/lib/libpic32.a(sbrk.o)
 .debug_line    0x0000ce7e       0x88 /opt/microchip/xc32/v2.41/bin/bin/../../lib/gcc/pic32mx/4.8.3/../../../../pic32mx/lib/libpic32.a(write.o)
 .debug_line    0x0000cf06        0x0 /opt/microchip/xc32/v2.41/bin/bin/../../lib/gcc/pic32mx/4.8.3/../../../../pic32mx/lib/libpic32.a(errno.o)
 .debug_line    0x0000cf06       0x8c /opt/microchip/xc32/v2.41/bin/bin/../../lib/gcc/pic32mx/4.8.3/../../../../pic32mx/lib/libpic32.a(_mon_putc.o)
 .debug_line    0x0000cf92        0x0 /opt/microchip/xc32/v2.41/bin/bin/../../lib/gcc/pic32mx/4.8.3/../../../../pic32mx/lib/libpic32.a(xc32_uart.o)

.debug_frame    0x00000000     0x2ebc
 *.elf(.debug_frame)
 *(.debug_frame)
 .debug_frame   0x00000000       0x98 build/default/production/_ext/1650642999/imu.o
 .debug_frame   0x00000098       0x84 build/default/production/_ext/1650642999/comms.o
 .debug_frame   0x0000011c       0x80 build/default/production/_ext/1650642999/tof.o
 .debug_frame   0x0000019c       0x6c build/default/production/_ext/971049567/Quaternion.o
 .debug_frame   0x00000208       0x28 build/default/production/_ext/1360937237/main.o
 .debug_frame   0x00000230       0x3c build/default/production/_ext/1360937237/app.o
 .debug_frame   0x0000026c       0x3c build/default/production/_ext/1360937237/mavlink_recv_task.o
 .debug_frame   0x000002a8       0x48 build/default/production/_ext/1360937237/mavlink_send_task.o
 .debug_frame   0x000002f0       0x3c build/default/production/_ext/1360937237/mavlink_status_task.o
 .debug_frame   0x0000032c       0x30 build/default/production/_ext/1360937237/att_controller_task.o
 .debug_frame   0x0000035c       0x34 build/default/production/_ext/443942460/PID.o
 .debug_frame   0x00000390       0x50 build/default/production/_ext/1035051164/SixDOFQuadcopterModel.o
 .debug_frame   0x000003e0       0x5c build/default/production/_ext/1204493032/PositionEstimatorAltitude.o
 .debug_frame   0x0000043c       0x74 build/default/production/_ext/1204493032/SensFusion.o
 .debug_frame   0x000004b0       0x30 build/default/production/_ext/1204493032/ComplementaryFilter.o
 .debug_frame   0x000004e0       0x38 build/default/production/_ext/1204493032/AttitudeController.o
 .debug_frame   0x00000518       0x2c build/default/production/_ext/149289479/MAVLinkSender.o
 .debug_frame   0x00000544       0x8c build/default/production/_ext/149289479/MAVLinkHandler.o
 .debug_frame   0x000005d0       0x5c build/default/production/_ext/1715884449/AttitudeControllerTask.o
 .debug_frame   0x0000062c       0x68 build/default/production/_ext/1158199258/MAVLinkSendTask.o
 .debug_frame   0x00000694       0x64 build/default/production/_ext/1158199258/MAVLinkRecvTask.o
 .debug_frame   0x000006f8       0x28 build/default/production/_ext/1315301415/TOFUpdateTask.o
 .debug_frame   0x00000720       0x48 build/default/production/_ext/1315301415/MAVStatusTask.o
 .debug_frame   0x00000768       0x28 build/default/production/_ext/1315301415/IMUUpdateTask.o
 .debug_frame   0x00000790       0x50 build/default/production/_ext/1313821444/num.o
 .debug_frame   0x000007e0      0x180 build/default/production/_ext/1353086322/osal_freertos.o
 .debug_frame   0x00000960       0xf4 build/default/production/_ext/121284916/sys_devcon.o
 .debug_frame   0x00000a54      0x278 build/default/production/_ext/121284916/sys_devcon_pic32mz.o
 .debug_frame   0x00000ccc       0xa0 build/default/production/_ext/1317643790/sys_int_pic32.o
 .debug_frame   0x00000d6c       0x60 build/default/production/_ext/1276567923/list.o
 .debug_frame   0x00000dcc      0x304 build/default/production/_ext/1276567923/queue.o
 .debug_frame   0x000010d0      0x444 build/default/production/_ext/1276567923/tasks.o
 .debug_frame   0x00001514      0x130 build/default/production/_ext/1276567923/event_groups.o
 .debug_frame   0x00001644       0x60 build/default/production/_ext/457403440/heap_1.o
 .debug_frame   0x000016a4       0xd0 build/default/production/_ext/1571139743/port.o
 .debug_frame   0x00001774       0xbc build/default/production/_ext/1047219354/drv_oc_mapping.o
 .debug_frame   0x00001830      0x1d0 build/default/production/_ext/1047219354/drv_oc_static.o
 .debug_frame   0x00001a00      0x10c build/default/production/_ext/1407244131/drv_tmr_static.o
 .debug_frame   0x00001b0c      0x28c build/default/production/_ext/1407244131/drv_tmr_mapping.o
 .debug_frame   0x00001d98      0x224 build/default/production/_ext/327000265/drv_usart_mapping.o
 .debug_frame   0x00001fbc      0x258 build/default/production/_ext/327000265/drv_usart_static.o
 .debug_frame   0x00002214      0x100 build/default/production/_ext/327000265/drv_usart_static_byte_model.o
 .debug_frame   0x00002314       0xa4 build/default/production/_ext/639803181/sys_clk_pic32mz.o
 .debug_frame   0x000023b8      0x27c build/default/production/_ext/822048611/sys_ports_static.o
 .debug_frame   0x00002634       0x30 build/default/production/_ext/1688732426/system_init.o
 .debug_frame   0x00002664       0xc8 build/default/production/_ext/1688732426/system_interrupt.o
 .debug_frame   0x0000272c       0x28 build/default/production/_ext/1688732426/general_exception_handler.o
 .debug_frame   0x00002754       0x20 build/default/production/_ext/1688732426/fassert.o
 .debug_frame   0x00002774       0xbc build/default/production/_ext/1688732426/system_tasks.o
 .debug_frame   0x00002830       0x7c build/default/production/_ext/1688732426/rtos_hooks.o
 .debug_frame   0x000028ac       0x30 /opt/microchip/xc32/v2.41/bin/bin/../../lib/gcc/pic32mx/4.8.3/libgcc.a(floatunsisf.o)
 .debug_frame   0x000028dc       0x2c /opt/microchip/xc32/v2.41/bin/bin/../../lib/gcc/pic32mx/4.8.3/../../../../pic32mx/lib/libpic32.a(default-bootstrap-exception-handler.o)
 .debug_frame   0x00002908       0x20 /opt/microchip/xc32/v2.41/bin/bin/../../lib/gcc/pic32mx/4.8.3/../../../../pic32mx/lib/libpic32.a(default-on-reset.o)
 .debug_frame   0x00002928       0x20 /opt/microchip/xc32/v2.41/bin/bin/../../lib/gcc/pic32mx/4.8.3/../../../../pic32mx/lib/libpic32.a(default-on-bootstrap.o)
 .debug_frame   0x00002948       0x20 /opt/microchip/xc32/v2.41/bin/bin/../../lib/gcc/pic32mx/4.8.3/../../../../pic32mx/lib/libpic32.a(defaultinterrupt.o)
 .debug_frame   0x00002968       0x2c /opt/microchip/xc32/v2.41/bin/bin/../../lib/gcc/pic32mx/4.8.3/../../../../pic32mx/lib/libpic32.a(default-cache-err-exception-handler.o)
 .debug_frame   0x00002994       0x2c /opt/microchip/xc32/v2.41/bin/bin/../../lib/gcc/pic32mx/4.8.3/../../../../pic32mx/lib/libpic32.a(default-simple-tlb-refill-exception-handler.o)
 .debug_frame   0x000029c0       0x7c /opt/microchip/xc32/v2.41/bin/bin/../../lib/gcc/pic32mx/4.8.3/../../../../pic32mx/lib/libc.a(malloc.o)
 .debug_frame   0x00002a3c       0x50 /opt/microchip/xc32/v2.41/bin/bin/../../lib/gcc/pic32mx/4.8.3/../../../../pic32mx/lib/libc.a(puts.o)
 .debug_frame   0x00002a8c       0x20 /opt/microchip/xc32/v2.41/bin/bin/../../lib/gcc/pic32mx/4.8.3/../../../../pic32mx/lib/libc.a(strcat.o)
 .debug_frame   0x00002aac       0x2c /opt/microchip/xc32/v2.41/bin/bin/../../lib/gcc/pic32mx/4.8.3/../../../../pic32mx/lib/libc.a(sprintf_cdnopuxX.eo)
 .debug_frame   0x00002ad8       0x30 /opt/microchip/xc32/v2.41/bin/bin/../../lib/gcc/pic32mx/4.8.3/../../../../pic32mx/lib/libc.a(_fputc_simple.o)
 .debug_frame   0x00002b08       0x40 /opt/microchip/xc32/v2.41/bin/bin/../../lib/gcc/pic32mx/4.8.3/../../../../pic32mx/lib/libc.a(doprnt_cdnopuxX.eo)
 .debug_frame   0x00002b48       0x38 /opt/microchip/xc32/v2.41/bin/bin/../../lib/gcc/pic32mx/4.8.3/../../../../pic32mx/lib/libc.a(_flsbuf_simple.o)
 .debug_frame   0x00002b80       0x34 /opt/microchip/xc32/v2.41/bin/bin/../../lib/gcc/pic32mx/4.8.3/../../../../pic32mx/lib/libm.a(w_asinf.o)
 .debug_frame   0x00002bb4       0x44 /opt/microchip/xc32/v2.41/bin/bin/../../lib/gcc/pic32mx/4.8.3/../../../../pic32mx/lib/libm.a(w_atan2f.o)
 .debug_frame   0x00002bf8      0x17c /opt/microchip/xc32/v2.41/bin/bin/../../lib/gcc/pic32mx/4.8.3/../../../../pic32mx/lib/libm.a(support.o)
 .debug_frame   0x00002d74       0x20 /opt/microchip/xc32/v2.41/bin/bin/../../lib/gcc/pic32mx/4.8.3/libgcc.a(_udivdi3.o)
 .debug_frame   0x00002d94       0x20 /opt/microchip/xc32/v2.41/bin/bin/../../lib/gcc/pic32mx/4.8.3/libgcc.a(_umoddi3.o)
 .debug_frame   0x00002db4       0xa4 /opt/microchip/xc32/v2.41/bin/bin/../../lib/gcc/pic32mx/4.8.3/../../../../pic32mx/lib/libpic32.a(sbrk.o)
 .debug_frame   0x00002e58       0x38 /opt/microchip/xc32/v2.41/bin/bin/../../lib/gcc/pic32mx/4.8.3/../../../../pic32mx/lib/libpic32.a(write.o)
 .debug_frame   0x00002e90       0x2c /opt/microchip/xc32/v2.41/bin/bin/../../lib/gcc/pic32mx/4.8.3/../../../../pic32mx/lib/libpic32.a(_mon_putc.o)

.debug_str      0x00000000      0x9d9
 *.elf(.debug_str)
 *(.debug_str)
 .debug_str     0x00000000        0x0 build/default/production/_ext/1650642999/imu.o
 .debug_str     0x00000000       0xd1 build/default/production/_ext/1650642999/comms.o
 .debug_str     0x000000d1        0x0 build/default/production/_ext/1650642999/tof.o
 .debug_str     0x000000d1        0x0 build/default/production/_ext/1650642999/motors.o
 .debug_str     0x000000d1        0x0 build/default/production/_ext/971049567/Quaternion.o
 .debug_str     0x000000d1        0x0 build/default/production/_ext/971049567/Vector3D.o
 .debug_str     0x000000d1        0x0 build/default/production/_ext/1360937237/main.o
 .debug_str     0x000000d1        0x0 build/default/production/_ext/1360937237/app.o
 .debug_str     0x000000d1        0x0 build/default/production/_ext/1360937237/mavlink_recv_task.o
 .debug_str     0x000000d1       0x24 build/default/production/_ext/1360937237/mavlink_send_task.o
 .debug_str     0x000000f5        0x0 build/default/production/_ext/1360937237/mavlink_status_task.o
 .debug_str     0x000000f5        0x0 build/default/production/_ext/1360937237/att_controller_task.o
 .debug_str     0x000000f5        0x0 build/default/production/_ext/443942460/PID.o
 .debug_str     0x000000f5        0x0 build/default/production/_ext/1035051164/SixDOFQuadcopterModel.o
 .debug_str     0x000000f5        0x9 build/default/production/_ext/1204493032/PositionEstimatorAltitude.o
 .debug_str     0x000000fe        0x8 build/default/production/_ext/1204493032/SensFusion.o
 .debug_str     0x00000106        0x0 build/default/production/_ext/1204493032/ComplementaryFilter.o
 .debug_str     0x00000106        0xa build/default/production/_ext/1204493032/AttitudeController.o
 .debug_str     0x00000110       0x13 build/default/production/_ext/149289479/MAVLinkSender.o
 .debug_str     0x00000123       0xcf build/default/production/_ext/149289479/MAVLinkHandler.o
 .debug_str     0x000001f2       0x17 build/default/production/_ext/1715884449/AttitudeControllerTask.o
 .debug_str     0x00000209        0xd build/default/production/_ext/1158199258/MAVLinkSendTask.o
 .debug_str     0x00000216       0x16 build/default/production/_ext/1158199258/MAVLinkRecvTask.o
 .debug_str     0x0000022c        0x0 build/default/production/_ext/1315301415/TOFUpdateTask.o
 .debug_str     0x0000022c        0xd build/default/production/_ext/1315301415/MAVStatusTask.o
 .debug_str     0x00000239        0x0 build/default/production/_ext/1315301415/IMUUpdateTask.o
 .debug_str     0x00000239        0x0 build/default/production/_ext/1313821444/num.o
 .debug_str     0x00000239       0x40 build/default/production/_ext/1353086322/osal_freertos.o
 .debug_str     0x00000279       0x16 build/default/production/_ext/121284916/sys_devcon.o
 .debug_str     0x0000028f       0x1a build/default/production/_ext/121284916/sys_devcon_pic32mz.o
 .debug_str     0x000002a9       0x1d build/default/production/_ext/1317643790/sys_int_pic32.o
 .debug_str     0x000002c6        0x0 build/default/production/_ext/1276567923/croutine.o
 .debug_str     0x000002c6       0x2b build/default/production/_ext/1276567923/list.o
 .debug_str     0x000002f1      0x131 build/default/production/_ext/1276567923/queue.o
 .debug_str     0x00000422      0x156 build/default/production/_ext/1276567923/tasks.o
 .debug_str     0x00000578        0x0 build/default/production/_ext/1276567923/timers.o
 .debug_str     0x00000578       0xe6 build/default/production/_ext/1276567923/event_groups.o
 .debug_str     0x0000065e       0x1d build/default/production/_ext/457403440/heap_1.o
 .debug_str     0x0000067b       0x37 build/default/production/_ext/1571139743/port.o
 .debug_str     0x000006b2       0x13 build/default/production/_ext/1047219354/drv_oc_mapping.o
 .debug_str     0x000006c5       0x1f build/default/production/_ext/1047219354/drv_oc_static.o
 .debug_str     0x000006e4       0x68 build/default/production/_ext/1407244131/drv_tmr_static.o
 .debug_str     0x0000074c        0xe build/default/production/_ext/1407244131/drv_tmr_mapping.o
 .debug_str     0x0000075a       0x23 build/default/production/_ext/327000265/drv_usart_mapping.o
 .debug_str     0x0000077d      0x114 build/default/production/_ext/327000265/drv_usart_static.o
 .debug_str     0x00000891       0x22 build/default/production/_ext/327000265/drv_usart_static_byte_model.o
 .debug_str     0x000008b3       0x46 build/default/production/_ext/639803181/sys_clk_pic32mz.o
 .debug_str     0x000008f9       0xa1 build/default/production/_ext/822048611/sys_ports_static.o
 .debug_str     0x0000099a       0x36 build/default/production/_ext/1688732426/system_init.o
 .debug_str     0x000009d0        0x0 build/default/production/_ext/1688732426/system_interrupt.o
 .debug_str     0x000009d0        0x0 build/default/production/_ext/1688732426/general_exception_handler.o
 .debug_str     0x000009d0        0x0 build/default/production/_ext/1688732426/fassert.o
 .debug_str     0x000009d0        0x0 build/default/production/_ext/1688732426/system_tasks.o
 .debug_str     0x000009d0        0x9 build/default/production/_ext/1688732426/rtos_hooks.o
 .debug_str     0x000009d9        0x0 /opt/microchip/xc32/v2.41/bin/bin/../../lib/gcc/pic32mx/4.8.3/libgcc.a(floatunsisf.o)
 .debug_str     0x000009d9        0x0 /opt/microchip/xc32/v2.41/bin/bin/../../lib/gcc/pic32mx/4.8.3/../../../../pic32mx/lib/libpic32.a(default-bootstrap-exception-handler.o)
 .debug_str     0x000009d9        0x0 /opt/microchip/xc32/v2.41/bin/bin/../../lib/gcc/pic32mx/4.8.3/../../../../pic32mx/lib/libpic32.a(default-on-reset.o)
 .debug_str     0x000009d9        0x0 /opt/microchip/xc32/v2.41/bin/bin/../../lib/gcc/pic32mx/4.8.3/../../../../pic32mx/lib/libpic32.a(default-on-bootstrap.o)
 .debug_str     0x000009d9        0x0 /opt/microchip/xc32/v2.41/bin/bin/../../lib/gcc/pic32mx/4.8.3/../../../../pic32mx/lib/libpic32.a(defaultinterrupt.o)
 .debug_str     0x000009d9        0x0 /opt/microchip/xc32/v2.41/bin/bin/../../lib/gcc/pic32mx/4.8.3/../../../../pic32mx/lib/libpic32.a(default-cache-err-exception-handler.o)
 .debug_str     0x000009d9        0x0 /opt/microchip/xc32/v2.41/bin/bin/../../lib/gcc/pic32mx/4.8.3/../../../../pic32mx/lib/libpic32.a(default-simple-tlb-refill-exception-handler.o)
 .debug_str     0x000009d9        0x0 /opt/microchip/xc32/v2.41/bin/bin/../../lib/gcc/pic32mx/4.8.3/../../../../pic32mx/lib/libc.a(malloc.o)
 .debug_str     0x000009d9        0x0 /opt/microchip/xc32/v2.41/bin/bin/../../lib/gcc/pic32mx/4.8.3/../../../../pic32mx/lib/libc.a(puts.o)
 .debug_str     0x000009d9        0x0 /opt/microchip/xc32/v2.41/bin/bin/../../lib/gcc/pic32mx/4.8.3/../../../../pic32mx/lib/libc.a(strcat.o)
 .debug_str     0x000009d9        0x0 /opt/microchip/xc32/v2.41/bin/bin/../../lib/gcc/pic32mx/4.8.3/../../../../pic32mx/lib/libc.a(sprintf_cdnopuxX.eo)
 .debug_str     0x000009d9        0x0 /opt/microchip/xc32/v2.41/bin/bin/../../lib/gcc/pic32mx/4.8.3/../../../../pic32mx/lib/libc.a(_iob.o)
 .debug_str     0x000009d9        0x0 /opt/microchip/xc32/v2.41/bin/bin/../../lib/gcc/pic32mx/4.8.3/../../../../pic32mx/lib/libc.a(_fputc_simple.o)
 .debug_str     0x000009d9        0x0 /opt/microchip/xc32/v2.41/bin/bin/../../lib/gcc/pic32mx/4.8.3/../../../../pic32mx/lib/libc.a(doprnt_cdnopuxX.eo)
 .debug_str     0x000009d9        0x0 /opt/microchip/xc32/v2.41/bin/bin/../../lib/gcc/pic32mx/4.8.3/../../../../pic32mx/lib/libc.a(_flsbuf_simple.o)
 .debug_str     0x000009d9        0x0 /opt/microchip/xc32/v2.41/bin/bin/../../lib/gcc/pic32mx/4.8.3/../../../../pic32mx/lib/libc.a(ctype.o)
 .debug_str     0x000009d9        0x0 /opt/microchip/xc32/v2.41/bin/bin/../../lib/gcc/pic32mx/4.8.3/../../../../pic32mx/lib/libm.a(w_asinf.o)
 .debug_str     0x000009d9        0x0 /opt/microchip/xc32/v2.41/bin/bin/../../lib/gcc/pic32mx/4.8.3/../../../../pic32mx/lib/libm.a(w_atan2f.o)
 .debug_str     0x000009d9        0x0 /opt/microchip/xc32/v2.41/bin/bin/../../lib/gcc/pic32mx/4.8.3/../../../../pic32mx/lib/libm.a(support.o)
 .debug_str     0x000009d9        0x0 /opt/microchip/xc32/v2.41/bin/bin/../../lib/gcc/pic32mx/4.8.3/../../../../pic32mx/lib/libm.a(s_lib_ver.o)
 .debug_str     0x000009d9        0x0 /opt/microchip/xc32/v2.41/bin/bin/../../lib/gcc/pic32mx/4.8.3/libgcc.a(_udivdi3.o)
 .debug_str     0x000009d9        0x0 /opt/microchip/xc32/v2.41/bin/bin/../../lib/gcc/pic32mx/4.8.3/libgcc.a(_umoddi3.o)
 .debug_str     0x000009d9        0x0 /opt/microchip/xc32/v2.41/bin/bin/../../lib/gcc/pic32mx/4.8.3/../../../../pic32mx/lib/libpic32.a(sbrk.o)
 .debug_str     0x000009d9        0x0 /opt/microchip/xc32/v2.41/bin/bin/../../lib/gcc/pic32mx/4.8.3/../../../../pic32mx/lib/libpic32.a(write.o)
 .debug_str     0x000009d9        0x0 /opt/microchip/xc32/v2.41/bin/bin/../../lib/gcc/pic32mx/4.8.3/../../../../pic32mx/lib/libpic32.a(errno.o)
 .debug_str     0x000009d9        0x0 /opt/microchip/xc32/v2.41/bin/bin/../../lib/gcc/pic32mx/4.8.3/../../../../pic32mx/lib/libpic32.a(_mon_putc.o)
 .debug_str     0x000009d9        0x0 /opt/microchip/xc32/v2.41/bin/bin/../../lib/gcc/pic32mx/4.8.3/../../../../pic32mx/lib/libpic32.a(xc32_uart.o)

.debug_loc      0x00000000     0xf400
 *.elf(.debug_loc)
 *(.debug_loc)
 .debug_loc     0x00000000       0xa5 build/default/production/_ext/1650642999/imu.o
 .debug_loc     0x000000a5     0x2744 build/default/production/_ext/1650642999/comms.o
 .debug_loc     0x000027e9       0xa0 build/default/production/_ext/1650642999/tof.o
 .debug_loc     0x00002889      0x374 build/default/production/_ext/971049567/Quaternion.o
 .debug_loc     0x00002bfd       0x14 build/default/production/_ext/1360937237/app.o
 .debug_loc     0x00002c11       0x14 build/default/production/_ext/1360937237/mavlink_recv_task.o
 .debug_loc     0x00002c25       0x14 build/default/production/_ext/1360937237/mavlink_send_task.o
 .debug_loc     0x00002c39       0x14 build/default/production/_ext/1360937237/mavlink_status_task.o
 .debug_loc     0x00002c4d       0x14 build/default/production/_ext/1360937237/att_controller_task.o
 .debug_loc     0x00002c61       0xfc build/default/production/_ext/443942460/PID.o
 .debug_loc     0x00002d5d      0x434 build/default/production/_ext/1035051164/SixDOFQuadcopterModel.o
 .debug_loc     0x00003191      0x29c build/default/production/_ext/1204493032/PositionEstimatorAltitude.o
 .debug_loc     0x0000342d      0x121 build/default/production/_ext/1204493032/SensFusion.o
 .debug_loc     0x0000354e       0x84 build/default/production/_ext/1204493032/ComplementaryFilter.o
 .debug_loc     0x000035d2      0x106 build/default/production/_ext/1204493032/AttitudeController.o
 .debug_loc     0x000036d8       0x2c build/default/production/_ext/149289479/MAVLinkSender.o
 .debug_loc     0x00003704     0x4092 build/default/production/_ext/149289479/MAVLinkHandler.o
 .debug_loc     0x00007796       0x60 build/default/production/_ext/1715884449/AttitudeControllerTask.o
 .debug_loc     0x000077f6      0x1be build/default/production/_ext/1158199258/MAVLinkSendTask.o
 .debug_loc     0x000079b4       0x80 build/default/production/_ext/1158199258/MAVLinkRecvTask.o
 .debug_loc     0x00007a34       0x21 build/default/production/_ext/1315301415/TOFUpdateTask.o
 .debug_loc     0x00007a55       0x21 build/default/production/_ext/1315301415/MAVStatusTask.o
 .debug_loc     0x00007a76       0x21 build/default/production/_ext/1315301415/IMUUpdateTask.o
 .debug_loc     0x00007a97       0xeb build/default/production/_ext/1313821444/num.o
 .debug_loc     0x00007b82      0x3e6 build/default/production/_ext/1353086322/osal_freertos.o
 .debug_loc     0x00007f68       0xf0 build/default/production/_ext/121284916/sys_devcon.o
 .debug_loc     0x00008058      0x3fd build/default/production/_ext/121284916/sys_devcon_pic32mz.o
 .debug_loc     0x00008455       0x7c build/default/production/_ext/1317643790/sys_int_pic32.o
 .debug_loc     0x000084d1       0x44 build/default/production/_ext/1276567923/list.o
 .debug_loc     0x00008515     0x1212 build/default/production/_ext/1276567923/queue.o
 .debug_loc     0x00009727     0x1095 build/default/production/_ext/1276567923/tasks.o
 .debug_loc     0x0000a7bc      0x90a build/default/production/_ext/1276567923/event_groups.o
 .debug_loc     0x0000b0c6       0x49 build/default/production/_ext/457403440/heap_1.o
 .debug_loc     0x0000b10f      0x10d build/default/production/_ext/1571139743/port.o
 .debug_loc     0x0000b21c      0x44f build/default/production/_ext/1047219354/drv_oc_mapping.o
 .debug_loc     0x0000b66b       0x84 build/default/production/_ext/1047219354/drv_oc_static.o
 .debug_loc     0x0000b6ef      0x2bf build/default/production/_ext/1407244131/drv_tmr_static.o
 .debug_loc     0x0000b9ae      0x3a8 build/default/production/_ext/1407244131/drv_tmr_mapping.o
 .debug_loc     0x0000bd56      0x79d build/default/production/_ext/327000265/drv_usart_mapping.o
 .debug_loc     0x0000c4f3      0xc84 build/default/production/_ext/327000265/drv_usart_static.o
 .debug_loc     0x0000d177       0xbe build/default/production/_ext/327000265/drv_usart_static_byte_model.o
 .debug_loc     0x0000d235       0xd7 build/default/production/_ext/639803181/sys_clk_pic32mz.o
 .debug_loc     0x0000d30c      0x7de build/default/production/_ext/822048611/sys_ports_static.o
 .debug_loc     0x0000daea       0x21 build/default/production/_ext/1688732426/system_init.o
 .debug_loc     0x0000db0b       0x8c build/default/production/_ext/1688732426/rtos_hooks.o
 .debug_loc     0x0000db97       0x74 /opt/microchip/xc32/v2.41/bin/bin/../../lib/gcc/pic32mx/4.8.3/libgcc.a(floatunsisf.o)
 .debug_loc     0x0000dc0b       0x2c /opt/microchip/xc32/v2.41/bin/bin/../../lib/gcc/pic32mx/4.8.3/../../../../pic32mx/lib/libpic32.a(default-bootstrap-exception-handler.o)
 .debug_loc     0x0000dc37       0x2c /opt/microchip/xc32/v2.41/bin/bin/../../lib/gcc/pic32mx/4.8.3/../../../../pic32mx/lib/libpic32.a(default-cache-err-exception-handler.o)
 .debug_loc     0x0000dc63       0x2c /opt/microchip/xc32/v2.41/bin/bin/../../lib/gcc/pic32mx/4.8.3/../../../../pic32mx/lib/libpic32.a(default-simple-tlb-refill-exception-handler.o)
 .debug_loc     0x0000dc8f       0x2c /opt/microchip/xc32/v2.41/bin/bin/../../lib/gcc/pic32mx/4.8.3/../../../../pic32mx/lib/libm.a(w_asinf.o)
 .debug_loc     0x0000dcbb       0x21 /opt/microchip/xc32/v2.41/bin/bin/../../lib/gcc/pic32mx/4.8.3/../../../../pic32mx/lib/libm.a(w_atan2f.o)
 .debug_loc     0x0000dcdc      0x1ad /opt/microchip/xc32/v2.41/bin/bin/../../lib/gcc/pic32mx/4.8.3/../../../../pic32mx/lib/libm.a(support.o)
 .debug_loc     0x0000de89      0xa6a /opt/microchip/xc32/v2.41/bin/bin/../../lib/gcc/pic32mx/4.8.3/libgcc.a(_udivdi3.o)
 .debug_loc     0x0000e8f3      0xa3d /opt/microchip/xc32/v2.41/bin/bin/../../lib/gcc/pic32mx/4.8.3/libgcc.a(_umoddi3.o)
 .debug_loc     0x0000f330       0x78 /opt/microchip/xc32/v2.41/bin/bin/../../lib/gcc/pic32mx/4.8.3/../../../../pic32mx/lib/libpic32.a(sbrk.o)
 .debug_loc     0x0000f3a8       0x38 /opt/microchip/xc32/v2.41/bin/bin/../../lib/gcc/pic32mx/4.8.3/../../../../pic32mx/lib/libpic32.a(write.o)
 .debug_loc     0x0000f3e0       0x20 /opt/microchip/xc32/v2.41/bin/bin/../../lib/gcc/pic32mx/4.8.3/../../../../pic32mx/lib/libpic32.a(_mon_putc.o)

.debug_macinfo
 *.elf(.debug_macinfo)
 *(.debug_macinfo)

.debug_weaknames
 *.elf(.debug_weaknames)
 *(.debug_weaknames)

.debug_funcnames
 *.elf(.debug_funcnames)
 *(.debug_funcnames)

.debug_typenames
 *.elf(.debug_typenames)
 *(.debug_typenames)

.debug_varnames
 *.elf(.debug_varnames)
 *(.debug_varnames)

.debug_pubtypes
 *.elf(.debug_pubtypes)
 *(.debug_pubtypes)

.debug_ranges   0x00000000     0x2270
 *.elf(.debug_ranges)
 *(.debug_ranges)
 .debug_ranges  0x00000000       0x40 build/default/production/_ext/1650642999/imu.o
 .debug_ranges  0x00000040      0x6c8 build/default/production/_ext/1650642999/comms.o
 .debug_ranges  0x00000708       0x38 build/default/production/_ext/1650642999/tof.o
 .debug_ranges  0x00000740       0x18 build/default/production/_ext/971049567/Quaternion.o
 .debug_ranges  0x00000758       0x10 build/default/production/_ext/1360937237/main.o
 .debug_ranges  0x00000768       0x18 build/default/production/_ext/1360937237/app.o
 .debug_ranges  0x00000780       0x18 build/default/production/_ext/1360937237/mavlink_recv_task.o
 .debug_ranges  0x00000798       0x18 build/default/production/_ext/1360937237/mavlink_send_task.o
 .debug_ranges  0x000007b0       0x18 build/default/production/_ext/1360937237/mavlink_status_task.o
 .debug_ranges  0x000007c8       0x18 build/default/production/_ext/1360937237/att_controller_task.o
 .debug_ranges  0x000007e0       0x10 build/default/production/_ext/443942460/PID.o
 .debug_ranges  0x000007f0       0x18 build/default/production/_ext/1035051164/SixDOFQuadcopterModel.o
 .debug_ranges  0x00000808       0x40 build/default/production/_ext/1204493032/PositionEstimatorAltitude.o
 .debug_ranges  0x00000848       0x20 build/default/production/_ext/1204493032/SensFusion.o
 .debug_ranges  0x00000868       0x10 build/default/production/_ext/1204493032/ComplementaryFilter.o
 .debug_ranges  0x00000878       0x10 build/default/production/_ext/1204493032/AttitudeController.o
 .debug_ranges  0x00000888       0x10 build/default/production/_ext/149289479/MAVLinkSender.o
 .debug_ranges  0x00000898      0x778 build/default/production/_ext/149289479/MAVLinkHandler.o
 .debug_ranges  0x00001010       0x20 build/default/production/_ext/1715884449/AttitudeControllerTask.o
 .debug_ranges  0x00001030       0xa8 build/default/production/_ext/1158199258/MAVLinkSendTask.o
 .debug_ranges  0x000010d8       0x20 build/default/production/_ext/1158199258/MAVLinkRecvTask.o
 .debug_ranges  0x000010f8       0x10 build/default/production/_ext/1315301415/TOFUpdateTask.o
 .debug_ranges  0x00001108       0x20 build/default/production/_ext/1315301415/MAVStatusTask.o
 .debug_ranges  0x00001128       0x10 build/default/production/_ext/1315301415/IMUUpdateTask.o
 .debug_ranges  0x00001138       0x18 build/default/production/_ext/1313821444/num.o
 .debug_ranges  0x00001150       0x78 build/default/production/_ext/1353086322/osal_freertos.o
 .debug_ranges  0x000011c8       0x68 build/default/production/_ext/121284916/sys_devcon.o
 .debug_ranges  0x00001230       0xd8 build/default/production/_ext/121284916/sys_devcon_pic32mz.o
 .debug_ranges  0x00001308       0x50 build/default/production/_ext/1317643790/sys_int_pic32.o
 .debug_ranges  0x00001358       0x30 build/default/production/_ext/1276567923/list.o
 .debug_ranges  0x00001388      0x158 build/default/production/_ext/1276567923/queue.o
 .debug_ranges  0x000014e0      0x1a8 build/default/production/_ext/1276567923/tasks.o
 .debug_ranges  0x00001688       0x98 build/default/production/_ext/1276567923/event_groups.o
 .debug_ranges  0x00001720       0x28 build/default/production/_ext/457403440/heap_1.o
 .debug_ranges  0x00001748       0x48 build/default/production/_ext/1571139743/port.o
 .debug_ranges  0x00001790       0x28 build/default/production/_ext/1571139743/port_asm.o
 .debug_ranges  0x000017b8       0x40 build/default/production/_ext/1047219354/drv_oc_mapping.o
 .debug_ranges  0x000017f8       0xe8 build/default/production/_ext/1047219354/drv_oc_static.o
 .debug_ranges  0x000018e0       0x98 build/default/production/_ext/1407244131/drv_tmr_static.o
 .debug_ranges  0x00001978       0xd8 build/default/production/_ext/1407244131/drv_tmr_mapping.o
 .debug_ranges  0x00001a50       0xa0 build/default/production/_ext/327000265/drv_usart_mapping.o
 .debug_ranges  0x00001af0      0x148 build/default/production/_ext/327000265/drv_usart_static.o
 .debug_ranges  0x00001c38       0x68 build/default/production/_ext/327000265/drv_usart_static_byte_model.o
 .debug_ranges  0x00001ca0       0x40 build/default/production/_ext/639803181/sys_clk_pic32mz.o
 .debug_ranges  0x00001ce0      0x138 build/default/production/_ext/822048611/sys_ports_static.o
 .debug_ranges  0x00001e18       0x10 build/default/production/_ext/1688732426/system_init.o
 .debug_ranges  0x00001e28       0x40 build/default/production/_ext/1688732426/system_interrupt.o
 .debug_ranges  0x00001e68       0x10 build/default/production/_ext/1688732426/general_exception_handler.o
 .debug_ranges  0x00001e78       0x10 build/default/production/_ext/1688732426/fassert.o
 .debug_ranges  0x00001e88       0x40 build/default/production/_ext/1688732426/system_tasks.o
 .debug_ranges  0x00001ec8       0x48 build/default/production/_ext/1688732426/system_interrupt_a.o
 .debug_ranges  0x00001f10       0x30 build/default/production/_ext/1688732426/rtos_hooks.o
 .debug_ranges  0x00001f40       0x10 /opt/microchip/xc32/v2.41/bin/bin/../../lib/gcc/pic32mx/4.8.3/../../../../pic32mx/lib/libpic32.a(default-bootstrap-exception-handler.o)
 .debug_ranges  0x00001f50       0x10 /opt/microchip/xc32/v2.41/bin/bin/../../lib/gcc/pic32mx/4.8.3/../../../../pic32mx/lib/libpic32.a(default-on-reset.o)
 .debug_ranges  0x00001f60       0x10 /opt/microchip/xc32/v2.41/bin/bin/../../lib/gcc/pic32mx/4.8.3/../../../../pic32mx/lib/libpic32.a(default-on-bootstrap.o)
 .debug_ranges  0x00001f70       0x10 /opt/microchip/xc32/v2.41/bin/bin/../../lib/gcc/pic32mx/4.8.3/../../../../pic32mx/lib/libpic32.a(defaultinterrupt.o)
 .debug_ranges  0x00001f80       0x10 /opt/microchip/xc32/v2.41/bin/bin/../../lib/gcc/pic32mx/4.8.3/../../../../pic32mx/lib/libpic32.a(default-cache-err-exception-handler.o)
 .debug_ranges  0x00001f90       0x10 /opt/microchip/xc32/v2.41/bin/bin/../../lib/gcc/pic32mx/4.8.3/../../../../pic32mx/lib/libpic32.a(default-simple-tlb-refill-exception-handler.o)
 .debug_ranges  0x00001fa0       0x20 /opt/microchip/xc32/v2.41/bin/bin/../../lib/gcc/pic32mx/4.8.3/../../../../pic32mx/lib/libc.a(malloc.o)
 .debug_ranges  0x00001fc0       0x18 /opt/microchip/xc32/v2.41/bin/bin/../../lib/gcc/pic32mx/4.8.3/../../../../pic32mx/lib/libc.a(puts.o)
 .debug_ranges  0x00001fd8       0x10 /opt/microchip/xc32/v2.41/bin/bin/../../lib/gcc/pic32mx/4.8.3/../../../../pic32mx/lib/libc.a(strcat.o)
 .debug_ranges  0x00001fe8       0x10 /opt/microchip/xc32/v2.41/bin/bin/../../lib/gcc/pic32mx/4.8.3/../../../../pic32mx/lib/libc.a(sprintf_cdnopuxX.eo)
 .debug_ranges  0x00001ff8       0x10 /opt/microchip/xc32/v2.41/bin/bin/../../lib/gcc/pic32mx/4.8.3/../../../../pic32mx/lib/libc.a(_fputc_simple.o)
 .debug_ranges  0x00002008       0x10 /opt/microchip/xc32/v2.41/bin/bin/../../lib/gcc/pic32mx/4.8.3/../../../../pic32mx/lib/libc.a(doprnt_cdnopuxX.eo)
 .debug_ranges  0x00002018       0x10 /opt/microchip/xc32/v2.41/bin/bin/../../lib/gcc/pic32mx/4.8.3/../../../../pic32mx/lib/libc.a(_flsbuf_simple.o)
 .debug_ranges  0x00002028       0x10 /opt/microchip/xc32/v2.41/bin/bin/../../lib/gcc/pic32mx/4.8.3/../../../../pic32mx/lib/libm.a(w_asinf.o)
 .debug_ranges  0x00002038       0x10 /opt/microchip/xc32/v2.41/bin/bin/../../lib/gcc/pic32mx/4.8.3/../../../../pic32mx/lib/libm.a(w_atan2f.o)
 .debug_ranges  0x00002048       0x68 /opt/microchip/xc32/v2.41/bin/bin/../../lib/gcc/pic32mx/4.8.3/../../../../pic32mx/lib/libm.a(support.o)
 .debug_ranges  0x000020b0       0x98 /opt/microchip/xc32/v2.41/bin/bin/../../lib/gcc/pic32mx/4.8.3/libgcc.a(_udivdi3.o)
 .debug_ranges  0x00002148       0xd8 /opt/microchip/xc32/v2.41/bin/bin/../../lib/gcc/pic32mx/4.8.3/libgcc.a(_umoddi3.o)
 .debug_ranges  0x00002220       0x30 /opt/microchip/xc32/v2.41/bin/bin/../../lib/gcc/pic32mx/4.8.3/../../../../pic32mx/lib/libpic32.a(sbrk.o)
 .debug_ranges  0x00002250       0x10 /opt/microchip/xc32/v2.41/bin/bin/../../lib/gcc/pic32mx/4.8.3/../../../../pic32mx/lib/libpic32.a(write.o)
 .debug_ranges  0x00002260       0x10 /opt/microchip/xc32/v2.41/bin/bin/../../lib/gcc/pic32mx/4.8.3/../../../../pic32mx/lib/libpic32.a(_mon_putc.o)

.gnu.attributes
                0x00000000       0x10
 *(.gnu.attributes)
 .gnu.attributes
                0x00000000       0x10 build/default/production/_ext/1650642999/imu.o
 .gnu.attributes
                0x00000010       0x10 build/default/production/_ext/1650642999/comms.o
 .gnu.attributes
                0x00000020       0x10 build/default/production/_ext/1650642999/tof.o
 .gnu.attributes
                0x00000030       0x10 build/default/production/_ext/1650642999/motors.o
 .gnu.attributes
                0x00000040       0x10 build/default/production/_ext/971049567/Quaternion.o
 .gnu.attributes
                0x00000050       0x10 build/default/production/_ext/971049567/Vector3D.o
 .gnu.attributes
                0x00000060       0x10 build/default/production/_ext/1360937237/main.o
 .gnu.attributes
                0x00000070       0x10 build/default/production/_ext/1360937237/app.o
 .gnu.attributes
                0x00000080       0x10 build/default/production/_ext/1360937237/mavlink_recv_task.o
 .gnu.attributes
                0x00000090       0x10 build/default/production/_ext/1360937237/mavlink_send_task.o
 .gnu.attributes
                0x000000a0       0x10 build/default/production/_ext/1360937237/mavlink_status_task.o
 .gnu.attributes
                0x000000b0       0x10 build/default/production/_ext/1360937237/att_controller_task.o
 .gnu.attributes
                0x000000c0       0x10 build/default/production/_ext/443942460/PID.o
 .gnu.attributes
                0x000000d0       0x10 build/default/production/_ext/1035051164/SixDOFQuadcopterModel.o
 .gnu.attributes
                0x000000e0       0x10 build/default/production/_ext/1204493032/PositionEstimatorAltitude.o
 .gnu.attributes
                0x000000f0       0x10 build/default/production/_ext/1204493032/SensFusion.o
 .gnu.attributes
                0x00000100       0x10 build/default/production/_ext/1204493032/ComplementaryFilter.o
 .gnu.attributes
                0x00000110       0x10 build/default/production/_ext/1204493032/AttitudeController.o
 .gnu.attributes
                0x00000120       0x10 build/default/production/_ext/149289479/MAVLinkSender.o
 .gnu.attributes
                0x00000130       0x10 build/default/production/_ext/149289479/MAVLinkHandler.o
 .gnu.attributes
                0x00000140       0x10 build/default/production/_ext/1715884449/AttitudeControllerTask.o
 .gnu.attributes
                0x00000150       0x10 build/default/production/_ext/1158199258/MAVLinkSendTask.o
 .gnu.attributes
                0x00000160       0x10 build/default/production/_ext/1158199258/MAVLinkRecvTask.o
 .gnu.attributes
                0x00000170       0x10 build/default/production/_ext/1315301415/TOFUpdateTask.o
 .gnu.attributes
                0x00000180       0x10 build/default/production/_ext/1315301415/MAVStatusTask.o
 .gnu.attributes
                0x00000190       0x10 build/default/production/_ext/1315301415/IMUUpdateTask.o
 .gnu.attributes
                0x000001a0       0x10 build/default/production/_ext/1313821444/num.o
 .gnu.attributes
                0x000001b0       0x10 build/default/production/_ext/1353086322/osal_freertos.o
 .gnu.attributes
                0x000001c0       0x10 build/default/production/_ext/121284916/sys_devcon.o
 .gnu.attributes
                0x000001d0       0x10 build/default/production/_ext/121284916/sys_devcon_pic32mz.o
 .gnu.attributes
                0x000001e0       0x10 build/default/production/_ext/1317643790/sys_int_pic32.o
 .gnu.attributes
                0x000001f0       0x10 build/default/production/_ext/1276567923/croutine.o
 .gnu.attributes
                0x00000200       0x10 build/default/production/_ext/1276567923/list.o
 .gnu.attributes
                0x00000210       0x10 build/default/production/_ext/1276567923/queue.o
 .gnu.attributes
                0x00000220       0x10 build/default/production/_ext/1276567923/tasks.o
 .gnu.attributes
                0x00000230       0x10 build/default/production/_ext/1276567923/timers.o
 .gnu.attributes
                0x00000240       0x10 build/default/production/_ext/1276567923/event_groups.o
 .gnu.attributes
                0x00000250       0x10 build/default/production/_ext/457403440/heap_1.o
 .gnu.attributes
                0x00000260       0x10 build/default/production/_ext/1571139743/port.o
 .gnu.attributes
                0x00000270       0x10 build/default/production/_ext/1047219354/drv_oc_mapping.o
 .gnu.attributes
                0x00000280       0x10 build/default/production/_ext/1047219354/drv_oc_static.o
 .gnu.attributes
                0x00000290       0x10 build/default/production/_ext/1407244131/drv_tmr_static.o
 .gnu.attributes
                0x000002a0       0x10 build/default/production/_ext/1407244131/drv_tmr_mapping.o
 .gnu.attributes
                0x000002b0       0x10 build/default/production/_ext/327000265/drv_usart_mapping.o
 .gnu.attributes
                0x000002c0       0x10 build/default/production/_ext/327000265/drv_usart_static.o
 .gnu.attributes
                0x000002d0       0x10 build/default/production/_ext/327000265/drv_usart_static_byte_model.o
 .gnu.attributes
                0x000002e0       0x10 build/default/production/_ext/639803181/sys_clk_pic32mz.o
 .gnu.attributes
                0x000002f0       0x10 build/default/production/_ext/822048611/sys_ports_static.o
 .gnu.attributes
                0x00000300       0x10 build/default/production/_ext/1688732426/system_init.o
 .gnu.attributes
                0x00000310       0x10 build/default/production/_ext/1688732426/system_interrupt.o
 .gnu.attributes
                0x00000320       0x10 build/default/production/_ext/1688732426/general_exception_handler.o
 .gnu.attributes
                0x00000330       0x10 build/default/production/_ext/1688732426/fassert.o
 .gnu.attributes
                0x00000340       0x10 build/default/production/_ext/1688732426/system_tasks.o
 .gnu.attributes
                0x00000350       0x10 build/default/production/_ext/1688732426/rtos_hooks.o
 .gnu.attributes
                0x00000360       0x10 /opt/microchip/xc32/v2.41/bin/bin/../../lib/gcc/pic32mx/4.8.3/libgcc.a(floatunsisf.o)
 .gnu.attributes
                0x00000370       0x10 /opt/microchip/xc32/v2.41/bin/bin/../../lib/gcc/pic32mx/4.8.3/../../../../pic32mx/lib/libpic32.a(default-bootstrap-exception-handler.o)
 .gnu.attributes
                0x00000380       0x10 /opt/microchip/xc32/v2.41/bin/bin/../../lib/gcc/pic32mx/4.8.3/../../../../pic32mx/lib/libpic32.a(default-on-reset.o)
 .gnu.attributes
                0x00000390       0x10 /opt/microchip/xc32/v2.41/bin/bin/../../lib/gcc/pic32mx/4.8.3/../../../../pic32mx/lib/libpic32.a(default-on-bootstrap.o)
 .gnu.attributes
                0x000003a0       0x10 /opt/microchip/xc32/v2.41/bin/bin/../../lib/gcc/pic32mx/4.8.3/../../../../pic32mx/lib/libpic32.a(defaultinterrupt.o)
 .gnu.attributes
                0x000003b0       0x10 /opt/microchip/xc32/v2.41/bin/bin/../../lib/gcc/pic32mx/4.8.3/../../../../pic32mx/lib/libpic32.a(default-cache-err-exception-handler.o)
 .gnu.attributes
                0x000003c0       0x10 /opt/microchip/xc32/v2.41/bin/bin/../../lib/gcc/pic32mx/4.8.3/../../../../pic32mx/lib/libpic32.a(default-simple-tlb-refill-exception-handler.o)
 .gnu.attributes
                0x000003d0       0x10 /opt/microchip/xc32/v2.41/bin/bin/../../lib/gcc/pic32mx/4.8.3/../../../../pic32mx/lib/libc.a(malloc.o)
 .gnu.attributes
                0x000003e0       0x10 /opt/microchip/xc32/v2.41/bin/bin/../../lib/gcc/pic32mx/4.8.3/../../../../pic32mx/lib/libc.a(puts.o)
 .gnu.attributes
                0x000003f0       0x10 /opt/microchip/xc32/v2.41/bin/bin/../../lib/gcc/pic32mx/4.8.3/../../../../pic32mx/lib/libc.a(strcat.o)
 .gnu.attributes
                0x00000400       0x10 /opt/microchip/xc32/v2.41/bin/bin/../../lib/gcc/pic32mx/4.8.3/../../../../pic32mx/lib/libc.a(sprintf_cdnopuxX.eo)
 .gnu.attributes
                0x00000410       0x10 /opt/microchip/xc32/v2.41/bin/bin/../../lib/gcc/pic32mx/4.8.3/../../../../pic32mx/lib/libc.a(_iob.o)
 .gnu.attributes
                0x00000420       0x10 /opt/microchip/xc32/v2.41/bin/bin/../../lib/gcc/pic32mx/4.8.3/../../../../pic32mx/lib/libc.a(_fputc_simple.o)
 .gnu.attributes
                0x00000430       0x10 /opt/microchip/xc32/v2.41/bin/bin/../../lib/gcc/pic32mx/4.8.3/../../../../pic32mx/lib/libc.a(doprnt_cdnopuxX.eo)
 .gnu.attributes
                0x00000440       0x10 /opt/microchip/xc32/v2.41/bin/bin/../../lib/gcc/pic32mx/4.8.3/../../../../pic32mx/lib/libc.a(_flsbuf_simple.o)
 .gnu.attributes
                0x00000450       0x10 /opt/microchip/xc32/v2.41/bin/bin/../../lib/gcc/pic32mx/4.8.3/../../../../pic32mx/lib/libc.a(ctype.o)
 .gnu.attributes
                0x00000460       0x10 /opt/microchip/xc32/v2.41/bin/bin/../../lib/gcc/pic32mx/4.8.3/../../../../pic32mx/lib/libm.a(w_asinf.o)
 .gnu.attributes
                0x00000470       0x10 /opt/microchip/xc32/v2.41/bin/bin/../../lib/gcc/pic32mx/4.8.3/../../../../pic32mx/lib/libm.a(w_atan2f.o)
 .gnu.attributes
                0x00000480       0x10 /opt/microchip/xc32/v2.41/bin/bin/../../lib/gcc/pic32mx/4.8.3/../../../../pic32mx/lib/libm.a(support.o)
 .gnu.attributes
                0x00000490       0x10 /opt/microchip/xc32/v2.41/bin/bin/../../lib/gcc/pic32mx/4.8.3/../../../../pic32mx/lib/libm.a(s_lib_ver.o)
 .gnu.attributes
                0x000004a0       0x10 /opt/microchip/xc32/v2.41/bin/bin/../../lib/gcc/pic32mx/4.8.3/libgcc.a(_udivdi3.o)
 .gnu.attributes
                0x000004b0       0x10 /opt/microchip/xc32/v2.41/bin/bin/../../lib/gcc/pic32mx/4.8.3/libgcc.a(_umoddi3.o)
 .gnu.attributes
                0x000004c0       0x10 /opt/microchip/xc32/v2.41/bin/bin/../../lib/gcc/pic32mx/4.8.3/../../../../pic32mx/lib/libpic32.a(sbrk.o)
 .gnu.attributes
                0x000004d0       0x10 /opt/microchip/xc32/v2.41/bin/bin/../../lib/gcc/pic32mx/4.8.3/../../../../pic32mx/lib/libpic32.a(write.o)
 .gnu.attributes
                0x000004e0       0x10 /opt/microchip/xc32/v2.41/bin/bin/../../lib/gcc/pic32mx/4.8.3/../../../../pic32mx/lib/libpic32.a(errno.o)
 .gnu.attributes
                0x000004f0       0x10 /opt/microchip/xc32/v2.41/bin/bin/../../lib/gcc/pic32mx/4.8.3/../../../../pic32mx/lib/libpic32.a(_mon_putc.o)
 .gnu.attributes
                0x00000500       0x10 /opt/microchip/xc32/v2.41/bin/bin/../../lib/gcc/pic32mx/4.8.3/../../../../pic32mx/lib/libpic32.a(xc32_uart.o)
                0x9d000000                PROVIDE (__pic32_init_cache_program_base_addr, 0x9d000000)
                0x80000000                PROVIDE (__pic32_init_cache_data_base_addr, 0x80000000)
                0xd0000000                PROVIDE (__pic32_init_sqi_kseg2_virtual_base_addr, 0xd0000000)
                0x30000000                PROVIDE (__pic32_init_sqi_kseg2_physical_base_addr, 0x30000000)
                0x0000001f                PROVIDE (__pic32_init_sqi_kseg2_entrylo0_bitset, 0x1f)
                0xd0000000                __pic32_tlb_0_entryhi = __pic32_init_sqi_kseg2_virtual_base_addr
                0x00c0001f                __pic32_tlb_0_entrylo0 = ((__pic32_init_sqi_kseg2_physical_base_addr >> 0x6) | __pic32_init_sqi_kseg2_entrylo0_bitset)
                0x00c4001f                __pic32_tlb_0_entrylo1 = (__pic32_tlb_0_entrylo0 | ((__pic32_init_sqi_kseg2_physical_base_addr + 0x1000000) >> 0x6))
                0xd2000000                __pic32_tlb_1_entryhi = (__pic32_init_sqi_kseg2_virtual_base_addr + 0x2000000)
                0x00c8001f                __pic32_tlb_1_entrylo0 = (((__pic32_init_sqi_kseg2_physical_base_addr + 0x2000000) >> 0x6) | __pic32_init_sqi_kseg2_entrylo0_bitset)
                0x00cc001f                __pic32_tlb_1_entrylo1 = (__pic32_tlb_1_entrylo0 | 0x40000)
                0xf0000000                PROVIDE (__pic32_init_sqi_kseg3_virtual_base_addr, 0xf0000000)
                0x30000000                PROVIDE (__pic32_init_sqi_kseg3_physical_base_addr, 0x30000000)
                0x00000017                PROVIDE (__pic32_init_sqi_kseg3_entrylo0_bitset, 0x17)
                0xf0000000                __pic32_tlb_2_entryhi = __pic32_init_sqi_kseg3_virtual_base_addr
                0x00c00017                __pic32_tlb_2_entrylo0 = ((__pic32_init_sqi_kseg3_physical_base_addr >> 0x6) | __pic32_init_sqi_kseg3_entrylo0_bitset)
                0x00c40017                __pic32_tlb_2_entrylo1 = (__pic32_tlb_2_entrylo0 | ((__pic32_init_sqi_kseg3_physical_base_addr + 0x1000000) >> 0x6))
                0xf2000000                __pic32_tlb_3_entryhi = (__pic32_init_sqi_kseg3_virtual_base_addr + 0x2000000)
                0x00c80017                __pic32_tlb_3_entrylo0 = (((__pic32_init_sqi_kseg3_physical_base_addr + 0x2000000) >> 0x6) | __pic32_init_sqi_kseg3_entrylo0_bitset)
                0x00cc0017                __pic32_tlb_3_entrylo1 = (__pic32_tlb_3_entrylo0 | 0x40000)
                0xc0000000                PROVIDE (__pic32_init_ebi_kseg2_virtual_base_addr, 0xc0000000)
                0x20000000                PROVIDE (__pic32_init_ebi_kseg2_physical_base_addr, 0x20000000)
                0x0000001f                PROVIDE (__pic32_init_ebi_kseg2_entrylo0_bitset, 0x1f)
                0xc0000000                __pic32_tlb_4_entryhi = __pic32_init_ebi_kseg2_virtual_base_addr
                0x0080001f                __pic32_tlb_4_entrylo0 = ((__pic32_init_ebi_kseg2_physical_base_addr >> 0x6) | __pic32_init_ebi_kseg2_entrylo0_bitset)
                0x0084001f                __pic32_tlb_4_entrylo1 = (__pic32_tlb_4_entrylo0 | ((__pic32_init_ebi_kseg2_physical_base_addr + 0x1000000) >> 0x6))
                0xc2000000                __pic32_tlb_5_entryhi = (__pic32_init_ebi_kseg2_virtual_base_addr + 0x2000000)
                0x0088001f                __pic32_tlb_5_entrylo0 = (((__pic32_init_ebi_kseg2_physical_base_addr + 0x2000000) >> 0x6) | __pic32_init_ebi_kseg2_entrylo0_bitset)
                0x008c001f                __pic32_tlb_5_entrylo1 = (__pic32_tlb_5_entrylo0 | 0x40000)
                0xe0000000                PROVIDE (__pic32_init_ebi_kseg3_virtual_base_addr, 0xe0000000)
                0x20000000                PROVIDE (__pic32_init_ebi_kseg3_physical_base_addr, 0x20000000)
                0x00000017                PROVIDE (__pic32_init_ebi_kseg3_entrylo0_bitset, 0x17)
                0xe0000000                __pic32_tlb_6_entryhi = __pic32_init_ebi_kseg3_virtual_base_addr
                0x00800017                __pic32_tlb_6_entrylo0 = ((__pic32_init_ebi_kseg3_physical_base_addr >> 0x6) | __pic32_init_ebi_kseg3_entrylo0_bitset)
                0x00840017                __pic32_tlb_6_entrylo1 = (__pic32_tlb_6_entrylo0 | ((__pic32_init_ebi_kseg3_physical_base_addr + 0x1000000) >> 0x6))
                0xe2000000                __pic32_tlb_7_entryhi = (__pic32_init_ebi_kseg3_virtual_base_addr + 0x2000000)
                0x00880017                __pic32_tlb_7_entrylo0 = (((__pic32_init_ebi_kseg3_physical_base_addr + 0x2000000) >> 0x6) | __pic32_init_ebi_kseg3_entrylo0_bitset)
                0x008c0017                __pic32_tlb_7_entrylo1 = (__pic32_tlb_7_entrylo0 | 0x40000)

.tlb_init_values
                0xbfc00670       0x60
                0xbfc00670                . = ALIGN (0x4)
                0xbfc00670                __pic32_tlb_init_values_begin = ABSOLUTE (.)
                0xbfc00670        0x4 LONG 0xd0000000 __pic32_tlb_0_entryhi
                0xbfc00674        0x4 LONG 0xc0001f __pic32_tlb_0_entrylo0
                0xbfc00678        0x4 LONG 0xc4001f __pic32_tlb_0_entrylo1
                0xbfc0067c        0x4 LONG 0xd2000000 __pic32_tlb_1_entryhi
                0xbfc00680        0x4 LONG 0xc8001f __pic32_tlb_1_entrylo0
                0xbfc00684        0x4 LONG 0xcc001f __pic32_tlb_1_entrylo1
                0xbfc00688        0x4 LONG 0xf0000000 __pic32_tlb_2_entryhi
                0xbfc0068c        0x4 LONG 0xc00017 __pic32_tlb_2_entrylo0
                0xbfc00690        0x4 LONG 0xc40017 __pic32_tlb_2_entrylo1
                0xbfc00694        0x4 LONG 0xf2000000 __pic32_tlb_3_entryhi
                0xbfc00698        0x4 LONG 0xc80017 __pic32_tlb_3_entrylo0
                0xbfc0069c        0x4 LONG 0xcc0017 __pic32_tlb_3_entrylo1
                0xbfc006a0        0x4 LONG 0xc0000000 __pic32_tlb_4_entryhi
                0xbfc006a4        0x4 LONG 0x80001f __pic32_tlb_4_entrylo0
                0xbfc006a8        0x4 LONG 0x84001f __pic32_tlb_4_entrylo1
                0xbfc006ac        0x4 LONG 0xc2000000 __pic32_tlb_5_entryhi
                0xbfc006b0        0x4 LONG 0x88001f __pic32_tlb_5_entrylo0
                0xbfc006b4        0x4 LONG 0x8c001f __pic32_tlb_5_entrylo1
                0xbfc006b8        0x4 LONG 0xe0000000 __pic32_tlb_6_entryhi
                0xbfc006bc        0x4 LONG 0x800017 __pic32_tlb_6_entrylo0
                0xbfc006c0        0x4 LONG 0x840017 __pic32_tlb_6_entrylo1
                0xbfc006c4        0x4 LONG 0xe2000000 __pic32_tlb_7_entryhi
                0xbfc006c8        0x4 LONG 0x880017 __pic32_tlb_7_entrylo0
                0xbfc006cc        0x4 LONG 0x8c0017 __pic32_tlb_7_entrylo1
                0xbfc006d0                __pic32_tlb_init_values_end = ABSOLUTE (.)
                0x00000008                __pic32_tlb_init_values_count = 0x8
LOAD /opt/microchip/xc32/v2.41/bin/bin/../../lib/gcc/pic32mx/4.8.3/libgcc.a
START GROUP
LOAD /opt/microchip/xc32/v2.41/bin/bin/../../lib/gcc/pic32mx/4.8.3/../../../../pic32mx/lib/libpic32.a
LOAD /opt/microchip/xc32/v2.41/bin/bin/../../lib/gcc/pic32mx/4.8.3/../../../../pic32mx/lib/libdebug.a
LOAD /opt/microchip/xc32/v2.41/bin/bin/../../lib/gcc/pic32mx/4.8.3/../../../../pic32mx/lib/libpic32.a
LOAD /opt/microchip/xc32/v2.41/bin/bin/../../lib/gcc/pic32mx/4.8.3/../../../../pic32mx/lib/libc.a
LOAD /opt/microchip/xc32/v2.41/bin/bin/../../lib/gcc/pic32mx/4.8.3/../../../../pic32mx/lib/libc.a
LOAD /opt/microchip/xc32/v2.41/bin/bin/../../lib/gcc/pic32mx/4.8.3/../../../../pic32mx/lib/libm.a
LOAD /opt/microchip/xc32/v2.41/bin/bin/../../lib/gcc/pic32mx/4.8.3/../../../../pic32mx/lib/libe.a
LOAD /opt/microchip/xc32/v2.41/bin/bin/../../lib/gcc/pic32mx/4.8.3/../../../../pic32mx/lib/libdspr2.a
LOAD /opt/microchip/xc32/v2.41/bin/bin/../../lib/gcc/pic32mx/4.8.3/../../../../pic32mx/lib/libdsp.a
LOAD /opt/microchip/xc32/v2.41/bin/bin/../../lib/gcc/pic32mx/4.8.3/libgcc.a
LOAD /opt/microchip/xc32/v2.41/bin/bin/../../lib/gcc/pic32mx/4.8.3/../../../../pic32mx/lib/libpic32.a
END GROUP
LOAD /opt/microchip/xc32/v2.41/bin/bin/../../lib/gcc/pic32mx/4.8.3/libgcc.a
OUTPUT(dist/default/production/MicroDron-PIC32-HV2.X.production.elf elf32-tradlittlemips)
LOAD stack
LOAD data_init

.reginfo        0x00000000       0x18
 .reginfo       0x00000000       0x18 /opt/microchip/xc32/v2.41/bin/bin/../../lib/gcc/pic32mx/4.8.3/../../../../pic32mx/lib/debug-exception-return.o

.stack          0x80064e00      0x400
 .stack         0x80064e00      0x400 stack

.__vector_offset_BF810740_data
                0xbf810740       0xfc
 .__vector_offset_BF810740_data
                0xbf810740       0xfc /opt/microchip/xc32/v2.41/bin/bin/../../lib/gcc/pic32mx/4.8.3/../../../../pic32mx/lib/./proc/32MZ2048ECM100/vector_offset_init.o

.__vector_offset_BF810540_data
                0xbf810540       0xb4
 .__vector_offset_BF810540_data
                0xbf810540       0xb4 /opt/microchip/xc32/v2.41/bin/bin/../../lib/gcc/pic32mx/4.8.3/../../../../pic32mx/lib/./proc/32MZ2048ECM100/vector_offset_init.o

.__vector_offset_BF81062C_data
                0xbf81062c       0x8c
 .__vector_offset_BF81062C_data
                0xbf81062c       0x8c /opt/microchip/xc32/v2.41/bin/bin/../../lib/gcc/pic32mx/4.8.3/../../../../pic32mx/lib/./proc/32MZ2048ECM100/vector_offset_init.o

.__vector_offset_BF8106F4_data
                0xbf8106f4       0x40
 .__vector_offset_BF8106F4_data
                0xbf8106f4       0x40 /opt/microchip/xc32/v2.41/bin/bin/../../lib/gcc/pic32mx/4.8.3/../../../../pic32mx/lib/./proc/32MZ2048ECM100/vector_offset_init.o

.__vector_offset_BF8105F8_data
                0xbf8105f8       0x30
 .__vector_offset_BF8105F8_data
                0xbf8105f8       0x30 /opt/microchip/xc32/v2.41/bin/bin/../../lib/gcc/pic32mx/4.8.3/../../../../pic32mx/lib/./proc/32MZ2048ECM100/vector_offset_init.o

.__vector_offset_BF8106D8_data
                0xbf8106d8       0x18
 .__vector_offset_BF8106D8_data
                0xbf8106d8       0x18 /opt/microchip/xc32/v2.41/bin/bin/../../lib/gcc/pic32mx/4.8.3/../../../../pic32mx/lib/./proc/32MZ2048ECM100/vector_offset_init.o

.bss            0x800000fc    0x63c00
 .bss           0x800000fc    0x63c00 build/default/production/_ext/457403440/heap_1.o

.bss            0x80063d00      0xb3c
 .bss           0x80063d00      0x640 build/default/production/_ext/1571139743/port.o
                0x80063d00                xISRStack
 .bss           0x80064340      0x4fc build/default/production/_ext/1650642999/comms.o

.bss            0x8006483c      0x4a4
 .bss           0x8006483c      0x260 build/default/production/_ext/1158199258/MAVLinkRecvTask.o
 .bss           0x80064a9c      0x244 build/default/production/_ext/1158199258/MAVLinkSendTask.o

.bss            0x80064ce0      0x104
 .bss           0x80064ce0      0x104 build/default/production/_ext/1276567923/tasks.o

._debug_exception
                0xbfc00480       0x2c
 ._debug_exception
                0xbfc00480       0x2c /opt/microchip/xc32/v2.41/bin/bin/../../lib/gcc/pic32mx/4.8.3/../../../../pic32mx/lib/debug-exception-return.o
                0xbfc00480                __DbgExecReturn

.text.hal_comms_recv_buffer
                0x9d001638     0x1818
 .text.hal_comms_recv_buffer
                0x9d001638     0x1818 build/default/production/_ext/1650642999/comms.o
                0x9d001638                hal_comms_recv_buffer

.rodata         0x9d002e50      0xb14
 .rodata        0x9d002e50      0xb14 build/default/production/_ext/1650642999/comms.o

.dinit          0x9d003964      0x440
 .dinit         0x9d003964      0x440 data_init

.text.xTaskCreate
                0x9d003da4      0x2c0
 .text.xTaskCreate
                0x9d003da4      0x2c0 build/default/production/_ext/1276567923/tasks.o
                0x9d003da4                xTaskCreate

.text.MAVLinkSend_Update
                0x9d004064      0x234
 .text.MAVLinkSend_Update
                0x9d004064      0x234 build/default/production/_ext/1158199258/MAVLinkSendTask.o
                0x9d004064                MAVLinkSend_Update

.text.xQueueSemaphoreTake
                0x9d004298      0x22c
 .text.xQueueSemaphoreTake
                0x9d004298      0x22c build/default/production/_ext/1276567923/queue.o
                0x9d004298                xQueueSemaphoreTake

.text.xQueueGenericSend
                0x9d0044c4      0x20c
 .text.xQueueGenericSend
                0x9d0044c4      0x20c build/default/production/_ext/1276567923/queue.o
                0x9d0044c4                xQueueGenericSend

.text.SYS_PORTS_Initialize
                0x9d0046d0      0x1e8
 .text.SYS_PORTS_Initialize
                0x9d0046d0      0x1e8 build/default/production/_ext/822048611/sys_ports_static.o
                0x9d0046d0                SYS_PORTS_Initialize

.text.SYS_Initialize
                0x9d0048b8      0x1e0
 .text.SYS_Initialize
                0x9d0048b8      0x1e0 build/default/production/_ext/1688732426/system_init.o
                0x9d0048b8                SYS_Initialize

.text.xQueueReceive
                0x9d004a98      0x1c0
 .text.xQueueReceive
                0x9d004a98      0x1c0 build/default/production/_ext/1276567923/queue.o
                0x9d004a98                xQueueReceive

.text.DRV_USART0_Initialize
                0x9d004c58      0x194
 .text.DRV_USART0_Initialize
                0x9d004c58      0x194 build/default/production/_ext/327000265/drv_usart_static.o
                0x9d004c58                DRV_USART0_Initialize

.text.DRV_USART1_Initialize
                0x9d004dec      0x194
 .text.DRV_USART1_Initialize
                0x9d004dec      0x194 build/default/production/_ext/327000265/drv_usart_static.o
                0x9d004dec                DRV_USART1_Initialize

.text.xTaskIncrementTick
                0x9d004f80      0x184
 .text.xTaskIncrementTick
                0x9d004f80      0x184 build/default/production/_ext/1276567923/tasks.o
                0x9d004f80                xTaskIncrementTick

.text           0x9d005104      0x168
 .text          0x9d005104      0x168 /opt/microchip/xc32/v2.41/bin/bin/../../lib/gcc/pic32mx/4.8.3/../../../../pic32mx/lib/libpic32.a(memcpy.o)
                0x9d005104                memcpy

.text.xTaskPriorityInherit
                0x9d00526c      0x148
 .text.xTaskPriorityInherit
                0x9d00526c      0x148 build/default/production/_ext/1276567923/tasks.o
                0x9d00526c                xTaskPriorityInherit

.text.xTaskResumeAll
                0x9d0053b4      0x148
 .text.xTaskResumeAll
                0x9d0053b4      0x148 build/default/production/_ext/1276567923/tasks.o
                0x9d0053b4                xTaskResumeAll

.text.vTaskPriorityDisinheritAfterTimeout
                0x9d0054fc      0x110
 .text.vTaskPriorityDisinheritAfterTimeout
                0x9d0054fc      0x110 build/default/production/_ext/1276567923/tasks.o
                0x9d0054fc                vTaskPriorityDisinheritAfterTimeout

.text.general_exception
                0x9d00560c      0x110
 .text.general_exception
                0x9d00560c      0x110 build/default/production/_ext/1688732426/general-exception-context.o
                0x9d00560c                _general_exception_context

.text.SYS_Tasks
                0x9d00571c      0x108
 .text.SYS_Tasks
                0x9d00571c      0x108 build/default/production/_ext/1688732426/system_tasks.o
                0x9d00571c                SYS_Tasks

.text.SYS_DEVCON_PerformanceConfig
                0x9d005824      0x104
 .text.SYS_DEVCON_PerformanceConfig
                0x9d005824      0x104 build/default/production/_ext/121284916/sys_devcon_pic32mz.o
                0x9d005824                SYS_DEVCON_PerformanceConfig

.text           0x9d005928      0x104
 .text          0x9d005928      0x104 build/default/production/_ext/1571139743/port_asm.o
                0x9d005928                vPortStartFirstTask

.text.prvUnlockQueue
                0x9d005a2c      0x100
 .text.prvUnlockQueue
                0x9d005a2c      0x100 build/default/production/_ext/1276567923/queue.o

.text.SYS_CLK_Initialize
                0x9d005b2c       0xf8
 .text.SYS_CLK_Initialize
                0x9d005b2c       0xf8 build/default/production/_ext/639803181/sys_clk_pic32mz.o
                0x9d005b2c                SYS_CLK_Initialize

.text.prvCopyDataToQueue
                0x9d005c24       0xf4
 .text.prvCopyDataToQueue
                0x9d005c24       0xf4 build/default/production/_ext/1276567923/queue.o

.text.xTaskPriorityDisinherit
                0x9d005d18       0xf4
 .text.xTaskPriorityDisinherit
                0x9d005d18       0xf4 build/default/production/_ext/1276567923/tasks.o
                0x9d005d18                xTaskPriorityDisinherit

.text.prvAddCurrentTaskToDelayedList
                0x9d000010       0xe4
 .text.prvAddCurrentTaskToDelayedList
                0x9d000010       0xe4 build/default/production/_ext/1276567923/tasks.o

.text.vTaskSwitchContext
                0x9d005e0c       0xe0
 .text.vTaskSwitchContext
                0x9d005e0c       0xe0 build/default/production/_ext/1276567923/tasks.o
                0x9d005e0c                vTaskSwitchContext

.text._cache_err_exception_context
                0x9d005eec       0xd8
 .text._cache_err_exception_context
                0x9d005eec       0xd8 /opt/microchip/xc32/v2.41/bin/bin/../../lib/gcc/pic32mx/4.8.3/../../../../pic32mx/lib/libpic32.a(cache-err-exception.o)
                0x9d005eec                _cache_err_exception_context

.text.simple_tlb_refill_context
                0x9d005fc4       0xd8
 .text.simple_tlb_refill_context
                0x9d005fc4       0xd8 /opt/microchip/xc32/v2.41/bin/bin/../../lib/gcc/pic32mx/4.8.3/../../../../pic32mx/lib/libpic32.a(simple-tlb-refill-exception.o)
                0x9d005fc4                _simple_tlb_refill_exception_context

.text.APP_Tasks
                0x9d00609c       0xc0
 .text.APP_Tasks
                0x9d00609c       0xc0 build/default/production/_ext/1360937237/app.o
                0x9d00609c                APP_Tasks

.text.xQueueGenericReset
                0x9d00615c       0xc0
 .text.xQueueGenericReset
                0x9d00615c       0xc0 build/default/production/_ext/1276567923/queue.o
                0x9d00615c                xQueueGenericReset

.text.xTaskRemoveFromEventList
                0x9d00621c       0xbc
 .text.xTaskRemoveFromEventList
                0x9d00621c       0xbc build/default/production/_ext/1276567923/tasks.o
                0x9d00621c                xTaskRemoveFromEventList

.tlb.__pic32_tlb_init_ebi_sqi
                0x9d0062d8       0xbc
 .tlb.__pic32_tlb_init_ebi_sqi
                0x9d0062d8       0xbc /opt/microchip/xc32/v2.41/bin/bin/../../lib/gcc/pic32mx/4.8.3/../../../../pic32mx/lib/libpic32.a(pic32_init_tlb_ebi_sqi.o)
                0x9d0062d8                __pic32_tlb_init_ebi_sqi

.text.pvPortMalloc
                0x9d006394       0xb8
 .text.pvPortMalloc
                0x9d006394       0xb8 build/default/production/_ext/457403440/heap_1.o
                0x9d006394                pvPortMalloc

.text.prvIdleTask
                0x9d00644c       0xa8
 .text.prvIdleTask
                0x9d00644c       0xa8 build/default/production/_ext/1276567923/tasks.o

.text           0x9d0064f4       0xa8
 .text          0x9d0064f4       0xa8 /opt/microchip/xc32/v2.41/bin/bin/../../lib/gcc/pic32mx/4.8.3/../../../../pic32mx/lib/libpic32.a(memset.o)
                0x9d0064f4                memset

.text.xTaskCheckForTimeOut
                0x9d00659c       0xa4
 .text.xTaskCheckForTimeOut
                0x9d00659c       0xa4 build/default/production/_ext/1276567923/tasks.o
                0x9d00659c                xTaskCheckForTimeOut

.text           0x9d006640       0x98
 .text          0x9d006640       0x98 /opt/microchip/xc32/v2.41/bin/bin/../../lib/gcc/pic32mx/4.8.3/../../../../pic32mx/lib/libpic32.a(memcmp.o)
                0x9d006640                memcmp

.text.xQueueGenericCreate
                0x9d0066d8       0x94
 .text.xQueueGenericCreate
                0x9d0066d8       0x94 build/default/production/_ext/1276567923/queue.o
                0x9d0066d8                xQueueGenericCreate

.text           0x9d00676c       0x84
 .text          0x9d00676c       0x84 /opt/microchip/xc32/v2.41/bin/bin/../../lib/gcc/pic32mx/4.8.3/../../../../pic32mx/lib/libpic32.a(pic32_data_init.o)
                0x9d00676c                __pic32_data_init

.rodata         0x9d0067f0       0x80
 .rodata        0x9d0067f0       0x80 build/default/production/_ext/1688732426/system_tasks.o

.text.hal_comms_send_buffer
                0x9d006870       0x7c
 .text.hal_comms_send_buffer
                0x9d006870       0x7c build/default/production/_ext/1650642999/comms.o
                0x9d006870                hal_comms_send_buffer

.text.vTaskStartScheduler
                0x9d0068ec       0x78
 .text.vTaskStartScheduler
                0x9d0068ec       0x78 build/default/production/_ext/1276567923/tasks.o
                0x9d0068ec                vTaskStartScheduler

.text.DRV_TMR0_Initialize
                0x9d006964       0x78
 .text.DRV_TMR0_Initialize
                0x9d006964       0x78 build/default/production/_ext/1407244131/drv_tmr_static.o
                0x9d006964                DRV_TMR0_Initialize

.text.vApplicationSetupTickTimerInterrupt
                0x9d000110       0x6c
 .text.vApplicationSetupTickTimerInterrupt
                0x9d000110       0x6c build/default/production/_ext/1571139743/port.o
                0x9d000110                vApplicationSetupTickTimerInterrupt

.text.MAVLINK_SEND_TASK_Tasks
                0x9d000190       0x60
 .text.MAVLINK_SEND_TASK_Tasks
                0x9d000190       0x60 build/default/production/_ext/1360937237/mavlink_send_task.o
                0x9d000190                MAVLINK_SEND_TASK_Tasks

.text.MAVLinkRecv_Init
                0x9d0069dc       0x60
 .text.MAVLinkRecv_Init
                0x9d0069dc       0x60 build/default/production/_ext/1158199258/MAVLinkRecvTask.o
                0x9d0069dc                MAVLinkRecv_Init

.text.vListInsert
                0x9d006a3c       0x60
 .text.vListInsert
                0x9d006a3c       0x60 build/default/production/_ext/1276567923/list.o
                0x9d006a3c                vListInsert

.text.vTaskExitCritical
                0x9d006a9c       0x60
 .text.vTaskExitCritical
                0x9d006a9c       0x60 build/default/production/_ext/1276567923/tasks.o
                0x9d006a9c                vTaskExitCritical

.text.pxPortInitialiseStack
                0x9d006afc       0x60
 .text.pxPortInitialiseStack
                0x9d006afc       0x60 build/default/production/_ext/1571139743/port.o
                0x9d006afc                pxPortInitialiseStack

.text.DRV_USART0_WriteByte
                0x9d006b5c       0x60
 .text.DRV_USART0_WriteByte
                0x9d006b5c       0x60 build/default/production/_ext/327000265/drv_usart_static_byte_model.o
                0x9d006b5c                DRV_USART0_WriteByte

.text.xPortStartScheduler
                0x9d006bbc       0x5c
 .text.xPortStartScheduler
                0x9d006bbc       0x5c build/default/production/_ext/1571139743/port.o
                0x9d006bbc                xPortStartScheduler

.text.SYS_DEVCON_SystemUnlock
                0x9d006c18       0x58
 .text.SYS_DEVCON_SystemUnlock
                0x9d006c18       0x58 build/default/production/_ext/121284916/sys_devcon.o
                0x9d006c18                SYS_DEVCON_SystemUnlock

.text.xQueueCreateMutex
                0x9d006c70       0x58
 .text.xQueueCreateMutex
                0x9d006c70       0x58 build/default/production/_ext/1276567923/queue.o
                0x9d006c70                xQueueCreateMutex

.text.vTaskDelay
                0x9d006cc8       0x58
 .text.vTaskDelay
                0x9d006cc8       0x58 build/default/production/_ext/1276567923/tasks.o
                0x9d006cc8                vTaskDelay

.text.SYS_INT_SourceDisable
                0x9d006d20       0x54
 .text.SYS_INT_SourceDisable
                0x9d006d20       0x54 build/default/production/_ext/1317643790/sys_int_pic32.o
                0x9d006d20                SYS_INT_SourceDisable

.text.vPortIncrementTick
                0x9d006d74       0x54
 .text.vPortIncrementTick
                0x9d006d74       0x54 build/default/production/_ext/1571139743/port.o
                0x9d006d74                vPortIncrementTick

.text.main_entry
                0x9d006dc8       0x54
 .text.main_entry
                0x9d006dc8       0x54 /tmp/cckkSrlX.o
                0x9d006dfc                __crt0_exit

.text.prvCopyDataFromQueue
                0x9d006e1c       0x50
 .text.prvCopyDataFromQueue
                0x9d006e1c       0x50 build/default/production/_ext/1276567923/queue.o

.text.DRV_USART0_ReadByte
                0x9d006e6c       0x50
 .text.DRV_USART0_ReadByte
                0x9d006e6c       0x50 build/default/production/_ext/327000265/drv_usart_static_byte_model.o
                0x9d006e6c                DRV_USART0_ReadByte

.text.SYS_CLK_PeripheralFrequencyGet
                0x9d006ebc       0x50
 .text.SYS_CLK_PeripheralFrequencyGet
                0x9d006ebc       0x50 build/default/production/_ext/639803181/sys_clk_pic32mz.o
                0x9d006ebc                SYS_CLK_PeripheralFrequencyGet

.text.MAVLINK_RECV_TASK_Tasks
                0x9d006f0c       0x4c
 .text.MAVLINK_RECV_TASK_Tasks
                0x9d006f0c       0x4c build/default/production/_ext/1360937237/mavlink_recv_task.o
                0x9d006f0c                MAVLINK_RECV_TASK_Tasks

.text.MAVLINK_STATUS_TASK_Tasks
                0x9d006f58       0x4c
 .text.MAVLINK_STATUS_TASK_Tasks
                0x9d006f58       0x4c build/default/production/_ext/1360937237/mavlink_status_task.o
                0x9d006f58                MAVLINK_STATUS_TASK_Tasks

.text.uxListRemove
                0x9d006fa4       0x4c
 .text.uxListRemove
                0x9d006fa4       0x4c build/default/production/_ext/1276567923/list.o
                0x9d006fa4                uxListRemove

.text.DRV_USART_Initialize
                0x9d006ff0       0x4c
 .text.DRV_USART_Initialize
                0x9d006ff0       0x4c build/default/production/_ext/327000265/drv_usart_mapping.o
                0x9d006ff0                DRV_USART_Initialize

.text.DRV_USART0_TasksTransmit
                0x9d00703c       0x4c
 .text.DRV_USART0_TasksTransmit
                0x9d00703c       0x4c build/default/production/_ext/327000265/drv_usart_static.o
                0x9d00703c                DRV_USART0_TasksTransmit

.text.MAVLinkRecv_Update
                0x9d007088       0x48
 .text.MAVLinkRecv_Update
                0x9d007088       0x48 build/default/production/_ext/1158199258/MAVLinkRecvTask.o
                0x9d007088                MAVLinkRecv_Update

.text.SYS_DEVCON_SystemLock
                0x9d0070d0       0x48
 .text.SYS_DEVCON_SystemLock
                0x9d0070d0       0x48 build/default/production/_ext/121284916/sys_devcon.o
                0x9d0070d0                SYS_DEVCON_SystemLock

.text.vTaskEnterCritical
                0x9d007118       0x48
 .text.vTaskEnterCritical
                0x9d007118       0x48 build/default/production/_ext/1276567923/tasks.o
                0x9d007118                vTaskEnterCritical

.text.DRV_USART0_TransferStatus
                0x9d007160       0x48
 .text.DRV_USART0_TransferStatus
                0x9d007160       0x48 build/default/production/_ext/327000265/drv_usart_static.o
                0x9d007160                DRV_USART0_TransferStatus

.text.DRV_USART1_TasksTransmit
                0x9d0071a8       0x48
 .text.DRV_USART1_TasksTransmit
                0x9d0071a8       0x48 build/default/production/_ext/327000265/drv_usart_static.o
                0x9d0071a8                DRV_USART1_TasksTransmit

.text._bootstrap_exception_handler
                0x9d0071f0       0x48
 .text._bootstrap_exception_handler
                0x9d0071f0       0x48 /opt/microchip/xc32/v2.41/bin/bin/../../lib/gcc/pic32mx/4.8.3/../../../../pic32mx/lib/libpic32.a(default-bootstrap-exception-handler.o)
                0x9d0071f0                _bootstrap_exception_handler

.text._cache_err_exception_handler
                0x9d007238       0x48
 .text._cache_err_exception_handler
                0x9d007238       0x48 /opt/microchip/xc32/v2.41/bin/bin/../../lib/gcc/pic32mx/4.8.3/../../../../pic32mx/lib/libpic32.a(default-cache-err-exception-handler.o)
                0x9d007238                _cache_err_exception_handler

.text._simple_tlb_refill_exception_handler
                0x9d007280       0x48
 .text._simple_tlb_refill_exception_handler
                0x9d007280       0x48 /opt/microchip/xc32/v2.41/bin/bin/../../lib/gcc/pic32mx/4.8.3/../../../../pic32mx/lib/libpic32.a(default-simple-tlb-refill-exception-handler.o)
                0x9d007280                _simple_tlb_refill_exception_handler

.text.DRV_OC0_Initialize
                0x9d0072c8       0x44
 .text.DRV_OC0_Initialize
                0x9d0072c8       0x44 build/default/production/_ext/1047219354/drv_oc_static.o
                0x9d0072c8                DRV_OC0_Initialize

.text.DRV_OC1_Initialize
                0x9d00730c       0x44
 .text.DRV_OC1_Initialize
                0x9d00730c       0x44 build/default/production/_ext/1047219354/drv_oc_static.o
                0x9d00730c                DRV_OC1_Initialize

.text.DRV_OC2_Initialize
                0x9d007350       0x44
 .text.DRV_OC2_Initialize
                0x9d007350       0x44 build/default/production/_ext/1047219354/drv_oc_static.o
                0x9d007350                DRV_OC2_Initialize

.text.DRV_OC3_Initialize
                0x9d007394       0x44
 .text.DRV_OC3_Initialize
                0x9d007394       0x44 build/default/production/_ext/1047219354/drv_oc_static.o
                0x9d007394                DRV_OC3_Initialize

.text.DRV_USART_TasksTransmit
                0x9d0073d8       0x44
 .text.DRV_USART_TasksTransmit
                0x9d0073d8       0x44 build/default/production/_ext/327000265/drv_usart_mapping.o
                0x9d0073d8                DRV_USART_TasksTransmit

.text.DRV_USART_TasksReceive
                0x9d00741c       0x44
 .text.DRV_USART_TasksReceive
                0x9d00741c       0x44 build/default/production/_ext/327000265/drv_usart_mapping.o
                0x9d00741c                DRV_USART_TasksReceive

.text.DRV_USART_TasksError
                0x9d007460       0x44
 .text.DRV_USART_TasksError
                0x9d007460       0x44 build/default/production/_ext/327000265/drv_usart_mapping.o
                0x9d007460                DRV_USART_TasksError

.text           0x9d0074a4       0x44
 .text          0x9d0074a4       0x44 /opt/microchip/xc32/v2.41/bin/bin/../../lib/gcc/pic32mx/4.8.3/../../../../pic32mx/lib/pic32_software_reset.o
                0x9d0074a4                __pic32_software_reset

.text._general_exception_handler
                0x9d0074e8       0x40
 .text._general_exception_handler
                0x9d0074e8       0x40 build/default/production/_ext/1688732426/general_exception_handler.o
                0x9d0074e8                _general_exception_handler

.text.OSAL_MUTEX_Create
                0x9d007528       0x3c
 .text.OSAL_MUTEX_Create
                0x9d007528       0x3c build/default/production/_ext/1353086322/osal_freertos.o
                0x9d007528                OSAL_MUTEX_Create

.text.uxPortSetInterruptMaskFromISR
                0x9d007564       0x3c
 .text.uxPortSetInterruptMaskFromISR
                0x9d007564       0x3c build/default/production/_ext/1571139743/port.o
                0x9d007564                uxPortSetInterruptMaskFromISR

.text.DRV_TMR0_Start
                0x9d0075a0       0x3c
 .text.DRV_TMR0_Start
                0x9d0075a0       0x3c build/default/production/_ext/1407244131/drv_tmr_static.o
                0x9d0075a0                DRV_TMR0_Start

.text.OSAL_MUTEX_Lock
                0x9d0075dc       0x38
 .text.OSAL_MUTEX_Lock
                0x9d0075dc       0x38 build/default/production/_ext/1353086322/osal_freertos.o
                0x9d0075dc                OSAL_MUTEX_Lock

.text.prvResetNextTaskUnblockTime
                0x9d007614       0x38
 .text.prvResetNextTaskUnblockTime
                0x9d007614       0x38 build/default/production/_ext/1276567923/tasks.o

.text.vTaskPlaceOnEventList
                0x9d00764c       0x38
 .text.vTaskPlaceOnEventList
                0x9d00764c       0x38 build/default/production/_ext/1276567923/tasks.o
                0x9d00764c                vTaskPlaceOnEventList

.text.vListInsertEnd
                0x9d007684       0x34
 .text.vListInsertEnd
                0x9d007684       0x34 build/default/production/_ext/1276567923/list.o
                0x9d007684                vListInsertEnd

.text.prvIsQueueEmpty
                0x9d0076b8       0x34
 .text.prvIsQueueEmpty
                0x9d0076b8       0x34 build/default/production/_ext/1276567923/queue.o

.text.MAVLinkSend_Init
                0x9d0076ec       0x30
 .text.MAVLinkSend_Init
                0x9d0076ec       0x30 build/default/production/_ext/1158199258/MAVLinkSendTask.o
                0x9d0076ec                MAVLinkSend_Init

.text.OSAL_MUTEX_Unlock
                0x9d00771c       0x30
 .text.OSAL_MUTEX_Unlock
                0x9d00771c       0x30 build/default/production/_ext/1353086322/osal_freertos.o
                0x9d00771c                OSAL_MUTEX_Unlock

.text.DRV_USART0_TasksReceive
                0x9d00774c       0x30
 .text.DRV_USART0_TasksReceive
                0x9d00774c       0x30 build/default/production/_ext/327000265/drv_usart_static.o
                0x9d00774c                DRV_USART0_TasksReceive

.text.DRV_USART0_TasksError
                0x9d00777c       0x30
 .text.DRV_USART0_TasksError
                0x9d00777c       0x30 build/default/production/_ext/327000265/drv_usart_static.o
                0x9d00777c                DRV_USART0_TasksError

.text.DRV_USART1_TasksReceive
                0x9d0077ac       0x30
 .text.DRV_USART1_TasksReceive
                0x9d0077ac       0x30 build/default/production/_ext/327000265/drv_usart_static.o
                0x9d0077ac                DRV_USART1_TasksReceive

.text.DRV_USART1_TasksError
                0x9d0077dc       0x30
 .text.DRV_USART1_TasksError
                0x9d0077dc       0x30 build/default/production/_ext/327000265/drv_usart_static.o
                0x9d0077dc                DRV_USART1_TasksError

.text.pvTaskIncrementMutexHeldCount
                0x9d00780c       0x28
 .text.pvTaskIncrementMutexHeldCount
                0x9d00780c       0x28 build/default/production/_ext/1276567923/tasks.o
                0x9d00780c                pvTaskIncrementMutexHeldCount

.text._SYS_Tasks
                0x9d007834       0x28
 .text._SYS_Tasks
                0x9d007834       0x28 build/default/production/_ext/1688732426/system_tasks.o

.text.MAVLINK_SEND_TASK_Initialize
                0x9d00785c       0x24
 .text.MAVLINK_SEND_TASK_Initialize
                0x9d00785c       0x24 build/default/production/_ext/1360937237/mavlink_send_task.o
                0x9d00785c                MAVLINK_SEND_TASK_Initialize

.text.vListInitialise
                0x9d007880       0x24
 .text.vListInitialise
                0x9d007880       0x24 build/default/production/_ext/1276567923/list.o
                0x9d007880                vListInitialise

.text.prvTaskExitError
                0x9d0078a4       0x24
 .text.prvTaskExitError
                0x9d0078a4       0x24 build/default/production/_ext/1571139743/port.o

.text.vApplicationStackOverflowHook
                0x9d0078c8       0x24
 .text.vApplicationStackOverflowHook
                0x9d0078c8       0x24 build/default/production/_ext/1688732426/rtos_hooks.o
                0x9d0078c8                vApplicationStackOverflowHook

.text.vApplicationMallocFailedHook
                0x9d0078ec       0x24
 .text.vApplicationMallocFailedHook
                0x9d0078ec       0x24 build/default/production/_ext/1688732426/rtos_hooks.o
                0x9d0078ec                vApplicationMallocFailedHook

.text.main      0x9d007910       0x20
 .text.main     0x9d007910       0x20 build/default/production/_ext/1360937237/main.o
                0x9d007910                main

.text.IntHandlerDrvUsartTransmitInstance0
                0x9d007930       0x20
 .text.IntHandlerDrvUsartTransmitInstance0
                0x9d007930       0x20 build/default/production/_ext/1688732426/system_interrupt.o
                0x9d007930                IntHandlerDrvUsartTransmitInstance0

.text.IntHandlerDrvUsartReceiveInstance0
                0x9d007950       0x20
 .text.IntHandlerDrvUsartReceiveInstance0
                0x9d007950       0x20 build/default/production/_ext/1688732426/system_interrupt.o
                0x9d007950                IntHandlerDrvUsartReceiveInstance0

.text.IntHandlerDrvUsartErrorInstance0
                0x9d007970       0x20
 .text.IntHandlerDrvUsartErrorInstance0
                0x9d007970       0x20 build/default/production/_ext/1688732426/system_interrupt.o
                0x9d007970                IntHandlerDrvUsartErrorInstance0

.text.IntHandlerDrvUsartTransmitInstance1
                0x9d007990       0x20
 .text.IntHandlerDrvUsartTransmitInstance1
                0x9d007990       0x20 build/default/production/_ext/1688732426/system_interrupt.o
                0x9d007990                IntHandlerDrvUsartTransmitInstance1

.text.IntHandlerDrvUsartReceiveInstance1
                0x9d0079b0       0x20
 .text.IntHandlerDrvUsartReceiveInstance1
                0x9d0079b0       0x20 build/default/production/_ext/1688732426/system_interrupt.o
                0x9d0079b0                IntHandlerDrvUsartReceiveInstance1

.text.IntHandlerDrvUsartErrorInstance1
                0x9d0079d0       0x20
 .text.IntHandlerDrvUsartErrorInstance1
                0x9d0079d0       0x20 build/default/production/_ext/1688732426/system_interrupt.o
                0x9d0079d0                IntHandlerDrvUsartErrorInstance1

.text._ATT_CONTROLLER_TASK_Tasks
                0x9d0079f0       0x20
 .text._ATT_CONTROLLER_TASK_Tasks
                0x9d0079f0       0x20 build/default/production/_ext/1688732426/system_tasks.o

.text._MAVLINK_STATUS_TASK_Tasks
                0x9d007a10       0x20
 .text._MAVLINK_STATUS_TASK_Tasks
                0x9d007a10       0x20 build/default/production/_ext/1688732426/system_tasks.o

.text._MAVLINK_SEND_TASK_Tasks
                0x9d007a30       0x20
 .text._MAVLINK_SEND_TASK_Tasks
                0x9d007a30       0x20 build/default/production/_ext/1688732426/system_tasks.o

.text._MAVLINK_RECV_TASK_Tasks
                0x9d007a50       0x20
 .text._MAVLINK_RECV_TASK_Tasks
                0x9d007a50       0x20 build/default/production/_ext/1688732426/system_tasks.o

.text._APP_Tasks
                0x9d007a70       0x20
 .text._APP_Tasks
                0x9d007a70       0x20 build/default/production/_ext/1688732426/system_tasks.o

.text.hal_comms_init
                0x9d007a90       0x1c
 .text.hal_comms_init
                0x9d007a90       0x1c build/default/production/_ext/1650642999/comms.o
                0x9d007a90                hal_comms_init

.text.IntHandlerDrvTmrInstance0
                0x9d007aac       0x1c
 .text.IntHandlerDrvTmrInstance0
                0x9d007aac       0x1c build/default/production/_ext/1688732426/system_interrupt.o
                0x9d007aac                IntHandlerDrvTmrInstance0

.text.ATT_CONTROLLER_TASK_Tasks
                0x9d007ac8       0x18
 .text.ATT_CONTROLLER_TASK_Tasks
                0x9d007ac8       0x18 build/default/production/_ext/1360937237/att_controller_task.o
                0x9d007ac8                ATT_CONTROLLER_TASK_Tasks

.text.MAVStatus_Init
                0x9d007ae0       0x18
 .text.MAVStatus_Init
                0x9d007ae0       0x18 build/default/production/_ext/1315301415/MAVStatusTask.o
                0x9d007ae0                MAVStatus_Init

.text.DRV_USART0_ReceiverBufferIsEmpty
                0x9d007af8       0x18
 .text.DRV_USART0_ReceiverBufferIsEmpty
                0x9d007af8       0x18 build/default/production/_ext/327000265/drv_usart_static_byte_model.o
                0x9d007af8                DRV_USART0_ReceiverBufferIsEmpty

.text           0x9d007b10       0x18
 .text          0x9d007b10       0x18 /opt/microchip/xc32/v2.41/bin/bin/../../lib/gcc/pic32mx/4.8.3/../../../../pic32mx/lib/libpic32.a(default-nmi-handler.o)
                0x9d007b10                _nmi_handler

.text.SYS_DEVCON_Initialize
                0x9d007b28       0x14
 .text.SYS_DEVCON_Initialize
                0x9d007b28       0x14 build/default/production/_ext/121284916/sys_devcon.o
                0x9d007b28                SYS_DEVCON_Initialize

.text.SYS_INT_Initialize
                0x9d007b3c       0x14
 .text.SYS_INT_Initialize
                0x9d007b3c       0x14 build/default/production/_ext/1317643790/sys_int_pic32.o
                0x9d007b3c                SYS_INT_Initialize

.text.vTaskSuspendAll
                0x9d007b50       0x14
 .text.vTaskSuspendAll
                0x9d007b50       0x14 build/default/production/_ext/1276567923/tasks.o
                0x9d007b50                vTaskSuspendAll

.text.vTaskInternalSetTimeOutState
                0x9d007b64       0x14
 .text.vTaskInternalSetTimeOutState
                0x9d007b64       0x14 build/default/production/_ext/1276567923/tasks.o
                0x9d007b64                vTaskInternalSetTimeOutState

.text.DRV_OC0_Enable
                0x9d007b78       0x14
 .text.DRV_OC0_Enable
                0x9d007b78       0x14 build/default/production/_ext/1047219354/drv_oc_static.o
                0x9d007b78                DRV_OC0_Enable

.text.DRV_OC0_Start
                0x9d007b8c       0x14
 .text.DRV_OC0_Start
                0x9d007b8c       0x14 build/default/production/_ext/1047219354/drv_oc_static.o
                0x9d007b8c                DRV_OC0_Start

.text.DRV_OC0_PulseWidthSet
                0x9d007ba0       0x14
 .text.DRV_OC0_PulseWidthSet
                0x9d007ba0       0x14 build/default/production/_ext/1047219354/drv_oc_static.o
                0x9d007ba0                DRV_OC0_PulseWidthSet

.text.DRV_OC1_Enable
                0x9d007bb4       0x14
 .text.DRV_OC1_Enable
                0x9d007bb4       0x14 build/default/production/_ext/1047219354/drv_oc_static.o
                0x9d007bb4                DRV_OC1_Enable

.text.DRV_OC1_Start
                0x9d007bc8       0x14
 .text.DRV_OC1_Start
                0x9d007bc8       0x14 build/default/production/_ext/1047219354/drv_oc_static.o
                0x9d007bc8                DRV_OC1_Start

.text.DRV_OC1_PulseWidthSet
                0x9d007bdc       0x14
 .text.DRV_OC1_PulseWidthSet
                0x9d007bdc       0x14 build/default/production/_ext/1047219354/drv_oc_static.o
                0x9d007bdc                DRV_OC1_PulseWidthSet

.text.DRV_OC2_Enable
                0x9d007bf0       0x14
 .text.DRV_OC2_Enable
                0x9d007bf0       0x14 build/default/production/_ext/1047219354/drv_oc_static.o
                0x9d007bf0                DRV_OC2_Enable

.text.DRV_OC2_Start
                0x9d007c04       0x14
 .text.DRV_OC2_Start
                0x9d007c04       0x14 build/default/production/_ext/1047219354/drv_oc_static.o
                0x9d007c04                DRV_OC2_Start

.text.DRV_OC2_PulseWidthSet
                0x9d007c18       0x14
 .text.DRV_OC2_PulseWidthSet
                0x9d007c18       0x14 build/default/production/_ext/1047219354/drv_oc_static.o
                0x9d007c18                DRV_OC2_PulseWidthSet

.text.DRV_OC3_Enable
                0x9d007c2c       0x14
 .text.DRV_OC3_Enable
                0x9d007c2c       0x14 build/default/production/_ext/1047219354/drv_oc_static.o
                0x9d007c2c                DRV_OC3_Enable

.text.DRV_OC3_Start
                0x9d007c40       0x14
 .text.DRV_OC3_Start
                0x9d007c40       0x14 build/default/production/_ext/1047219354/drv_oc_static.o
                0x9d007c40                DRV_OC3_Start

.text.DRV_OC3_PulseWidthSet
                0x9d007c54       0x14
 .text.DRV_OC3_PulseWidthSet
                0x9d007c54       0x14 build/default/production/_ext/1047219354/drv_oc_static.o
                0x9d007c54                DRV_OC3_PulseWidthSet

.text.vTaskMissedYield
                0x9d0001f0       0x10
 .text.vTaskMissedYield
                0x9d0001f0       0x10 build/default/production/_ext/1276567923/tasks.o
                0x9d0001f0                vTaskMissedYield

.text.SYS_CLK_SystemFrequencyGet
                0x9d0000f4        0xc
 .text.SYS_CLK_SystemFrequencyGet
                0x9d0000f4        0xc build/default/production/_ext/639803181/sys_clk_pic32mz.o
                0x9d0000f4                SYS_CLK_SystemFrequencyGet

.text.APP_Initialize
                0x9d007c68        0x8
 .text.APP_Initialize
                0x9d007c68        0x8 build/default/production/_ext/1360937237/app.o
                0x9d007c68                APP_Initialize

.text.MAVLINK_RECV_TASK_Initialize
                0x9d007c70        0x8
 .text.MAVLINK_RECV_TASK_Initialize
                0x9d007c70        0x8 build/default/production/_ext/1360937237/mavlink_recv_task.o
                0x9d007c70                MAVLINK_RECV_TASK_Initialize

.text.MAVLINK_STATUS_TASK_Initialize
                0x9d007c78        0x8
 .text.MAVLINK_STATUS_TASK_Initialize
                0x9d007c78        0x8 build/default/production/_ext/1360937237/mavlink_status_task.o
                0x9d007c78                MAVLINK_STATUS_TASK_Initialize

.text.ATT_CONTROLLER_TASK_Initialize
                0x9d007c80        0x8
 .text.ATT_CONTROLLER_TASK_Initialize
                0x9d007c80        0x8 build/default/production/_ext/1360937237/att_controller_task.o
                0x9d007c80                ATT_CONTROLLER_TASK_Initialize

.text.MAVStatus_Update
                0x9d007c88        0x8
 .text.MAVStatus_Update
                0x9d007c88        0x8 build/default/production/_ext/1315301415/MAVStatusTask.o
                0x9d007c88                MAVStatus_Update

.text.SYS_DEVCON_Tasks
                0x9d007c90        0x8
 .text.SYS_DEVCON_Tasks
                0x9d007c90        0x8 build/default/production/_ext/121284916/sys_devcon.o
                0x9d007c90                SYS_DEVCON_Tasks

.text.vListInitialiseItem
                0x9d007c98        0x8
 .text.vListInitialiseItem
                0x9d007c98        0x8 build/default/production/_ext/1276567923/list.o
                0x9d007c98                vListInitialiseItem

.rodata         0x9d007ca0        0x8
 .rodata        0x9d007ca0        0x8 build/default/production/_ext/1276567923/tasks.o

.text.vPortFree
                0x9d007ca8        0x8
 .text.vPortFree
                0x9d007ca8        0x8 build/default/production/_ext/457403440/heap_1.o
                0x9d007ca8                vPortFree

.text.vApplicationIdleHook
                0x9d007cb0        0x8
 .text.vApplicationIdleHook
                0x9d007cb0        0x8 build/default/production/_ext/1688732426/rtos_hooks.o
                0x9d007cb0                vApplicationIdleHook

.text.vApplicationTickHook
                0x9d007cb8        0x8
 .text.vApplicationTickHook
                0x9d007cb8        0x8 build/default/production/_ext/1688732426/rtos_hooks.o
                0x9d007cb8                vApplicationTickHook

.text._on_reset
                0x9d007cc0        0x8
 .text._on_reset
                0x9d007cc0        0x8 /opt/microchip/xc32/v2.41/bin/bin/../../lib/gcc/pic32mx/4.8.3/../../../../pic32mx/lib/libpic32.a(default-on-reset.o)
                0x9d007cc0                _on_reset

.text._on_bootstrap
                0x9d007cc8        0x8
 .text._on_bootstrap
                0x9d007cc8        0x8 /opt/microchip/xc32/v2.41/bin/bin/../../lib/gcc/pic32mx/4.8.3/../../../../pic32mx/lib/libpic32.a(default-on-bootstrap.o)
                0x9d007cc8                _on_bootstrap

.rodata         0x9d00017c        0x4
 .rodata        0x9d00017c        0x4 build/default/production/_ext/1571139743/port.o
                0x9d00017c                xISRStackTop

.rodata         0x9d007cd0        0x4
 .rodata        0x9d007cd0        0x4 build/default/production/_ext/1688732426/system_init.o
                0x9d007cd0                sysDevconInit
