Archive member included because of file (symbol)

/opt/microchip/xc32/v2.41/bin/bin/../../lib/gcc/pic32mx/4.8.3/libgcc.a(floatunsisf.o)
                              build/default/debug/_ext/1650642999/tof.o (__floatunsisf)
/opt/microchip/xc32/v2.41/bin/bin/../../lib/gcc/pic32mx/4.8.3/../../../../pic32mx/lib/libpic32.a(memcmp.o)
                              build/default/debug/_ext/1650642999/comms.o (memcmp)
/opt/microchip/xc32/v2.41/bin/bin/../../lib/gcc/pic32mx/4.8.3/../../../../pic32mx/lib/libpic32.a(memcpy.o)
                              build/default/debug/_ext/1650642999/comms.o (memcpy)
/opt/microchip/xc32/v2.41/bin/bin/../../lib/gcc/pic32mx/4.8.3/../../../../pic32mx/lib/libpic32.a(memset.o)
                              build/default/debug/_ext/1650642999/comms.o (memset)
/opt/microchip/xc32/v2.41/bin/bin/../../lib/gcc/pic32mx/4.8.3/../../../../pic32mx/lib/libpic32.a(default-bootstrap-exception-handler.o)
                              /tmp/ccUSX7Wj.o (_bootstrap_exception_handler)
/opt/microchip/xc32/v2.41/bin/bin/../../lib/gcc/pic32mx/4.8.3/../../../../pic32mx/lib/libpic32.a(default-on-reset.o)
                              /tmp/ccUSX7Wj.o (_on_reset)
/opt/microchip/xc32/v2.41/bin/bin/../../lib/gcc/pic32mx/4.8.3/../../../../pic32mx/lib/libpic32.a(default-on-bootstrap.o)
                              /tmp/ccUSX7Wj.o (_on_bootstrap)
/opt/microchip/xc32/v2.41/bin/bin/../../lib/gcc/pic32mx/4.8.3/../../../../pic32mx/lib/libpic32.a(default-nmi-handler.o)
                              /tmp/ccUSX7Wj.o (_nmi_handler)
/opt/microchip/xc32/v2.41/bin/bin/../../lib/gcc/pic32mx/4.8.3/../../../../pic32mx/lib/libpic32.a(pic32_data_init.o)
                              /tmp/ccUSX7Wj.o (__pic32_data_init)
/opt/microchip/xc32/v2.41/bin/bin/../../lib/gcc/pic32mx/4.8.3/../../../../pic32mx/lib/libpic32.a(pic32_init_cache.o)
                              /tmp/ccUSX7Wj.o (__pic32_init_cache)
/opt/microchip/xc32/v2.41/bin/bin/../../lib/gcc/pic32mx/4.8.3/../../../../pic32mx/lib/libpic32.a(pic32_init_tlb_ebi_sqi.o)
                              /tmp/ccUSX7Wj.o (__pic32_tlb_init_ebi_sqi)
/opt/microchip/xc32/v2.41/bin/bin/../../lib/gcc/pic32mx/4.8.3/../../../../pic32mx/lib/libpic32.a(cache-err-exception.o)
                              /tmp/ccUSX7Wj.o (_cache_err_exception_context)
/opt/microchip/xc32/v2.41/bin/bin/../../lib/gcc/pic32mx/4.8.3/../../../../pic32mx/lib/libpic32.a(simple-tlb-refill-exception.o)
                              /tmp/ccUSX7Wj.o (_simple_tlb_refill_exception_context)
/opt/microchip/xc32/v2.41/bin/bin/../../lib/gcc/pic32mx/4.8.3/../../../../pic32mx/lib/libpic32.a(defaultinterrupt.o)
                              /tmp/cctcrwCj.o (_DefaultInterrupt)
/opt/microchip/xc32/v2.41/bin/bin/../../lib/gcc/pic32mx/4.8.3/../../../../pic32mx/lib/libpic32.a(default-cache-err-exception-handler.o)
                              /opt/microchip/xc32/v2.41/bin/bin/../../lib/gcc/pic32mx/4.8.3/../../../../pic32mx/lib/libpic32.a(cache-err-exception.o) (_cache_err_exception_handler)
/opt/microchip/xc32/v2.41/bin/bin/../../lib/gcc/pic32mx/4.8.3/../../../../pic32mx/lib/libpic32.a(default-simple-tlb-refill-exception-handler.o)
                              /opt/microchip/xc32/v2.41/bin/bin/../../lib/gcc/pic32mx/4.8.3/../../../../pic32mx/lib/libpic32.a(simple-tlb-refill-exception.o) (_simple_tlb_refill_exception_handler)
/opt/microchip/xc32/v2.41/bin/bin/../../lib/gcc/pic32mx/4.8.3/../../../../pic32mx/lib/libc.a(malloc.o)
                              build/default/debug/_ext/1035051164/SixDOFQuadcopterModel.o (malloc)
/opt/microchip/xc32/v2.41/bin/bin/../../lib/gcc/pic32mx/4.8.3/../../../../pic32mx/lib/libc.a(puts.o)
                              build/default/debug/_ext/149289479/MAVLinkHandler.o (puts)
/opt/microchip/xc32/v2.41/bin/bin/../../lib/gcc/pic32mx/4.8.3/../../../../pic32mx/lib/libc.a(strcat.o)
                              build/default/debug/_ext/149289479/MAVLinkHandler.o (strcat)
/opt/microchip/xc32/v2.41/bin/bin/../../lib/gcc/pic32mx/4.8.3/../../../../pic32mx/lib/libc.a(sprintf_cdnopuxX.eo)
                              build/default/debug/_ext/149289479/MAVLinkHandler.o (_sprintf_cdnopuxX)
/opt/microchip/xc32/v2.41/bin/bin/../../lib/gcc/pic32mx/4.8.3/../../../../pic32mx/lib/libc.a(_iob.o)
                              /opt/microchip/xc32/v2.41/bin/bin/../../lib/gcc/pic32mx/4.8.3/../../../../pic32mx/lib/libc.a(puts.o) (_iob)
/opt/microchip/xc32/v2.41/bin/bin/../../lib/gcc/pic32mx/4.8.3/../../../../pic32mx/lib/libc.a(_fputc_simple.o)
                              /opt/microchip/xc32/v2.41/bin/bin/../../lib/gcc/pic32mx/4.8.3/../../../../pic32mx/lib/libc.a(puts.o) (fputc)
/opt/microchip/xc32/v2.41/bin/bin/../../lib/gcc/pic32mx/4.8.3/../../../../pic32mx/lib/libc.a(doprnt_cdnopuxX.eo)
                              /opt/microchip/xc32/v2.41/bin/bin/../../lib/gcc/pic32mx/4.8.3/../../../../pic32mx/lib/libc.a(sprintf_cdnopuxX.eo) (_vfprintf_cdnopuxX)
/opt/microchip/xc32/v2.41/bin/bin/../../lib/gcc/pic32mx/4.8.3/../../../../pic32mx/lib/libc.a(_flsbuf_simple.o)
                              /opt/microchip/xc32/v2.41/bin/bin/../../lib/gcc/pic32mx/4.8.3/../../../../pic32mx/lib/libc.a(_fputc_simple.o) (_flsbuf)
/opt/microchip/xc32/v2.41/bin/bin/../../lib/gcc/pic32mx/4.8.3/../../../../pic32mx/lib/libc.a(ctype.o)
                              /opt/microchip/xc32/v2.41/bin/bin/../../lib/gcc/pic32mx/4.8.3/../../../../pic32mx/lib/libc.a(doprnt_cdnopuxX.eo) (_ctype)
/opt/microchip/xc32/v2.41/bin/bin/../../lib/gcc/pic32mx/4.8.3/../../../../pic32mx/lib/libm.a(fp32div.o)
                              build/default/debug/_ext/443942460/PID.o (fpdiv)
/opt/microchip/xc32/v2.41/bin/bin/../../lib/gcc/pic32mx/4.8.3/../../../../pic32mx/lib/libm.a(fp32mul.o)
                              build/default/debug/_ext/1650642999/tof.o (fpmul)
/opt/microchip/xc32/v2.41/bin/bin/../../lib/gcc/pic32mx/4.8.3/../../../../pic32mx/lib/libm.a(fp32subadd.o)
                              build/default/debug/_ext/971049567/Quaternion.o (fpsub)
/opt/microchip/xc32/v2.41/bin/bin/../../lib/gcc/pic32mx/4.8.3/../../../../pic32mx/lib/libm.a(fpcmp.o)
                              build/default/debug/_ext/971049567/Quaternion.o (fpcmp)
/opt/microchip/xc32/v2.41/bin/bin/../../lib/gcc/pic32mx/4.8.3/../../../../pic32mx/lib/libm.a(fpcos32.o)
                              build/default/debug/_ext/1650642999/tof.o (cosf)
/opt/microchip/xc32/v2.41/bin/bin/../../lib/gcc/pic32mx/4.8.3/../../../../pic32mx/lib/libm.a(fpreduct32.o)
                              /opt/microchip/xc32/v2.41/bin/bin/../../lib/gcc/pic32mx/4.8.3/../../../../pic32mx/lib/libm.a(fpcos32.o) (fpreduct)
/opt/microchip/xc32/v2.41/bin/bin/../../lib/gcc/pic32mx/4.8.3/../../../../pic32mx/lib/libm.a(fpsin32.o)
                              build/default/debug/_ext/971049567/Quaternion.o (sinf)
/opt/microchip/xc32/v2.41/bin/bin/../../lib/gcc/pic32mx/4.8.3/../../../../pic32mx/lib/libm.a(fptoul.o)
                              build/default/debug/_ext/1204493032/AttitudeController.o (fptoui)
/opt/microchip/xc32/v2.41/bin/bin/../../lib/gcc/pic32mx/4.8.3/../../../../pic32mx/lib/libm.a(sincof32.o)
                              /opt/microchip/xc32/v2.41/bin/bin/../../lib/gcc/pic32mx/4.8.3/../../../../pic32mx/lib/libm.a(fpcos32.o) (_sincof)
/opt/microchip/xc32/v2.41/bin/bin/../../lib/gcc/pic32mx/4.8.3/../../../../pic32mx/lib/libm.a(sitofp.o)
                              build/default/debug/_ext/149289479/MAVLinkHandler.o (sitofp)
/opt/microchip/xc32/v2.41/bin/bin/../../lib/gcc/pic32mx/4.8.3/../../../../pic32mx/lib/libm.a(w_asinf.o)
                              build/default/debug/_ext/971049567/Quaternion.o (asinf)
/opt/microchip/xc32/v2.41/bin/bin/../../lib/gcc/pic32mx/4.8.3/../../../../pic32mx/lib/libm.a(w_atan2f.o)
                              build/default/debug/_ext/971049567/Quaternion.o (atan2f)
/opt/microchip/xc32/v2.41/bin/bin/../../lib/gcc/pic32mx/4.8.3/../../../../pic32mx/lib/libm.a(support.o)
                              /opt/microchip/xc32/v2.41/bin/bin/../../lib/gcc/pic32mx/4.8.3/../../../../pic32mx/lib/libm.a(w_atan2f.o) (copysignl)
/opt/microchip/xc32/v2.41/bin/bin/../../lib/gcc/pic32mx/4.8.3/../../../../pic32mx/lib/libm.a(dpldexp.o)
                              /opt/microchip/xc32/v2.41/bin/bin/../../lib/gcc/pic32mx/4.8.3/../../../../pic32mx/lib/libm.a(support.o) (ldexp)
/opt/microchip/xc32/v2.41/bin/bin/../../lib/gcc/pic32mx/4.8.3/../../../../pic32mx/lib/libm.a(dp32div.o)
                              /opt/microchip/xc32/v2.41/bin/bin/../../lib/gcc/pic32mx/4.8.3/../../../../pic32mx/lib/libm.a(support.o) (dpdiv)
/opt/microchip/xc32/v2.41/bin/bin/../../lib/gcc/pic32mx/4.8.3/../../../../pic32mx/lib/libm.a(dp32mul.o)
                              /opt/microchip/xc32/v2.41/bin/bin/../../lib/gcc/pic32mx/4.8.3/../../../../pic32mx/lib/libm.a(support.o) (dpmul)
/opt/microchip/xc32/v2.41/bin/bin/../../lib/gcc/pic32mx/4.8.3/../../../../pic32mx/lib/libm.a(dp32subadd.o)
                              /opt/microchip/xc32/v2.41/bin/bin/../../lib/gcc/pic32mx/4.8.3/../../../../pic32mx/lib/libm.a(support.o) (dpsub)
/opt/microchip/xc32/v2.41/bin/bin/../../lib/gcc/pic32mx/4.8.3/../../../../pic32mx/lib/libm.a(dpcmp.o)
                              /opt/microchip/xc32/v2.41/bin/bin/../../lib/gcc/pic32mx/4.8.3/../../../../pic32mx/lib/libm.a(w_atan2f.o) (dpcmp)
/opt/microchip/xc32/v2.41/bin/bin/../../lib/gcc/pic32mx/4.8.3/../../../../pic32mx/lib/libm.a(dptofp.o)
                              /opt/microchip/xc32/v2.41/bin/bin/../../lib/gcc/pic32mx/4.8.3/../../../../pic32mx/lib/libm.a(w_asinf.o) (dptofp)
/opt/microchip/xc32/v2.41/bin/bin/../../lib/gcc/pic32mx/4.8.3/../../../../pic32mx/lib/libm.a(fpasin.o)
                              /opt/microchip/xc32/v2.41/bin/bin/../../lib/gcc/pic32mx/4.8.3/../../../../pic32mx/lib/libm.a(w_asinf.o) (__mchp_asinf)
/opt/microchip/xc32/v2.41/bin/bin/../../lib/gcc/pic32mx/4.8.3/../../../../pic32mx/lib/libm.a(fpatan2.o)
                              /opt/microchip/xc32/v2.41/bin/bin/../../lib/gcc/pic32mx/4.8.3/../../../../pic32mx/lib/libm.a(w_atan2f.o) (__mchp_atan2f)
/opt/microchip/xc32/v2.41/bin/bin/../../lib/gcc/pic32mx/4.8.3/../../../../pic32mx/lib/libm.a(fpexatan.o)
                              /opt/microchip/xc32/v2.41/bin/bin/../../lib/gcc/pic32mx/4.8.3/../../../../pic32mx/lib/libm.a(fpasin.o) (fpexatan)
/opt/microchip/xc32/v2.41/bin/bin/../../lib/gcc/pic32mx/4.8.3/../../../../pic32mx/lib/libm.a(fpfabs.o)
                              /opt/microchip/xc32/v2.41/bin/bin/../../lib/gcc/pic32mx/4.8.3/../../../../pic32mx/lib/libm.a(w_asinf.o) (fabsf)
/opt/microchip/xc32/v2.41/bin/bin/../../lib/gcc/pic32mx/4.8.3/../../../../pic32mx/lib/libm.a(fpexsqrt32.o)
                              /opt/microchip/xc32/v2.41/bin/bin/../../lib/gcc/pic32mx/4.8.3/../../../../pic32mx/lib/libm.a(fpasin.o) (fpexsqrt)
/opt/microchip/xc32/v2.41/bin/bin/../../lib/gcc/pic32mx/4.8.3/../../../../pic32mx/lib/libm.a(fptodp.o)
                              /opt/microchip/xc32/v2.41/bin/bin/../../lib/gcc/pic32mx/4.8.3/../../../../pic32mx/lib/libm.a(w_atan2f.o) (fptodp)
/opt/microchip/xc32/v2.41/bin/bin/../../lib/gcc/pic32mx/4.8.3/../../../../pic32mx/lib/libm.a(litodp.o)
                              /opt/microchip/xc32/v2.41/bin/bin/../../lib/gcc/pic32mx/4.8.3/../../../../pic32mx/lib/libm.a(support.o) (litodp)
/opt/microchip/xc32/v2.41/bin/bin/../../lib/gcc/pic32mx/4.8.3/../../../../pic32mx/lib/libm.a(s_lib_ver.o)
                              /opt/microchip/xc32/v2.41/bin/bin/../../lib/gcc/pic32mx/4.8.3/../../../../pic32mx/lib/libm.a(w_asinf.o) (math_errhandling)
/opt/microchip/xc32/v2.41/bin/bin/../../lib/gcc/pic32mx/4.8.3/libgcc.a(_udivdi3.o)
                              /opt/microchip/xc32/v2.41/bin/bin/../../lib/gcc/pic32mx/4.8.3/../../../../pic32mx/lib/libc.a(doprnt_cdnopuxX.eo) (__udivdi3)
/opt/microchip/xc32/v2.41/bin/bin/../../lib/gcc/pic32mx/4.8.3/libgcc.a(_umoddi3.o)
                              /opt/microchip/xc32/v2.41/bin/bin/../../lib/gcc/pic32mx/4.8.3/../../../../pic32mx/lib/libc.a(doprnt_cdnopuxX.eo) (__umoddi3)
/opt/microchip/xc32/v2.41/bin/bin/../../lib/gcc/pic32mx/4.8.3/../../../../pic32mx/lib/libpic32.a(sbrk.o)
                              /opt/microchip/xc32/v2.41/bin/bin/../../lib/gcc/pic32mx/4.8.3/../../../../pic32mx/lib/libc.a(malloc.o) (sbrk)
/opt/microchip/xc32/v2.41/bin/bin/../../lib/gcc/pic32mx/4.8.3/../../../../pic32mx/lib/libpic32.a(write.o)
                              /opt/microchip/xc32/v2.41/bin/bin/../../lib/gcc/pic32mx/4.8.3/../../../../pic32mx/lib/libc.a(_fputc_simple.o) (write)
/opt/microchip/xc32/v2.41/bin/bin/../../lib/gcc/pic32mx/4.8.3/../../../../pic32mx/lib/libpic32.a(errno.o)
                              /opt/microchip/xc32/v2.41/bin/bin/../../lib/gcc/pic32mx/4.8.3/../../../../pic32mx/lib/libm.a(w_asinf.o) (errno)
/opt/microchip/xc32/v2.41/bin/bin/../../lib/gcc/pic32mx/4.8.3/../../../../pic32mx/lib/libpic32.a(_mon_putc.o)
                              /opt/microchip/xc32/v2.41/bin/bin/../../lib/gcc/pic32mx/4.8.3/../../../../pic32mx/lib/libpic32.a(write.o) (_mon_putc)
/opt/microchip/xc32/v2.41/bin/bin/../../lib/gcc/pic32mx/4.8.3/../../../../pic32mx/lib/libpic32.a(xc32_uart.o)
                              /opt/microchip/xc32/v2.41/bin/bin/../../lib/gcc/pic32mx/4.8.3/../../../../pic32mx/lib/libpic32.a(_mon_putc.o) (__XC_UART)

Allocating common symbols
Common symbol       size              file

mavlink_send_taskData
                    0x4               build/default/debug/_ext/1360937237/mavlink_send_task.o
pxDelayedTaskList   0x4               build/default/debug/_ext/1276567923/tasks.o
appData             0x4               build/default/debug/_ext/1360937237/app.o
i                   0x4               build/default/debug/_ext/1360937237/app.o
g_latestJoystickInput
                    0x10              build/default/debug/_ext/149289479/MAVLinkHandler.o
gDrvUSART0Obj       0x8               build/default/debug/_ext/327000265/drv_usart_static.o
sysObj              0x10              build/default/debug/_ext/1688732426/system_init.o
pxReadyTasksLists   0xa0              build/default/debug/_ext/1276567923/tasks.o
pxOverflowDelayedTaskList
                    0x4               build/default/debug/_ext/1276567923/tasks.o
xPendingReadyList   0x14              build/default/debug/_ext/1276567923/tasks.o
xTasksWaitingTermination
                    0x14              build/default/debug/_ext/1276567923/tasks.o
gDrvUSART1Obj       0x8               build/default/debug/_ext/327000265/drv_usart_static.o
mavlink_status_taskData
                    0x4               build/default/debug/_ext/1360937237/mavlink_status_task.o
sysDevconObj        0x8               build/default/debug/_ext/121284916/sys_devcon.o
mavlink_recv_taskData
                    0x4               build/default/debug/_ext/1360937237/mavlink_recv_task.o
xSuspendedTaskList  0x14              build/default/debug/_ext/1276567923/tasks.o
g_mavLinkSendQueue  0x4               build/default/debug/_ext/1360937237/mavlink_send_task.o
xDelayedTaskList2   0x14              build/default/debug/_ext/1276567923/tasks.o
xDelayedTaskList1   0x14              build/default/debug/_ext/1276567923/tasks.o
att_controller_taskData
                    0x4               build/default/debug/_ext/1360937237/att_controller_task.o

Microchip PIC32 Memory-Usage Report

kseg0 Program-Memory Usage
section                    address  length [bytes]      (dec)  Description
-------                 ----------  -------------------------  -----------
.simple_tlb_refill_excp 0x9d000000           0x10          16   
.text.prvAddCurrentTask 0x9d000010           0xe4         228   
.text.__exception_handl 0x9d0000f4            0xc          12   
.cache_err_excpt        0x9d000100           0x10          16   
.text.vApplicationSetup 0x9d000110           0x6c         108   
.rodata                 0x9d00017c            0x4           4  Read-only const 
.app_excpt              0x9d000180           0x10          16  General-Exception 
.text._sprintf_cdnopuxX 0x9d000190           0x68         104   
.text.DRV_USART_TasksTr 0x9d0001f8            0x8           8   
.vectors                0x9d000200          0x700        1792   
.text.hal_comms_recv_bu 0x9d000900         0x1810        6160   
.text.handle_MAVLink_me 0x9d002110         0x1178        4472   
.text.handle_param_requ 0x9d003288         0x1118        4376   
.text._vfprintf_cdnopux 0x9d0043a0          0xc8c        3212   
.rodata                 0x9d00502c          0xb14        2836  Read-only const 
.dinit                  0x9d005b40          0x510        1296   
.text                   0x9d006050          0x8bc        2236  App's exec code 
.text.MAVLinkSend_Updat 0x9d00690c          0x234         564   
.text.xQueueSemaphoreTa 0x9d006b40          0x22c         556   
.text.xQueueGenericSend 0x9d006d6c          0x20c         524   
.text.SYS_PORTS_Initial 0x9d006f78          0x1e8         488   
.text.xQueueReceive     0x9d007160          0x1c0         448   
.text.xTaskIncrementTic 0x9d007320          0x184         388   
.text                   0x9d0074a4          0x168         360  App's exec code 
.text.DRV_USART0_Initia 0x9d00760c          0x158         344   
.text.DRV_USART1_Initia 0x9d007764          0x158         344   
.text.xTaskPriorityInhe 0x9d0078bc          0x148         328   
.text.xTaskResumeAll    0x9d007a04          0x148         328   
.text.fputc             0x9d007b4c          0x144         324   
.text._flsbuf           0x9d007c90          0x12c         300   
.text.prvInitialiseNewT 0x9d007dbc          0x124         292   
.text.general_exception 0x9d007ee0          0x110         272   
.text.vTaskPriorityDisi 0x9d007ff0          0x110         272   
.text.SYS_Tasks         0x9d008100          0x108         264   
.rodata                 0x9d008208          0x108         264  Read-only const 
.text.SYS_DEVCON_Perfor 0x9d008310          0x104         260   
.text                   0x9d008414          0x104         260  App's exec code 
.text.prvAddNewTaskToRe 0x9d008518          0x104         260   
.rodata                 0x9d00861c          0x104         260  Read-only const 
.text.prvUnlockQueue    0x9d008720          0x100         256   
.text.SYS_CLK_Initializ 0x9d008820           0xf8         248   
.text.prvCopyDataToQueu 0x9d008918           0xf4         244   
.text.xTaskPriorityDisi 0x9d008a0c           0xf4         244   
.text.vTaskSwitchContex 0x9d008b00           0xe0         224   
.text._cache_err_except 0x9d008be0           0xd8         216   
.text.simple_tlb_refill 0x9d008cb8           0xd8         216   
.text._mon_putc         0x9d008d90           0xd8         216   
.rodata                 0x9d008e68           0xd0         208  Read-only const 
.text.SYS_Initialize    0x9d008f38           0xc4         196   
.text.APP_Tasks         0x9d008ffc           0xc0         192   
.text.xQueueGenericRese 0x9d0090bc           0xc0         192   
.text.xTaskCreate       0x9d00917c           0xc0         192   
.text.xTaskRemoveFromEv 0x9d00923c           0xbc         188   
.tlb.__pic32_tlb_init_e 0x9d0092f8           0xbc         188   
.text.pvPortMalloc      0x9d0093b4           0xb8         184   
.text                   0x9d00946c           0xa8         168  App's exec code 
.text.xTaskCheckForTime 0x9d009514           0xa4         164   
.text.write             0x9d0095b8           0x9c         156   
.text                   0x9d009654           0x98         152  App's exec code 
.text.xQueueGenericCrea 0x9d0096ec           0x94         148   
.text.prvInitialiseTask 0x9d009780           0x90         144   
.text.handle_message_ma 0x9d009810           0x8c         140   
.text                   0x9d00989c           0x84         132  App's exec code 
.rodata                 0x9d009920           0x80         128  Read-only const 
.text.prvCheckTasksWait 0x9d0099a0           0x80         128   
.text.hal_comms_send_bu 0x9d009a20           0x7c         124   
.text.DRV_TMR0_Initiali 0x9d009a9c           0x78         120   
.text.vTaskStartSchedul 0x9d009b14           0x78         120   
.text.MAVLinkRecv_Updat 0x9d009b8c           0x74         116   
.text._SYS_Tasks        0x9d009c00           0x60          96   
.text.MAVLINK_SEND_TASK 0x9d009c60           0x60          96   
.text.pxPortInitialiseS 0x9d009cc0           0x60          96   
.text.vListInsert       0x9d009d20           0x60          96   
.text.vTaskExitCritical 0x9d009d80           0x60          96   
.text.MAVLinkRecv_Init  0x9d009de0           0x60          96   
.text.fputs             0x9d009e40           0x60          96   
.text.sitofp            0x9d009ea0           0x60          96   
.text.xPortStartSchedul 0x9d009f00           0x5c          92   
.text.SYS_DEVCON_System 0x9d009f5c           0x58          88   
.text.xQueueCreateMutex 0x9d009fb4           0x58          88   
.text.vTaskDelay        0x9d00a00c           0x58          88   
.text.vPortIncrementTic 0x9d00a064           0x54          84   
.text.main_entry        0x9d00a0b8           0x54          84   
.text.DRV_USART0_ReadBy 0x9d00a10c           0x50          80   
.text.SYS_CLK_Periphera 0x9d00a15c           0x50          80   
.text.prvCopyDataFromQu 0x9d00a1ac           0x50          80   
.text.DRV_USART_Initial 0x9d00a1fc           0x4c          76   
.text.DRV_USART_Open    0x9d00a248           0x4c          76   
.text.MAVLINK_RECV_TASK 0x9d00a294           0x4c          76   
.text.MAVLINK_STATUS_TA 0x9d00a2e0           0x4c          76   
.text.uxListRemove      0x9d00a32c           0x4c          76   
.text.DRV_USART0_Transf 0x9d00a378           0x48          72   
.text.SYS_DEVCON_System 0x9d00a3c0           0x48          72   
.text.vTaskEnterCritica 0x9d00a408           0x48          72   
.text.prvIdleTask       0x9d00a450           0x48          72   
.text._bootstrap_except 0x9d00a498           0x48          72   
.text._cache_err_except 0x9d00a4e0           0x48          72   
.text._simple_tlb_refil 0x9d00a528           0x48          72   
.text.DRV_OC0_Initializ 0x9d00a570           0x44          68   
.text.DRV_OC1_Initializ 0x9d00a5b4           0x44          68   
.text.DRV_OC2_Initializ 0x9d00a5f8           0x44          68   
.text.DRV_OC3_Initializ 0x9d00a63c           0x44          68   
.text._general_exceptio 0x9d00a680           0x44          68   
.text                   0x9d00a6c4           0x44          68  App's exec code 
.text.puts              0x9d00a708           0x44          68   
.text.strcat            0x9d00a74c           0x44          68   
.text.DRV_USART0_WriteB 0x9d00a790           0x40          64   
.text.hal_comms_init    0x9d00a7d0           0x3c          60   
.text.DRV_TMR0_Start    0x9d00a80c           0x3c          60   
.text.OSAL_MUTEX_Create 0x9d00a848           0x3c          60   
.text.uxPortSetInterrup 0x9d00a884           0x3c          60   
.text.OSAL_MUTEX_Lock   0x9d00a8c0           0x38          56   
.text.prvResetNextTaskU 0x9d00a8f8           0x38          56   
.text.vTaskPlaceOnEvent 0x9d00a930           0x38          56   
.text.vListInsertEnd    0x9d00a968           0x34          52   
.text.prvIsQueueEmpty   0x9d00a99c           0x34          52   
.text.OSAL_MUTEX_Unlock 0x9d00a9d0           0x30          48   
.text.prvDeleteTCB      0x9d00aa00           0x30          48   
.text.MAVLinkSend_Init  0x9d00aa30           0x30          48   
.text.pvTaskIncrementMu 0x9d00aa60           0x28          40   
.text.sendMAVLinkMessag 0x9d00aa88           0x28          40   
.text.vApplicationStack 0x9d00aab0           0x24          36   
.text.vApplicationMallo 0x9d00aad4           0x24          36   
.text.MAVLINK_SEND_TASK 0x9d00aaf8           0x24          36   
.text.prvTaskExitError  0x9d00ab1c           0x24          36   
.text.vListInitialise   0x9d00ab40           0x24          36   
.text._ATT_CONTROLLER_T 0x9d00ab64           0x20          32   
.text._MAVLINK_STATUS_T 0x9d00ab84           0x20          32   
.text._MAVLINK_SEND_TAS 0x9d00aba4           0x20          32   
.text._MAVLINK_RECV_TAS 0x9d00abc4           0x20          32   
.text._APP_Tasks        0x9d00abe4           0x20          32   
.text.main              0x9d00ac04           0x20          32   
.text.IntHandlerDrvTmrI 0x9d00ac24           0x1c          28   
.text.DRV_USART0_Receiv 0x9d00ac40           0x18          24   
.text.ATT_CONTROLLER_TA 0x9d00ac58           0x18          24   
.text.MAVStatus_Init    0x9d00ac70           0x18          24   
.text                   0x9d00ac88           0x18          24  App's exec code 
.text.DRV_OC0_Enable    0x9d00aca0           0x14          20   
.text.DRV_OC0_Start     0x9d00acb4           0x14          20   
.text.DRV_OC0_PulseWidt 0x9d00acc8           0x14          20   
.text.DRV_OC1_Enable    0x9d00acdc           0x14          20   
.text.DRV_OC1_Start     0x9d00acf0           0x14          20   
.text.DRV_OC1_PulseWidt 0x9d00ad04           0x14          20   
.text.DRV_OC2_Enable    0x9d00ad18           0x14          20   
.text.DRV_OC2_Start     0x9d00ad2c           0x14          20   
.text.DRV_OC2_PulseWidt 0x9d00ad40           0x14          20   
.text.DRV_OC3_Enable    0x9d00ad54           0x14          20   
.text.DRV_OC3_Start     0x9d00ad68           0x14          20   
.text.DRV_OC3_PulseWidt 0x9d00ad7c           0x14          20   
.text.SYS_DEVCON_Initia 0x9d00ad90           0x14          20   
.text.SYS_INT_Initializ 0x9d00ada4           0x14          20   
.text.vTaskSuspendAll   0x9d00adb8           0x14          20   
.text.vTaskInternalSetT 0x9d00adcc           0x14          20   
.text.vTaskMissedYield  0x9d00ade0           0x10          16   
.text.SYS_CLK_SystemFre 0x9d00adf0            0xc          12   
.text.DRV_USART_TasksRe 0x9d00adfc            0x8           8   
.text.DRV_USART_TasksEr 0x9d00ae04            0x8           8   
.text.DRV_USART0_Open   0x9d00ae0c            0x8           8   
.text.DRV_USART1_Open   0x9d00ae14            0x8           8   
.text.vApplicationIdleH 0x9d00ae1c            0x8           8   
.text.vApplicationTickH 0x9d00ae24            0x8           8   
.text.APP_Initialize    0x9d00ae2c            0x8           8   
.text.MAVLINK_RECV_TASK 0x9d00ae34            0x8           8   
.text.MAVLINK_STATUS_TA 0x9d00ae3c            0x8           8   
.text.ATT_CONTROLLER_TA 0x9d00ae44            0x8           8   
.text.SYS_DEVCON_Tasks  0x9d00ae4c            0x8           8   
.text.vPortFree         0x9d00ae54            0x8           8   
.text.vListInitialiseIt 0x9d00ae5c            0x8           8   
.rodata                 0x9d00ae64            0x8           8  Read-only const 
.text.MAVStatus_Update  0x9d00ae6c            0x8           8   
.text._on_reset         0x9d00ae74            0x8           8   
.text._on_bootstrap     0x9d00ae7c            0x8           8   
.rodata                 0x9d00ae84            0x4           4  Read-only const 
      Total kseg0_program_mem used  :      0xae88       44680  2.1% of 0x200000

kseg0 Boot-Memory Usage
section                    address  length [bytes]      (dec)  Description
-------                 ----------  -------------------------  -----------
         Total kseg0_boot_mem used  :           0           0  

kseg1 Boot-Memory Usage
section                    address  length [bytes]      (dec)  Description
-------                 ----------  -------------------------  -----------
.reset                  0xbfc00000          0x1a4         420  Reset handler 
.bev_excpt              0xbfc00380           0x10          16  BEV-Exception 
         Total kseg1_boot_mem used  :       0x1b4         436  37.8% of 0x480
        --------------------------------------------------------------------------
         Total Program Memory used  :      0xb03c       45116  2.2% of 0x200480
        --------------------------------------------------------------------------


kseg0 Data-Memory Usage
section                    address  length [bytes]      (dec)  Description
-------                 ----------  -------------------------  -----------
reserve_data_0_kseg0    0x80000000          0x280         640   
.sdata                  0x80000280           0x2c          44  Small init data 
.sbss                   0x800002ac           0xc4         196  Small uninit data 
.bss                    0x80000370          0x124         292  Uninitialized data 
.bss                    0x80000494        0x63c00      408576  Uninitialized data 
.bss                    0x80064098          0xb3c        2876  Uninitialized data 
.bss                    0x80064bd4          0x4a4        1188  Uninitialized data 
.bss                    0x80065078          0x194         404  Uninitialized data 
.data                   0x8006520c           0xa4         164  Initialized data 
.bss                    0x800652b0           0x44          68  Uninitialized data 
         Total kseg0_data_mem used  :     0x652f0      414448  79.0% of 0x80000

kseg1 Data-Memory Usage
section                    address  length [bytes]      (dec)  Description
-------                 ----------  -------------------------  -----------
reserve_data_0_kseg1    0xa0000000          0x280         640   
         Total kseg1_data_mem used  :       0x280         640  100.0% of 0x280
        --------------------------------------------------------------------------
            Total Data Memory used  :     0x65570      415088  79.1% of 0x80280
        --------------------------------------------------------------------------


Dynamic Data-Memory Reservation
section                    address  length [bytes]      (dec)  Description
-------                 ----------  -------------------------  -----------
heap                    0x800652f8              0           0  Reserved for heap 
stack                   0x80065310        0x1ace0      109792  Reserved for stack 

        --------------------------------------------------------------------------

Discarded input sections

 .text          0x00000000        0x0 /opt/microchip/xc32/v2.41/bin/bin/../../lib/gcc/pic32mx/4.8.3/../../../../pic32mx/lib/software-debug-break.o
 .data          0x00000000        0x0 /opt/microchip/xc32/v2.41/bin/bin/../../lib/gcc/pic32mx/4.8.3/../../../../pic32mx/lib/software-debug-break.o
 .bss           0x00000000        0x0 /opt/microchip/xc32/v2.41/bin/bin/../../lib/gcc/pic32mx/4.8.3/../../../../pic32mx/lib/software-debug-break.o
 .text          0x00000000        0x0 build/default/debug/_ext/1650642999/imu.o
 .data          0x00000000        0x0 build/default/debug/_ext/1650642999/imu.o
 .bss           0x00000000       0x30 build/default/debug/_ext/1650642999/imu.o
 .reginfo       0x00000000       0x18 build/default/debug/_ext/1650642999/imu.o
 .text.imu_comms_init
                0x00000000        0x8 build/default/debug/_ext/1650642999/imu.o
 .text.imu_comms_receive
                0x00000000        0x8 build/default/debug/_ext/1650642999/imu.o
 .text.imu_get_attitude_quaternion
                0x00000000       0x50 build/default/debug/_ext/1650642999/imu.o
 .text.imu_get_attitude
                0x00000000       0x34 build/default/debug/_ext/1650642999/imu.o
 .text.imu_attitude_override
                0x00000000       0x70 build/default/debug/_ext/1650642999/imu.o
 .text.imu_get_acceleration
                0x00000000        0x8 build/default/debug/_ext/1650642999/imu.o
 .text.imu_comms_close
                0x00000000        0x8 build/default/debug/_ext/1650642999/imu.o
 .text          0x00000000        0x0 build/default/debug/_ext/1650642999/comms.o
 .data          0x00000000        0x0 build/default/debug/_ext/1650642999/comms.o
 .reginfo       0x00000000       0x18 build/default/debug/_ext/1650642999/comms.o
 .text.hal_comms_close
                0x00000000        0x8 build/default/debug/_ext/1650642999/comms.o
 .text          0x00000000        0x0 build/default/debug/_ext/1650642999/tof.o
 .data          0x00000000        0x0 build/default/debug/_ext/1650642999/tof.o
 .bss           0x00000000       0x28 build/default/debug/_ext/1650642999/tof.o
 .reginfo       0x00000000       0x18 build/default/debug/_ext/1650642999/tof.o
 .text.tof_comms_init
                0x00000000        0x8 build/default/debug/_ext/1650642999/tof.o
 .text.tof_comms_receive
                0x00000000        0x8 build/default/debug/_ext/1650642999/tof.o
 .text.tof_sensor_override
                0x00000000       0x68 build/default/debug/_ext/1650642999/tof.o
 .text.tof_get_sensor
                0x00000000       0x70 build/default/debug/_ext/1650642999/tof.o
 .text.tof_get_height
                0x00000000       0x74 build/default/debug/_ext/1650642999/tof.o
 .text.tof_comms_close
                0x00000000        0x8 build/default/debug/_ext/1650642999/tof.o
 .text          0x00000000        0x0 build/default/debug/_ext/1650642999/motors.o
 .data          0x00000000        0x0 build/default/debug/_ext/1650642999/motors.o
 .bss           0x00000000        0x0 build/default/debug/_ext/1650642999/motors.o
 .reginfo       0x00000000       0x18 build/default/debug/_ext/1650642999/motors.o
 .text          0x00000000        0x0 build/default/debug/_ext/971049567/Quaternion.o
 .data          0x00000000        0x0 build/default/debug/_ext/971049567/Quaternion.o
 .bss           0x00000000        0x0 build/default/debug/_ext/971049567/Quaternion.o
 .reginfo       0x00000000       0x18 build/default/debug/_ext/971049567/Quaternion.o
 .text.quatFromEulerRPY
                0x00000000      0x1d4 build/default/debug/_ext/971049567/Quaternion.o
 .text.quatGetEulerRPY
                0x00000000      0x1f4 build/default/debug/_ext/971049567/Quaternion.o
 .rodata        0x00000000       0x10 build/default/debug/_ext/971049567/Quaternion.o
 .text          0x00000000        0x0 build/default/debug/_ext/971049567/Vector3D.o
 .data          0x00000000        0x0 build/default/debug/_ext/971049567/Vector3D.o
 .bss           0x00000000        0x0 build/default/debug/_ext/971049567/Vector3D.o
 .reginfo       0x00000000       0x18 build/default/debug/_ext/971049567/Vector3D.o
 .text          0x00000000        0x0 build/default/debug/_ext/1047219354/drv_oc_mapping.o
 .data          0x00000000        0x0 build/default/debug/_ext/1047219354/drv_oc_mapping.o
 .bss           0x00000000        0x0 build/default/debug/_ext/1047219354/drv_oc_mapping.o
 .reginfo       0x00000000       0x18 build/default/debug/_ext/1047219354/drv_oc_mapping.o
 .text.DRV_OC_Initialize
                0x00000000       0x94 build/default/debug/_ext/1047219354/drv_oc_mapping.o
 .text.DRV_OC_Start
                0x00000000       0x94 build/default/debug/_ext/1047219354/drv_oc_mapping.o
 .text.DRV_OC_Stop
                0x00000000       0x74 build/default/debug/_ext/1047219354/drv_oc_mapping.o
 .text.DRV_OC_CompareValuesSingleSet
                0x00000000        0x8 build/default/debug/_ext/1047219354/drv_oc_mapping.o
 .text.DRV_OC_CompareValuesDualSet
                0x00000000        0x8 build/default/debug/_ext/1047219354/drv_oc_mapping.o
 .text.DRV_OC_PulseWidthSet
                0x00000000       0x74 build/default/debug/_ext/1047219354/drv_oc_mapping.o
 .text.DRV_OC_FaultHasOccurred
                0x00000000       0x84 build/default/debug/_ext/1047219354/drv_oc_mapping.o
 .text          0x00000000        0x0 build/default/debug/_ext/1047219354/drv_oc_static.o
 .data          0x00000000        0x0 build/default/debug/_ext/1047219354/drv_oc_static.o
 .bss           0x00000000        0x0 build/default/debug/_ext/1047219354/drv_oc_static.o
 .reginfo       0x00000000       0x18 build/default/debug/_ext/1047219354/drv_oc_static.o
 .text.DRV_OC0_Disable
                0x00000000       0x14 build/default/debug/_ext/1047219354/drv_oc_static.o
 .text.DRV_OC0_Stop
                0x00000000       0x14 build/default/debug/_ext/1047219354/drv_oc_static.o
 .text.DRV_OC0_FaultHasOccurred
                0x00000000       0x10 build/default/debug/_ext/1047219354/drv_oc_static.o
 .text.DRV_OC1_Disable
                0x00000000       0x14 build/default/debug/_ext/1047219354/drv_oc_static.o
 .text.DRV_OC1_Stop
                0x00000000       0x14 build/default/debug/_ext/1047219354/drv_oc_static.o
 .text.DRV_OC1_FaultHasOccurred
                0x00000000       0x10 build/default/debug/_ext/1047219354/drv_oc_static.o
 .text.DRV_OC2_Disable
                0x00000000       0x14 build/default/debug/_ext/1047219354/drv_oc_static.o
 .text.DRV_OC2_Stop
                0x00000000       0x14 build/default/debug/_ext/1047219354/drv_oc_static.o
 .text.DRV_OC2_FaultHasOccurred
                0x00000000       0x10 build/default/debug/_ext/1047219354/drv_oc_static.o
 .text.DRV_OC3_Disable
                0x00000000       0x14 build/default/debug/_ext/1047219354/drv_oc_static.o
 .text.DRV_OC3_Stop
                0x00000000       0x14 build/default/debug/_ext/1047219354/drv_oc_static.o
 .text.DRV_OC3_FaultHasOccurred
                0x00000000       0x10 build/default/debug/_ext/1047219354/drv_oc_static.o
 .text          0x00000000        0x0 build/default/debug/_ext/1407244131/drv_tmr_static.o
 .data          0x00000000        0x0 build/default/debug/_ext/1407244131/drv_tmr_static.o
 .bss           0x00000000        0x0 build/default/debug/_ext/1407244131/drv_tmr_static.o
 .reginfo       0x00000000       0x18 build/default/debug/_ext/1407244131/drv_tmr_static.o
 .text.DRV_TMR0_Stop
                0x00000000       0x40 build/default/debug/_ext/1407244131/drv_tmr_static.o
 .text.DRV_TMR0_ClientStatus
                0x00000000       0x14 build/default/debug/_ext/1407244131/drv_tmr_static.o
 .text.DRV_TMR0_CounterValueSet
                0x00000000       0x14 build/default/debug/_ext/1407244131/drv_tmr_static.o
 .text.DRV_TMR0_CounterValueGet
                0x00000000       0x14 build/default/debug/_ext/1407244131/drv_tmr_static.o
 .text.DRV_TMR0_CounterClear
                0x00000000       0x10 build/default/debug/_ext/1407244131/drv_tmr_static.o
 .text.DRV_TMR0_DividerRangeGet
                0x00000000       0x2c build/default/debug/_ext/1407244131/drv_tmr_static.o
 .text.DRV_TMR0_CounterFrequencyGet
                0x00000000       0x4c build/default/debug/_ext/1407244131/drv_tmr_static.o
 .text.DRV_TMR0_PrescalerGet
                0x00000000       0xa4 build/default/debug/_ext/1407244131/drv_tmr_static.o
 .text.DRV_TMR0_PeriodValueSet
                0x00000000       0x14 build/default/debug/_ext/1407244131/drv_tmr_static.o
 .text.DRV_TMR0_PeriodValueGet
                0x00000000       0x14 build/default/debug/_ext/1407244131/drv_tmr_static.o
 .text.DRV_TMR0_StopInIdleDisable
                0x00000000       0x14 build/default/debug/_ext/1407244131/drv_tmr_static.o
 .text.DRV_TMR0_StopInIdleEnable
                0x00000000       0x14 build/default/debug/_ext/1407244131/drv_tmr_static.o
 .text.DRV_TMR0_ClockSet
                0x00000000       0xc4 build/default/debug/_ext/1407244131/drv_tmr_static.o
 .text          0x00000000        0x0 build/default/debug/_ext/1407244131/drv_tmr_mapping.o
 .data          0x00000000        0x0 build/default/debug/_ext/1407244131/drv_tmr_mapping.o
 .bss           0x00000000        0x0 build/default/debug/_ext/1407244131/drv_tmr_mapping.o
 .reginfo       0x00000000       0x18 build/default/debug/_ext/1407244131/drv_tmr_mapping.o
 .text.DRV_TMR_Initialize
                0x00000000       0x34 build/default/debug/_ext/1407244131/drv_tmr_mapping.o
 .text.DRV_TMR_Deinitialize
                0x00000000       0x28 build/default/debug/_ext/1407244131/drv_tmr_mapping.o
 .text.DRV_TMR_Status
                0x00000000        0x8 build/default/debug/_ext/1407244131/drv_tmr_mapping.o
 .text.DRV_TMR_Tasks
                0x00000000        0x8 build/default/debug/_ext/1407244131/drv_tmr_mapping.o
 .text.DRV_TMR_Open
                0x00000000        0x8 build/default/debug/_ext/1407244131/drv_tmr_mapping.o
 .text.DRV_TMR_Close
                0x00000000       0x28 build/default/debug/_ext/1407244131/drv_tmr_mapping.o
 .text.DRV_TMR_ClientStatus
                0x00000000       0x30 build/default/debug/_ext/1407244131/drv_tmr_mapping.o
 .text.DRV_TMR_CounterValueSet
                0x00000000       0x28 build/default/debug/_ext/1407244131/drv_tmr_mapping.o
 .text.DRV_TMR_CounterValueGet
                0x00000000       0x30 build/default/debug/_ext/1407244131/drv_tmr_mapping.o
 .text.DRV_TMR_CounterClear
                0x00000000       0x28 build/default/debug/_ext/1407244131/drv_tmr_mapping.o
 .text.DRV_TMR_AlarmRegister
                0x00000000        0x8 build/default/debug/_ext/1407244131/drv_tmr_mapping.o
 .text.DRV_TMR_AlarmDisable
                0x00000000        0x8 build/default/debug/_ext/1407244131/drv_tmr_mapping.o
 .text.DRV_TMR_AlarmEnable
                0x00000000        0x8 build/default/debug/_ext/1407244131/drv_tmr_mapping.o
 .text.DRV_TMR_AlarmPeriodSet
                0x00000000        0x8 build/default/debug/_ext/1407244131/drv_tmr_mapping.o
 .text.DRV_TMR_AlarmPeriodGet
                0x00000000        0x8 build/default/debug/_ext/1407244131/drv_tmr_mapping.o
 .text.DRV_TMR_AlarmDeregister
                0x00000000        0x8 build/default/debug/_ext/1407244131/drv_tmr_mapping.o
 .text.DRV_TMR_Start
                0x00000000       0x30 build/default/debug/_ext/1407244131/drv_tmr_mapping.o
 .text.DRV_TMR_Stop
                0x00000000       0x28 build/default/debug/_ext/1407244131/drv_tmr_mapping.o
 .text.DRV_TMR_AlarmHasElapsed
                0x00000000        0x8 build/default/debug/_ext/1407244131/drv_tmr_mapping.o
 .text.DRV_TMR_OperationModeGet
                0x00000000        0x8 build/default/debug/_ext/1407244131/drv_tmr_mapping.o
 .text.DRV_TMR_ClockSet
                0x00000000       0x30 build/default/debug/_ext/1407244131/drv_tmr_mapping.o
 .text.DRV_TMR_PrescalerGet
                0x00000000       0x30 build/default/debug/_ext/1407244131/drv_tmr_mapping.o
 .text.DRV_TMR_GateModeSet
                0x00000000        0x8 build/default/debug/_ext/1407244131/drv_tmr_mapping.o
 .text.DRV_TMR_GateModeClear
                0x00000000        0x8 build/default/debug/_ext/1407244131/drv_tmr_mapping.o
 .text.DRV_TMR_CounterFrequencyGet
                0x00000000       0x30 build/default/debug/_ext/1407244131/drv_tmr_mapping.o
 .text.DRV_TMR_DividerRangeGet
                0x00000000       0x30 build/default/debug/_ext/1407244131/drv_tmr_mapping.o
 .text          0x00000000        0x0 build/default/debug/_ext/327000265/drv_usart_mapping.o
 .data          0x00000000        0x0 build/default/debug/_ext/327000265/drv_usart_mapping.o
 .bss           0x00000000        0x0 build/default/debug/_ext/327000265/drv_usart_mapping.o
 .reginfo       0x00000000       0x18 build/default/debug/_ext/327000265/drv_usart_mapping.o
 .text.DRV_USART_Deinitialize
                0x00000000       0x44 build/default/debug/_ext/327000265/drv_usart_mapping.o
 .text.DRV_USART_Status
                0x00000000       0x4c build/default/debug/_ext/327000265/drv_usart_mapping.o
 .text.DRV_USART_Close
                0x00000000       0x48 build/default/debug/_ext/327000265/drv_usart_mapping.o
 .text.DRV_USART_ClientStatus
                0x00000000       0x50 build/default/debug/_ext/327000265/drv_usart_mapping.o
 .text.DRV_USART_TransferStatus
                0x00000000       0x50 build/default/debug/_ext/327000265/drv_usart_mapping.o
 .text.DRV_USART_ErrorGet
                0x00000000       0x50 build/default/debug/_ext/327000265/drv_usart_mapping.o
 .text.DRV_USART_ReadByte
                0x00000000       0x50 build/default/debug/_ext/327000265/drv_usart_mapping.o
 .text.DRV_USART_WriteByte
                0x00000000       0x48 build/default/debug/_ext/327000265/drv_usart_mapping.o
 .text.DRV_USART_ReceiverBufferSizeGet
                0x00000000       0x50 build/default/debug/_ext/327000265/drv_usart_mapping.o
 .text.DRV_USART_TransmitBufferSizeGet
                0x00000000       0x50 build/default/debug/_ext/327000265/drv_usart_mapping.o
 .text.DRV_USART_ReceiverBufferIsEmpty
                0x00000000       0x50 build/default/debug/_ext/327000265/drv_usart_mapping.o
 .text.DRV_USART_TransmitBufferIsFull
                0x00000000       0x50 build/default/debug/_ext/327000265/drv_usart_mapping.o
 .text.DRV_USART_BaudSet
                0x00000000       0x50 build/default/debug/_ext/327000265/drv_usart_mapping.o
 .text.DRV_USART_LineControlSet
                0x00000000       0x50 build/default/debug/_ext/327000265/drv_usart_mapping.o
 .text          0x00000000        0x0 build/default/debug/_ext/327000265/drv_usart_static.o
 .data          0x00000000        0x0 build/default/debug/_ext/327000265/drv_usart_static.o
 .bss           0x00000000        0x0 build/default/debug/_ext/327000265/drv_usart_static.o
 .reginfo       0x00000000       0x18 build/default/debug/_ext/327000265/drv_usart_static.o
 .text.DRV_USART0_Deinitialize
                0x00000000       0x34 build/default/debug/_ext/327000265/drv_usart_static.o
 .text.DRV_USART0_Status
                0x00000000        0x8 build/default/debug/_ext/327000265/drv_usart_static.o
 .text.DRV_USART0_Close
                0x00000000        0x8 build/default/debug/_ext/327000265/drv_usart_static.o
 .text.DRV_USART0_ClientStatus
                0x00000000        0x8 build/default/debug/_ext/327000265/drv_usart_static.o
 .text.DRV_USART0_ErrorGet
                0x00000000       0x10 build/default/debug/_ext/327000265/drv_usart_static.o
 .text._DRV_USART0_ErrorConditionClear
                0x00000000       0x88 build/default/debug/_ext/327000265/drv_usart_static.o
 .text.DRV_USART0_BaudSet
                0x00000000       0xf0 build/default/debug/_ext/327000265/drv_usart_static.o
 .text.DRV_USART0_LineControlSet
                0x00000000       0x74 build/default/debug/_ext/327000265/drv_usart_static.o
 .text.DRV_USART1_Deinitialize
                0x00000000       0x34 build/default/debug/_ext/327000265/drv_usart_static.o
 .text.DRV_USART1_Status
                0x00000000        0x8 build/default/debug/_ext/327000265/drv_usart_static.o
 .text.DRV_USART1_Close
                0x00000000        0x8 build/default/debug/_ext/327000265/drv_usart_static.o
 .text.DRV_USART1_ClientStatus
                0x00000000        0x8 build/default/debug/_ext/327000265/drv_usart_static.o
 .text.DRV_USART1_TransferStatus
                0x00000000       0x48 build/default/debug/_ext/327000265/drv_usart_static.o
 .text.DRV_USART1_ErrorGet
                0x00000000       0x10 build/default/debug/_ext/327000265/drv_usart_static.o
 .text._DRV_USART1_ErrorConditionClear
                0x00000000       0x88 build/default/debug/_ext/327000265/drv_usart_static.o
 .text.DRV_USART1_BaudSet
                0x00000000       0xf0 build/default/debug/_ext/327000265/drv_usart_static.o
 .text.DRV_USART1_LineControlSet
                0x00000000       0x74 build/default/debug/_ext/327000265/drv_usart_static.o
 .text          0x00000000        0x0 build/default/debug/_ext/327000265/drv_usart_static_byte_model.o
 .data          0x00000000        0x0 build/default/debug/_ext/327000265/drv_usart_static_byte_model.o
 .bss           0x00000000        0x0 build/default/debug/_ext/327000265/drv_usart_static_byte_model.o
 .reginfo       0x00000000       0x18 build/default/debug/_ext/327000265/drv_usart_static_byte_model.o
 .text.DRV_USART0_ReceiverBufferSizeGet
                0x00000000        0x8 build/default/debug/_ext/327000265/drv_usart_static_byte_model.o
 .text.DRV_USART0_TransmitBufferSizeGet
                0x00000000        0x8 build/default/debug/_ext/327000265/drv_usart_static_byte_model.o
 .text.DRV_USART0_TransmitBufferIsFull
                0x00000000       0x14 build/default/debug/_ext/327000265/drv_usart_static_byte_model.o
 .text.DRV_USART1_ReadByte
                0x00000000       0x50 build/default/debug/_ext/327000265/drv_usart_static_byte_model.o
 .text.DRV_USART1_WriteByte
                0x00000000       0x40 build/default/debug/_ext/327000265/drv_usart_static_byte_model.o
 .text.DRV_USART1_ReceiverBufferSizeGet
                0x00000000        0x8 build/default/debug/_ext/327000265/drv_usart_static_byte_model.o
 .text.DRV_USART1_TransmitBufferSizeGet
                0x00000000        0x8 build/default/debug/_ext/327000265/drv_usart_static_byte_model.o
 .text.DRV_USART1_ReceiverBufferIsEmpty
                0x00000000       0x18 build/default/debug/_ext/327000265/drv_usart_static_byte_model.o
 .text.DRV_USART1_TransmitBufferIsFull
                0x00000000       0x14 build/default/debug/_ext/327000265/drv_usart_static_byte_model.o
 .text          0x00000000        0x0 build/default/debug/_ext/639803181/sys_clk_pic32mz.o
 .data          0x00000000        0x0 build/default/debug/_ext/639803181/sys_clk_pic32mz.o
 .bss           0x00000000        0x0 build/default/debug/_ext/639803181/sys_clk_pic32mz.o
 .reginfo       0x00000000       0x18 build/default/debug/_ext/639803181/sys_clk_pic32mz.o
 .text.SYS_CLK_ReferenceFrequencyGet
                0x00000000        0x8 build/default/debug/_ext/639803181/sys_clk_pic32mz.o
 .text.SYS_CLK_SecondaryOscillatorEnable
                0x00000000       0x48 build/default/debug/_ext/639803181/sys_clk_pic32mz.o
 .text.SYS_CLK_SecondaryOscillatorDisable
                0x00000000       0x48 build/default/debug/_ext/639803181/sys_clk_pic32mz.o
 .text.SYS_CLK_SecondaryOscillatorIsEnabled
                0x00000000       0x10 build/default/debug/_ext/639803181/sys_clk_pic32mz.o
 .text          0x00000000        0x0 build/default/debug/_ext/822048611/sys_ports_static.o
 .data          0x00000000        0x0 build/default/debug/_ext/822048611/sys_ports_static.o
 .bss           0x00000000        0x0 build/default/debug/_ext/822048611/sys_ports_static.o
 .reginfo       0x00000000       0x18 build/default/debug/_ext/822048611/sys_ports_static.o
 .text.SYS_PORTS_Read
                0x00000000       0x24 build/default/debug/_ext/822048611/sys_ports_static.o
 .text.SYS_PORTS_Write
                0x00000000       0x28 build/default/debug/_ext/822048611/sys_ports_static.o
 .text.SYS_PORTS_LatchedGet
                0x00000000        0x8 build/default/debug/_ext/822048611/sys_ports_static.o
 .text.SYS_PORTS_Set
                0x00000000       0x2c build/default/debug/_ext/822048611/sys_ports_static.o
 .text.SYS_PORTS_Clear
                0x00000000       0x28 build/default/debug/_ext/822048611/sys_ports_static.o
 .text.SYS_PORTS_DirectionSelect
                0x00000000       0x54 build/default/debug/_ext/822048611/sys_ports_static.o
 .text.SYS_PORTS_DirectionGet
                0x00000000       0x24 build/default/debug/_ext/822048611/sys_ports_static.o
 .text.SYS_PORTS_Toggle
                0x00000000       0x28 build/default/debug/_ext/822048611/sys_ports_static.o
 .text.SYS_PORTS_OpenDrainEnable
                0x00000000       0x28 build/default/debug/_ext/822048611/sys_ports_static.o
 .text.SYS_PORTS_OpenDrainDisable
                0x00000000       0x28 build/default/debug/_ext/822048611/sys_ports_static.o
 .text.SYS_PORTS_InterruptStatusGet
                0x00000000        0x8 build/default/debug/_ext/822048611/sys_ports_static.o
 .text.SYS_PORTS_ChangeNotificationGlobalEnable
                0x00000000        0x8 build/default/debug/_ext/822048611/sys_ports_static.o
 .text.SYS_PORTS_ChangeNotificationGlobalDisable
                0x00000000        0x8 build/default/debug/_ext/822048611/sys_ports_static.o
 .text.SYS_PORTS_GlobalChangeNotificationDisable
                0x00000000        0x8 build/default/debug/_ext/822048611/sys_ports_static.o
 .text.SYS_PORTS_ChangeNotificationEnable
                0x00000000        0x8 build/default/debug/_ext/822048611/sys_ports_static.o
 .text.SYS_PORTS_ChangeNotificationDisable
                0x00000000        0x8 build/default/debug/_ext/822048611/sys_ports_static.o
 .text.SYS_PORTS_ChangeNotificationInIdleModeEnable
                0x00000000        0x8 build/default/debug/_ext/822048611/sys_ports_static.o
 .text.SYS_PORTS_ChangeNotificationInIdleModeDisable
                0x00000000        0x8 build/default/debug/_ext/822048611/sys_ports_static.o
 .text.SYS_PORTS_ChangeNotificationPullUpEnable
                0x00000000        0x8 build/default/debug/_ext/822048611/sys_ports_static.o
 .text.SYS_PORTS_ChangeNotificationPullUpDisable
                0x00000000        0x8 build/default/debug/_ext/822048611/sys_ports_static.o
 .text.SYS_PORTS_PinModeSelect
                0x00000000       0x64 build/default/debug/_ext/822048611/sys_ports_static.o
 .text.SYS_PORTS_PinWrite
                0x00000000       0x60 build/default/debug/_ext/822048611/sys_ports_static.o
 .text.SYS_PORTS_PinLatchedGet
                0x00000000        0x8 build/default/debug/_ext/822048611/sys_ports_static.o
 .text.SYS_PORTS_PinRead
                0x00000000       0x28 build/default/debug/_ext/822048611/sys_ports_static.o
 .text.SYS_PORTS_PinToggle
                0x00000000       0x30 build/default/debug/_ext/822048611/sys_ports_static.o
 .text.SYS_PORTS_PinSet
                0x00000000       0x30 build/default/debug/_ext/822048611/sys_ports_static.o
 .text.SYS_PORTS_PinClear
                0x00000000       0x30 build/default/debug/_ext/822048611/sys_ports_static.o
 .text.SYS_PORTS_PinDirectionSelect
                0x00000000       0x60 build/default/debug/_ext/822048611/sys_ports_static.o
 .text.SYS_PORTS_PinOpenDrainEnable
                0x00000000       0x30 build/default/debug/_ext/822048611/sys_ports_static.o
 .text.SYS_PORTS_PinOpenDrainDisable
                0x00000000       0x30 build/default/debug/_ext/822048611/sys_ports_static.o
 .text.SYS_PORTS_PinPullUpEnable
                0x00000000        0x8 build/default/debug/_ext/822048611/sys_ports_static.o
 .text.SYS_PORTS_PinPullUpDisable
                0x00000000        0x8 build/default/debug/_ext/822048611/sys_ports_static.o
 .text.SYS_PORTS_PinPullDownEnable
                0x00000000        0x8 build/default/debug/_ext/822048611/sys_ports_static.o
 .text.SYS_PORTS_PinPullDownDisable
                0x00000000        0x8 build/default/debug/_ext/822048611/sys_ports_static.o
 .text.SYS_PORTS_InterruptEnable
                0x00000000        0x8 build/default/debug/_ext/822048611/sys_ports_static.o
 .text.SYS_PORTS_RemapInput
                0x00000000       0x5c build/default/debug/_ext/822048611/sys_ports_static.o
 .text.SYS_PORTS_RemapOutput
                0x00000000       0x68 build/default/debug/_ext/822048611/sys_ports_static.o
 .text          0x00000000        0x0 build/default/debug/_ext/1688732426/system_init.o
 .data          0x00000000        0x0 build/default/debug/_ext/1688732426/system_init.o
 .bss           0x00000000        0x0 build/default/debug/_ext/1688732426/system_init.o
 .reginfo       0x00000000       0x18 build/default/debug/_ext/1688732426/system_init.o
 .text          0x00000000        0x0 build/default/debug/_ext/1688732426/system_interrupt.o
 .data          0x00000000        0x0 build/default/debug/_ext/1688732426/system_interrupt.o
 .bss           0x00000000        0x0 build/default/debug/_ext/1688732426/system_interrupt.o
 .reginfo       0x00000000       0x18 build/default/debug/_ext/1688732426/system_interrupt.o
 .text          0x00000000        0x0 build/default/debug/_ext/1688732426/general_exception_handler.o
 .data          0x00000000        0x0 build/default/debug/_ext/1688732426/general_exception_handler.o
 .bss           0x00000000        0x0 build/default/debug/_ext/1688732426/general_exception_handler.o
 .reginfo       0x00000000       0x18 build/default/debug/_ext/1688732426/general_exception_handler.o
 .text          0x00000000        0x0 build/default/debug/_ext/1688732426/general-exception-context.o
 .data          0x00000000        0x0 build/default/debug/_ext/1688732426/general-exception-context.o
 .bss           0x00000000        0x0 build/default/debug/_ext/1688732426/general-exception-context.o
 .reginfo       0x00000000       0x18 build/default/debug/_ext/1688732426/general-exception-context.o
 .text          0x00000000        0x0 build/default/debug/_ext/1688732426/fassert.o
 .data          0x00000000        0x0 build/default/debug/_ext/1688732426/fassert.o
 .bss           0x00000000        0x0 build/default/debug/_ext/1688732426/fassert.o
 .reginfo       0x00000000       0x18 build/default/debug/_ext/1688732426/fassert.o
 .text._fassert
                0x00000000        0xc build/default/debug/_ext/1688732426/fassert.o
 .text          0x00000000        0x0 build/default/debug/_ext/1688732426/system_tasks.o
 .data          0x00000000        0x0 build/default/debug/_ext/1688732426/system_tasks.o
 .bss           0x00000000        0x0 build/default/debug/_ext/1688732426/system_tasks.o
 .reginfo       0x00000000       0x18 build/default/debug/_ext/1688732426/system_tasks.o
 .text          0x00000000        0x0 build/default/debug/_ext/1688732426/system_interrupt_a.o
 .data          0x00000000        0x0 build/default/debug/_ext/1688732426/system_interrupt_a.o
 .bss           0x00000000        0x0 build/default/debug/_ext/1688732426/system_interrupt_a.o
 .reginfo       0x00000000       0x18 build/default/debug/_ext/1688732426/system_interrupt_a.o
 .text          0x00000000        0x0 build/default/debug/_ext/1688732426/rtos_hooks.o
 .data          0x00000000        0x0 build/default/debug/_ext/1688732426/rtos_hooks.o
 .bss           0x00000000        0x0 build/default/debug/_ext/1688732426/rtos_hooks.o
 .reginfo       0x00000000       0x18 build/default/debug/_ext/1688732426/rtos_hooks.o
 .text.vAssertCalled
                0x00000000       0x40 build/default/debug/_ext/1688732426/rtos_hooks.o
 .text          0x00000000        0x0 build/default/debug/_ext/1360937237/main.o
 .data          0x00000000        0x0 build/default/debug/_ext/1360937237/main.o
 .bss           0x00000000        0x0 build/default/debug/_ext/1360937237/main.o
 .reginfo       0x00000000       0x18 build/default/debug/_ext/1360937237/main.o
 .text          0x00000000        0x0 build/default/debug/_ext/1360937237/app.o
 .data          0x00000000        0x0 build/default/debug/_ext/1360937237/app.o
 .bss           0x00000000        0x0 build/default/debug/_ext/1360937237/app.o
 .reginfo       0x00000000       0x18 build/default/debug/_ext/1360937237/app.o
 .text          0x00000000        0x0 build/default/debug/_ext/1360937237/mavlink_recv_task.o
 .data          0x00000000        0x0 build/default/debug/_ext/1360937237/mavlink_recv_task.o
 .bss           0x00000000        0x0 build/default/debug/_ext/1360937237/mavlink_recv_task.o
 .reginfo       0x00000000       0x18 build/default/debug/_ext/1360937237/mavlink_recv_task.o
 .text          0x00000000        0x0 build/default/debug/_ext/1360937237/mavlink_send_task.o
 .data          0x00000000        0x0 build/default/debug/_ext/1360937237/mavlink_send_task.o
 .bss           0x00000000        0x0 build/default/debug/_ext/1360937237/mavlink_send_task.o
 .reginfo       0x00000000       0x18 build/default/debug/_ext/1360937237/mavlink_send_task.o
 .text          0x00000000        0x0 build/default/debug/_ext/1360937237/mavlink_status_task.o
 .data          0x00000000        0x0 build/default/debug/_ext/1360937237/mavlink_status_task.o
 .bss           0x00000000        0x0 build/default/debug/_ext/1360937237/mavlink_status_task.o
 .reginfo       0x00000000       0x18 build/default/debug/_ext/1360937237/mavlink_status_task.o
 .text          0x00000000        0x0 build/default/debug/_ext/1360937237/att_controller_task.o
 .data          0x00000000        0x0 build/default/debug/_ext/1360937237/att_controller_task.o
 .bss           0x00000000        0x0 build/default/debug/_ext/1360937237/att_controller_task.o
 .reginfo       0x00000000       0x18 build/default/debug/_ext/1360937237/att_controller_task.o
 .text          0x00000000        0x0 build/default/debug/_ext/1353086322/osal_freertos.o
 .data          0x00000000        0x0 build/default/debug/_ext/1353086322/osal_freertos.o
 .bss           0x00000000        0x0 build/default/debug/_ext/1353086322/osal_freertos.o
 .reginfo       0x00000000       0x18 build/default/debug/_ext/1353086322/osal_freertos.o
 .text.OSAL_CRIT_Enter
                0x00000000       0x48 build/default/debug/_ext/1353086322/osal_freertos.o
 .text.OSAL_CRIT_Leave
                0x00000000       0x44 build/default/debug/_ext/1353086322/osal_freertos.o
 .text.OSAL_SEM_Create
                0x00000000       0x8c build/default/debug/_ext/1353086322/osal_freertos.o
 .text.OSAL_SEM_Delete
                0x00000000       0x30 build/default/debug/_ext/1353086322/osal_freertos.o
 .text.OSAL_SEM_Pend
                0x00000000       0x38 build/default/debug/_ext/1353086322/osal_freertos.o
 .text.OSAL_SEM_Post
                0x00000000       0x30 build/default/debug/_ext/1353086322/osal_freertos.o
 .text.OSAL_SEM_PostISR
                0x00000000       0x4c build/default/debug/_ext/1353086322/osal_freertos.o
 .text.OSAL_SEM_GetCount
                0x00000000       0x2c build/default/debug/_ext/1353086322/osal_freertos.o
 .text.OSAL_MUTEX_Delete
                0x00000000       0x3c build/default/debug/_ext/1353086322/osal_freertos.o
 .rodata        0x00000000        0xc build/default/debug/_ext/1353086322/osal_freertos.o
 .text.OSAL_Name
                0x00000000        0xc build/default/debug/_ext/1353086322/osal_freertos.o
 .text.OSAL_Initialize
                0x00000000        0x8 build/default/debug/_ext/1353086322/osal_freertos.o
 .text          0x00000000        0x0 build/default/debug/_ext/121284916/sys_devcon.o
 .data          0x00000000        0x0 build/default/debug/_ext/121284916/sys_devcon.o
 .bss           0x00000000        0x0 build/default/debug/_ext/121284916/sys_devcon.o
 .reginfo       0x00000000       0x18 build/default/debug/_ext/121284916/sys_devcon.o
 .text.SYS_DEVCON_Reinitialize
                0x00000000       0x10 build/default/debug/_ext/121284916/sys_devcon.o
 .text.SYS_DEVCON_Deinitialize
                0x00000000        0x8 build/default/debug/_ext/121284916/sys_devcon.o
 .text.SYS_DEVCON_Status
                0x00000000        0x8 build/default/debug/_ext/121284916/sys_devcon.o
 .text.SYS_DEVCON_JTAGEnable
                0x00000000       0x18 build/default/debug/_ext/121284916/sys_devcon.o
 .text.SYS_DEVCON_JTAGDisable
                0x00000000       0x18 build/default/debug/_ext/121284916/sys_devcon.o
 .text.SYS_DEVCON_TraceEnable
                0x00000000       0x1c build/default/debug/_ext/121284916/sys_devcon.o
 .text.SYS_DEVCON_TraceDisable
                0x00000000       0x18 build/default/debug/_ext/121284916/sys_devcon.o
 .text.SYS_DEVCON_PowerModeEnter
                0x00000000       0x44 build/default/debug/_ext/121284916/sys_devcon.o
 .text          0x00000000        0x0 build/default/debug/_ext/121284916/sys_devcon_pic32mz.o
 .data          0x00000000        0x0 build/default/debug/_ext/121284916/sys_devcon_pic32mz.o
 .bss           0x00000000        0x0 build/default/debug/_ext/121284916/sys_devcon_pic32mz.o
 .reginfo       0x00000000       0x18 build/default/debug/_ext/121284916/sys_devcon_pic32mz.o
 .text.SYS_DEVCON_CacheInit
                0x00000000       0x24 build/default/debug/_ext/121284916/sys_devcon_pic32mz.o
 .text.SYS_DEVCON_CacheFlush
                0x00000000       0x24 build/default/debug/_ext/121284916/sys_devcon_pic32mz.o
 .text.SYS_DEVCON_DataCacheFlush
                0x00000000       0x24 build/default/debug/_ext/121284916/sys_devcon_pic32mz.o
 .text.SYS_DEVCON_InstructionCacheFlush
                0x00000000       0x24 build/default/debug/_ext/121284916/sys_devcon_pic32mz.o
 .text.SYS_DEVCON_CacheClean
                0x00000000       0x24 build/default/debug/_ext/121284916/sys_devcon_pic32mz.o
 .text.SYS_DEVCON_DataCacheClean
                0x00000000       0x24 build/default/debug/_ext/121284916/sys_devcon_pic32mz.o
 .text.SYS_DEVCON_DataCacheInvalidate
                0x00000000       0x24 build/default/debug/_ext/121284916/sys_devcon_pic32mz.o
 .text.SYS_DEVCON_InstructionCacheInvalidate
                0x00000000       0x24 build/default/debug/_ext/121284916/sys_devcon_pic32mz.o
 .text.SYS_DEVCON_InstructionCacheLock
                0x00000000       0x24 build/default/debug/_ext/121284916/sys_devcon_pic32mz.o
 .text.SYS_DEVCON_DataCacheLock
                0x00000000       0x24 build/default/debug/_ext/121284916/sys_devcon_pic32mz.o
 .text.SYS_DEVCON_CacheSync
                0x00000000       0x24 build/default/debug/_ext/121284916/sys_devcon_pic32mz.o
 .text.SYS_DEVCON_CacheCoherencySet
                0x00000000       0x28 build/default/debug/_ext/121284916/sys_devcon_pic32mz.o
 .text.SYS_DEVCON_CacheCoherencyGet
                0x00000000       0x1c build/default/debug/_ext/121284916/sys_devcon_pic32mz.o
 .text.SYS_DEVCON_DataCacheAssociativityGet
                0x00000000       0x24 build/default/debug/_ext/121284916/sys_devcon_pic32mz.o
 .text.SYS_DEVCON_InstructionCacheAssociativityGet
                0x00000000       0x24 build/default/debug/_ext/121284916/sys_devcon_pic32mz.o
 .text.SYS_DEVCON_DataCacheLineSizeGet
                0x00000000       0x24 build/default/debug/_ext/121284916/sys_devcon_pic32mz.o
 .text.SYS_DEVCON_InstructionCacheLineSizeGet
                0x00000000       0x24 build/default/debug/_ext/121284916/sys_devcon_pic32mz.o
 .text.SYS_DEVCON_DataCacheLinesPerWayGet
                0x00000000       0x24 build/default/debug/_ext/121284916/sys_devcon_pic32mz.o
 .text.SYS_DEVCON_InstructionCacheLinesPerWayGet
                0x00000000       0x24 build/default/debug/_ext/121284916/sys_devcon_pic32mz.o
 .text.SYS_DEVCON_DataCacheSizeGet
                0x00000000       0x24 build/default/debug/_ext/121284916/sys_devcon_pic32mz.o
 .text.SYS_DEVCON_InstructionCacheSizeGet
                0x00000000       0x24 build/default/debug/_ext/121284916/sys_devcon_pic32mz.o
 .text          0x00000000      0x6bc build/default/debug/_ext/121284916/sys_devcon_cache_pic32mz.o
 .data          0x00000000        0x0 build/default/debug/_ext/121284916/sys_devcon_cache_pic32mz.o
 .bss           0x00000000        0x0 build/default/debug/_ext/121284916/sys_devcon_cache_pic32mz.o
 .reginfo       0x00000000       0x18 build/default/debug/_ext/121284916/sys_devcon_cache_pic32mz.o
 .debug_line    0x00000000      0x22a build/default/debug/_ext/121284916/sys_devcon_cache_pic32mz.o
 .debug_info    0x00000000       0xd8 build/default/debug/_ext/121284916/sys_devcon_cache_pic32mz.o
 .debug_abbrev  0x00000000       0x14 build/default/debug/_ext/121284916/sys_devcon_cache_pic32mz.o
 .debug_aranges
                0x00000000       0x20 build/default/debug/_ext/121284916/sys_devcon_cache_pic32mz.o
 .text          0x00000000        0x0 build/default/debug/_ext/1317643790/sys_int_pic32.o
 .data          0x00000000        0x0 build/default/debug/_ext/1317643790/sys_int_pic32.o
 .bss           0x00000000        0x0 build/default/debug/_ext/1317643790/sys_int_pic32.o
 .reginfo       0x00000000       0x18 build/default/debug/_ext/1317643790/sys_int_pic32.o
 .text.SYS_INT_StatusGetAndDisable
                0x00000000       0x1c build/default/debug/_ext/1317643790/sys_int_pic32.o
 .text.SYS_INT_StatusRestore
                0x00000000       0x1c build/default/debug/_ext/1317643790/sys_int_pic32.o
 .text.SYS_INT_Disable
                0x00000000       0x20 build/default/debug/_ext/1317643790/sys_int_pic32.o
 .text.SYS_INT_SourceDisable
                0x00000000       0x54 build/default/debug/_ext/1317643790/sys_int_pic32.o
 .text.SYS_INT_ExternalInterruptTriggerSet
                0x00000000       0x28 build/default/debug/_ext/1317643790/sys_int_pic32.o
 .text          0x00000000        0x0 build/default/debug/_ext/457403440/heap_1.o
 .data          0x00000000        0x0 build/default/debug/_ext/457403440/heap_1.o
 .reginfo       0x00000000       0x18 build/default/debug/_ext/457403440/heap_1.o
 .text.vPortInitialiseBlocks
                0x00000000        0x8 build/default/debug/_ext/457403440/heap_1.o
 .text.xPortGetFreeHeapSize
                0x00000000       0x14 build/default/debug/_ext/457403440/heap_1.o
 .text          0x00000000        0x0 build/default/debug/_ext/1571139743/port.o
 .data          0x00000000        0x0 build/default/debug/_ext/1571139743/port.o
 .reginfo       0x00000000       0x18 build/default/debug/_ext/1571139743/port.o
 .text.vPortEndScheduler
                0x00000000        0x8 build/default/debug/_ext/1571139743/port.o
 .text.vPortClearInterruptMaskFromISR
                0x00000000       0x1c build/default/debug/_ext/1571139743/port.o
 .data          0x00000000        0x0 build/default/debug/_ext/1571139743/port_asm.o
 .bss           0x00000000        0x0 build/default/debug/_ext/1571139743/port_asm.o
 .reginfo       0x00000000       0x18 build/default/debug/_ext/1571139743/port_asm.o
 .text          0x00000000        0x0 build/default/debug/_ext/1276567923/croutine.o
 .data          0x00000000        0x0 build/default/debug/_ext/1276567923/croutine.o
 .bss           0x00000000        0x0 build/default/debug/_ext/1276567923/croutine.o
 .reginfo       0x00000000       0x18 build/default/debug/_ext/1276567923/croutine.o
 .text          0x00000000        0x0 build/default/debug/_ext/1276567923/list.o
 .data          0x00000000        0x0 build/default/debug/_ext/1276567923/list.o
 .bss           0x00000000        0x0 build/default/debug/_ext/1276567923/list.o
 .reginfo       0x00000000       0x18 build/default/debug/_ext/1276567923/list.o
 .text          0x00000000        0x0 build/default/debug/_ext/1276567923/queue.o
 .data          0x00000000        0x0 build/default/debug/_ext/1276567923/queue.o
 .bss           0x00000000        0x0 build/default/debug/_ext/1276567923/queue.o
 .reginfo       0x00000000       0x18 build/default/debug/_ext/1276567923/queue.o
 .text.xQueueCreateCountingSemaphore
                0x00000000       0x34 build/default/debug/_ext/1276567923/queue.o
 .text.xQueueGiveMutexRecursive
                0x00000000       0x68 build/default/debug/_ext/1276567923/queue.o
 .text.xQueueGenericSendFromISR
                0x00000000       0xf0 build/default/debug/_ext/1276567923/queue.o
 .text.xQueueGiveFromISR
                0x00000000       0xc0 build/default/debug/_ext/1276567923/queue.o
 .text.xQueueTakeMutexRecursive
                0x00000000       0x74 build/default/debug/_ext/1276567923/queue.o
 .text.xQueuePeek
                0x00000000      0x1b8 build/default/debug/_ext/1276567923/queue.o
 .text.xQueueReceiveFromISR
                0x00000000       0xe0 build/default/debug/_ext/1276567923/queue.o
 .text.xQueuePeekFromISR
                0x00000000       0x74 build/default/debug/_ext/1276567923/queue.o
 .text.uxQueueMessagesWaiting
                0x00000000       0x34 build/default/debug/_ext/1276567923/queue.o
 .text.uxQueueSpacesAvailable
                0x00000000       0x38 build/default/debug/_ext/1276567923/queue.o
 .text.uxQueueMessagesWaitingFromISR
                0x00000000        0xc build/default/debug/_ext/1276567923/queue.o
 .text.vQueueDelete
                0x00000000       0x1c build/default/debug/_ext/1276567923/queue.o
 .text.xQueueIsQueueEmptyFromISR
                0x00000000        0xc build/default/debug/_ext/1276567923/queue.o
 .text.xQueueIsQueueFullFromISR
                0x00000000       0x14 build/default/debug/_ext/1276567923/queue.o
 .text          0x00000000        0x0 build/default/debug/_ext/1276567923/tasks.o
 .data          0x00000000        0x0 build/default/debug/_ext/1276567923/tasks.o
 .bss           0x00000000        0x0 build/default/debug/_ext/1276567923/tasks.o
 .reginfo       0x00000000       0x18 build/default/debug/_ext/1276567923/tasks.o
 .text.uxTaskPriorityGetFromISR
                0x00000000       0x3c build/default/debug/_ext/1276567923/tasks.o
 .text.prvTaskIsTaskSuspended
                0x00000000       0x38 build/default/debug/_ext/1276567923/tasks.o
 .text.xTaskResumeFromISR
                0x00000000       0xd8 build/default/debug/_ext/1276567923/tasks.o
 .text.vTaskEndScheduler
                0x00000000       0x34 build/default/debug/_ext/1276567923/tasks.o
 .text.xTaskGetTickCount
                0x00000000        0xc build/default/debug/_ext/1276567923/tasks.o
 .text.xTaskGetTickCountFromISR
                0x00000000        0xc build/default/debug/_ext/1276567923/tasks.o
 .text.uxTaskGetNumberOfTasks
                0x00000000        0xc build/default/debug/_ext/1276567923/tasks.o
 .text.pcTaskGetName
                0x00000000       0x10 build/default/debug/_ext/1276567923/tasks.o
 .text.vTaskRemoveFromUnorderedEventList
                0x00000000       0x98 build/default/debug/_ext/1276567923/tasks.o
 .text.xTaskGetCurrentTaskHandle
                0x00000000        0xc build/default/debug/_ext/1276567923/tasks.o
 .text.vTaskDelete
                0x00000000      0x11c build/default/debug/_ext/1276567923/tasks.o
 .text.uxTaskPriorityGet
                0x00000000       0x38 build/default/debug/_ext/1276567923/tasks.o
 .text.vTaskPrioritySet
                0x00000000      0x15c build/default/debug/_ext/1276567923/tasks.o
 .text.vTaskSuspend
                0x00000000      0x128 build/default/debug/_ext/1276567923/tasks.o
 .text.vTaskResume
                0x00000000       0xc0 build/default/debug/_ext/1276567923/tasks.o
 .text.vTaskSetTimeOutState
                0x00000000       0x38 build/default/debug/_ext/1276567923/tasks.o
 .text.uxTaskResetEventItemValue
                0x00000000       0x24 build/default/debug/_ext/1276567923/tasks.o
 .text.vTaskDelayUntil
                0x00000000       0xa8 build/default/debug/_ext/1276567923/tasks.o
 .text.vTaskPlaceOnUnorderedEventList
                0x00000000       0x48 build/default/debug/_ext/1276567923/tasks.o
 .text          0x00000000        0x0 build/default/debug/_ext/1276567923/timers.o
 .data          0x00000000        0x0 build/default/debug/_ext/1276567923/timers.o
 .bss           0x00000000        0x0 build/default/debug/_ext/1276567923/timers.o
 .reginfo       0x00000000       0x18 build/default/debug/_ext/1276567923/timers.o
 .text          0x00000000        0x0 build/default/debug/_ext/1276567923/event_groups.o
 .data          0x00000000        0x0 build/default/debug/_ext/1276567923/event_groups.o
 .bss           0x00000000        0x0 build/default/debug/_ext/1276567923/event_groups.o
 .reginfo       0x00000000       0x18 build/default/debug/_ext/1276567923/event_groups.o
 .text.xEventGroupCreate
                0x00000000       0x3c build/default/debug/_ext/1276567923/event_groups.o
 .text.xEventGroupWaitBits
                0x00000000      0x148 build/default/debug/_ext/1276567923/event_groups.o
 .text.xEventGroupClearBits
                0x00000000       0x50 build/default/debug/_ext/1276567923/event_groups.o
 .text.xEventGroupGetBitsFromISR
                0x00000000       0x34 build/default/debug/_ext/1276567923/event_groups.o
 .text.xEventGroupSetBits
                0x00000000       0xfc build/default/debug/_ext/1276567923/event_groups.o
 .text.xEventGroupSync
                0x00000000      0x110 build/default/debug/_ext/1276567923/event_groups.o
 .text.vEventGroupDelete
                0x00000000       0x58 build/default/debug/_ext/1276567923/event_groups.o
 .text.vEventGroupSetBitsCallback
                0x00000000       0x1c build/default/debug/_ext/1276567923/event_groups.o
 .text.vEventGroupClearBitsCallback
                0x00000000       0x1c build/default/debug/_ext/1276567923/event_groups.o
 .text          0x00000000        0x0 build/default/debug/_ext/443942460/PID.o
 .data          0x00000000        0x0 build/default/debug/_ext/443942460/PID.o
 .bss           0x00000000        0x0 build/default/debug/_ext/443942460/PID.o
 .reginfo       0x00000000       0x18 build/default/debug/_ext/443942460/PID.o
 .text.PID_Update
                0x00000000       0xc0 build/default/debug/_ext/443942460/PID.o
 .rodata        0x00000000        0x4 build/default/debug/_ext/443942460/PID.o
 .text          0x00000000        0x0 build/default/debug/_ext/1035051164/SixDOFQuadcopterModel.o
 .data          0x00000000        0x0 build/default/debug/_ext/1035051164/SixDOFQuadcopterModel.o
 .bss           0x00000000        0x0 build/default/debug/_ext/1035051164/SixDOFQuadcopterModel.o
 .reginfo       0x00000000       0x18 build/default/debug/_ext/1035051164/SixDOFQuadcopterModel.o
 .text.SixDOFQuadcopterModel_initialize
                0x00000000       0x50 build/default/debug/_ext/1035051164/SixDOFQuadcopterModel.o
 .text.SixDOFQuadcopterModel_calculate
                0x00000000      0x140 build/default/debug/_ext/1035051164/SixDOFQuadcopterModel.o
 .rodata        0x00000000        0x4 build/default/debug/_ext/1035051164/SixDOFQuadcopterModel.o
 .text          0x00000000        0x0 build/default/debug/_ext/1204493032/PositionEstimatorAltitude.o
 .data          0x00000000       0x20 build/default/debug/_ext/1204493032/PositionEstimatorAltitude.o
 .bss           0x00000000        0x0 build/default/debug/_ext/1204493032/PositionEstimatorAltitude.o
 .reginfo       0x00000000       0x18 build/default/debug/_ext/1204493032/PositionEstimatorAltitude.o
 .text.updatePositionEstimate
                0x00000000      0x1d0 build/default/debug/_ext/1204493032/PositionEstimatorAltitude.o
 .text.updateVelocityEstimate
                0x00000000       0x7c build/default/debug/_ext/1204493032/PositionEstimatorAltitude.o
 .rodata        0x00000000        0x8 build/default/debug/_ext/1204493032/PositionEstimatorAltitude.o
 .text          0x00000000        0x0 build/default/debug/_ext/1204493032/SensFusion.o
 .data          0x00000000        0x0 build/default/debug/_ext/1204493032/SensFusion.o
 .bss           0x00000000        0x0 build/default/debug/_ext/1204493032/SensFusion.o
 .reginfo       0x00000000       0x18 build/default/debug/_ext/1204493032/SensFusion.o
 .text.estimateGravityDirection
                0x00000000      0x124 build/default/debug/_ext/1204493032/SensFusion.o
 .text.getVerticalAcc
                0x00000000       0x78 build/default/debug/_ext/1204493032/SensFusion.o
 .text.getVerticalAccWithoutGravity
                0x00000000       0x30 build/default/debug/_ext/1204493032/SensFusion.o
 .text          0x00000000        0x0 build/default/debug/_ext/1204493032/ComplementaryFilter.o
 .data          0x00000000        0x0 build/default/debug/_ext/1204493032/ComplementaryFilter.o
 .bss           0x00000000        0x0 build/default/debug/_ext/1204493032/ComplementaryFilter.o
 .reginfo       0x00000000       0x18 build/default/debug/_ext/1204493032/ComplementaryFilter.o
 .text.estimatorComplementary
                0x00000000       0x68 build/default/debug/_ext/1204493032/ComplementaryFilter.o
 .rodata        0x00000000        0x8 build/default/debug/_ext/1204493032/ComplementaryFilter.o
 .text          0x00000000        0x0 build/default/debug/_ext/1204493032/AttitudeController.o
 .data          0x00000000        0x0 build/default/debug/_ext/1204493032/AttitudeController.o
 .bss           0x00000000        0x0 build/default/debug/_ext/1204493032/AttitudeController.o
 .reginfo       0x00000000       0x18 build/default/debug/_ext/1204493032/AttitudeController.o
 .text.AttitudeController_update
                0x00000000      0x1d8 build/default/debug/_ext/1204493032/AttitudeController.o
 .text          0x00000000        0x0 build/default/debug/_ext/149289479/MAVLinkSender.o
 .data          0x00000000        0x0 build/default/debug/_ext/149289479/MAVLinkSender.o
 .bss           0x00000000        0x0 build/default/debug/_ext/149289479/MAVLinkSender.o
 .reginfo       0x00000000       0x18 build/default/debug/_ext/149289479/MAVLinkSender.o
 .text          0x00000000        0x0 build/default/debug/_ext/149289479/MAVLinkHandler.o
 .data          0x00000000        0x0 build/default/debug/_ext/149289479/MAVLinkHandler.o
 .reginfo       0x00000000       0x18 build/default/debug/_ext/149289479/MAVLinkHandler.o
 .text          0x00000000        0x0 build/default/debug/_ext/1715884449/AttitudeControllerTask.o
 .data          0x00000000        0x0 build/default/debug/_ext/1715884449/AttitudeControllerTask.o
 .bss           0x00000000       0x98 build/default/debug/_ext/1715884449/AttitudeControllerTask.o
 .reginfo       0x00000000       0x18 build/default/debug/_ext/1715884449/AttitudeControllerTask.o
 .text.AttitudeController_Init
                0x00000000       0xf4 build/default/debug/_ext/1715884449/AttitudeControllerTask.o
 .text.AttitudeController_Update
                0x00000000       0xe4 build/default/debug/_ext/1715884449/AttitudeControllerTask.o
 .text.AttitudeController_Task
                0x00000000       0x2c build/default/debug/_ext/1715884449/AttitudeControllerTask.o
 .rodata        0x00000000       0x24 build/default/debug/_ext/1715884449/AttitudeControllerTask.o
 .text          0x00000000        0x0 build/default/debug/_ext/1158199258/MAVLinkSendTask.o
 .data          0x00000000        0x0 build/default/debug/_ext/1158199258/MAVLinkSendTask.o
 .reginfo       0x00000000       0x18 build/default/debug/_ext/1158199258/MAVLinkSendTask.o
 .text.MAVLinkSend_Task
                0x00000000       0x24 build/default/debug/_ext/1158199258/MAVLinkSendTask.o
 .rodata        0x00000000        0x4 build/default/debug/_ext/1158199258/MAVLinkSendTask.o
 .text          0x00000000        0x0 build/default/debug/_ext/1158199258/MAVLinkRecvTask.o
 .data          0x00000000        0x0 build/default/debug/_ext/1158199258/MAVLinkRecvTask.o
 .reginfo       0x00000000       0x18 build/default/debug/_ext/1158199258/MAVLinkRecvTask.o
 .text.MAVLinkRecv_Task
                0x00000000       0x2c build/default/debug/_ext/1158199258/MAVLinkRecvTask.o
 .rodata        0x00000000        0x4 build/default/debug/_ext/1158199258/MAVLinkRecvTask.o
 .text          0x00000000        0x0 build/default/debug/_ext/1315301415/TOFUpdateTask.o
 .data          0x00000000        0x0 build/default/debug/_ext/1315301415/TOFUpdateTask.o
 .bss           0x00000000        0x0 build/default/debug/_ext/1315301415/TOFUpdateTask.o
 .reginfo       0x00000000       0x18 build/default/debug/_ext/1315301415/TOFUpdateTask.o
 .text.TOFUpdate_Task
                0x00000000       0x20 build/default/debug/_ext/1315301415/TOFUpdateTask.o
 .rodata        0x00000000        0x4 build/default/debug/_ext/1315301415/TOFUpdateTask.o
 .text          0x00000000        0x0 build/default/debug/_ext/1315301415/MAVStatusTask.o
 .data          0x00000000        0x0 build/default/debug/_ext/1315301415/MAVStatusTask.o
 .bss           0x00000000        0x0 build/default/debug/_ext/1315301415/MAVStatusTask.o
 .reginfo       0x00000000       0x18 build/default/debug/_ext/1315301415/MAVStatusTask.o
 .text.MAVStatus_Task
                0x00000000       0x20 build/default/debug/_ext/1315301415/MAVStatusTask.o
 .rodata        0x00000000        0x4 build/default/debug/_ext/1315301415/MAVStatusTask.o
 .text          0x00000000        0x0 build/default/debug/_ext/1315301415/IMUUpdateTask.o
 .data          0x00000000        0x0 build/default/debug/_ext/1315301415/IMUUpdateTask.o
 .bss           0x00000000        0x0 build/default/debug/_ext/1315301415/IMUUpdateTask.o
 .reginfo       0x00000000       0x18 build/default/debug/_ext/1315301415/IMUUpdateTask.o
 .text.IMUUpdate_Task
                0x00000000       0x20 build/default/debug/_ext/1315301415/IMUUpdateTask.o
 .rodata        0x00000000        0x4 build/default/debug/_ext/1315301415/IMUUpdateTask.o
 .text          0x00000000        0x0 build/default/debug/_ext/1313821444/num.o
 .data          0x00000000        0x0 build/default/debug/_ext/1313821444/num.o
 .bss           0x00000000        0x0 build/default/debug/_ext/1313821444/num.o
 .reginfo       0x00000000       0x18 build/default/debug/_ext/1313821444/num.o
 .text.deadband
                0x00000000       0x88 build/default/debug/_ext/1313821444/num.o
 .text.clamp    0x00000000       0x60 build/default/debug/_ext/1313821444/num.o
 .text          0x00000000        0x0 /tmp/ccUSX7Wj.o
 .data          0x00000000        0x0 /tmp/ccUSX7Wj.o
 .bss           0x00000000        0x0 /tmp/ccUSX7Wj.o
 .reginfo       0x00000000       0x18 /tmp/ccUSX7Wj.o
 .text          0x00000000        0x0 /tmp/cccIpb7j.o
 .data          0x00000000        0x0 /tmp/cccIpb7j.o
 .bss           0x00000000        0x0 /tmp/cccIpb7j.o
 .reginfo       0x00000000       0x18 /tmp/cccIpb7j.o
 .text          0x00000000        0x0 /tmp/cctcrwCj.o
 .data          0x00000000        0x0 /tmp/cctcrwCj.o
 .bss           0x00000000        0x0 /tmp/cctcrwCj.o
 .reginfo       0x00000000       0x18 /tmp/cctcrwCj.o
 .discard       0x00000000        0x4 /tmp/cctcrwCj.o
 .data          0x00000000        0x0 /opt/microchip/xc32/v2.41/bin/bin/../../lib/gcc/pic32mx/4.8.3/../../../../pic32mx/lib/pic32_software_reset.o
 .bss           0x00000000        0x0 /opt/microchip/xc32/v2.41/bin/bin/../../lib/gcc/pic32mx/4.8.3/../../../../pic32mx/lib/pic32_software_reset.o
 .reginfo       0x00000000       0x18 /opt/microchip/xc32/v2.41/bin/bin/../../lib/gcc/pic32mx/4.8.3/../../../../pic32mx/lib/pic32_software_reset.o
 .text          0x00000000        0x0 /opt/microchip/xc32/v2.41/bin/bin/../../lib/gcc/pic32mx/4.8.3/../../../../pic32mx/lib/./proc/32MZ2048ECM100/vector_offset_init.o
 .data          0x00000000        0x0 /opt/microchip/xc32/v2.41/bin/bin/../../lib/gcc/pic32mx/4.8.3/../../../../pic32mx/lib/./proc/32MZ2048ECM100/vector_offset_init.o
 .bss           0x00000000        0x0 /opt/microchip/xc32/v2.41/bin/bin/../../lib/gcc/pic32mx/4.8.3/../../../../pic32mx/lib/./proc/32MZ2048ECM100/vector_offset_init.o
 .reginfo       0x00000000       0x18 /opt/microchip/xc32/v2.41/bin/bin/../../lib/gcc/pic32mx/4.8.3/../../../../pic32mx/lib/./proc/32MZ2048ECM100/vector_offset_init.o
 .text          0x00000000       0x4c /opt/microchip/xc32/v2.41/bin/bin/../../lib/gcc/pic32mx/4.8.3/libgcc.a(floatunsisf.o)
 .data          0x00000000        0x0 /opt/microchip/xc32/v2.41/bin/bin/../../lib/gcc/pic32mx/4.8.3/libgcc.a(floatunsisf.o)
 .bss           0x00000000        0x0 /opt/microchip/xc32/v2.41/bin/bin/../../lib/gcc/pic32mx/4.8.3/libgcc.a(floatunsisf.o)
 .reginfo       0x00000000       0x18 /opt/microchip/xc32/v2.41/bin/bin/../../lib/gcc/pic32mx/4.8.3/libgcc.a(floatunsisf.o)
 .data          0x00000000        0x0 /opt/microchip/xc32/v2.41/bin/bin/../../lib/gcc/pic32mx/4.8.3/../../../../pic32mx/lib/libpic32.a(memcmp.o)
 .bss           0x00000000        0x0 /opt/microchip/xc32/v2.41/bin/bin/../../lib/gcc/pic32mx/4.8.3/../../../../pic32mx/lib/libpic32.a(memcmp.o)
 .reginfo       0x00000000       0x18 /opt/microchip/xc32/v2.41/bin/bin/../../lib/gcc/pic32mx/4.8.3/../../../../pic32mx/lib/libpic32.a(memcmp.o)
 .data          0x00000000        0x0 /opt/microchip/xc32/v2.41/bin/bin/../../lib/gcc/pic32mx/4.8.3/../../../../pic32mx/lib/libpic32.a(memcpy.o)
 .bss           0x00000000        0x0 /opt/microchip/xc32/v2.41/bin/bin/../../lib/gcc/pic32mx/4.8.3/../../../../pic32mx/lib/libpic32.a(memcpy.o)
 .reginfo       0x00000000       0x18 /opt/microchip/xc32/v2.41/bin/bin/../../lib/gcc/pic32mx/4.8.3/../../../../pic32mx/lib/libpic32.a(memcpy.o)
 .data          0x00000000        0x0 /opt/microchip/xc32/v2.41/bin/bin/../../lib/gcc/pic32mx/4.8.3/../../../../pic32mx/lib/libpic32.a(memset.o)
 .bss           0x00000000        0x0 /opt/microchip/xc32/v2.41/bin/bin/../../lib/gcc/pic32mx/4.8.3/../../../../pic32mx/lib/libpic32.a(memset.o)
 .reginfo       0x00000000       0x18 /opt/microchip/xc32/v2.41/bin/bin/../../lib/gcc/pic32mx/4.8.3/../../../../pic32mx/lib/libpic32.a(memset.o)
 .text          0x00000000        0x0 /opt/microchip/xc32/v2.41/bin/bin/../../lib/gcc/pic32mx/4.8.3/../../../../pic32mx/lib/libpic32.a(default-bootstrap-exception-handler.o)
 .data          0x00000000        0x0 /opt/microchip/xc32/v2.41/bin/bin/../../lib/gcc/pic32mx/4.8.3/../../../../pic32mx/lib/libpic32.a(default-bootstrap-exception-handler.o)
 .bss           0x00000000        0x0 /opt/microchip/xc32/v2.41/bin/bin/../../lib/gcc/pic32mx/4.8.3/../../../../pic32mx/lib/libpic32.a(default-bootstrap-exception-handler.o)
 .reginfo       0x00000000       0x18 /opt/microchip/xc32/v2.41/bin/bin/../../lib/gcc/pic32mx/4.8.3/../../../../pic32mx/lib/libpic32.a(default-bootstrap-exception-handler.o)
 .text          0x00000000        0x0 /opt/microchip/xc32/v2.41/bin/bin/../../lib/gcc/pic32mx/4.8.3/../../../../pic32mx/lib/libpic32.a(default-on-reset.o)
 .data          0x00000000        0x0 /opt/microchip/xc32/v2.41/bin/bin/../../lib/gcc/pic32mx/4.8.3/../../../../pic32mx/lib/libpic32.a(default-on-reset.o)
 .bss           0x00000000        0x0 /opt/microchip/xc32/v2.41/bin/bin/../../lib/gcc/pic32mx/4.8.3/../../../../pic32mx/lib/libpic32.a(default-on-reset.o)
 .reginfo       0x00000000       0x18 /opt/microchip/xc32/v2.41/bin/bin/../../lib/gcc/pic32mx/4.8.3/../../../../pic32mx/lib/libpic32.a(default-on-reset.o)
 .text          0x00000000        0x0 /opt/microchip/xc32/v2.41/bin/bin/../../lib/gcc/pic32mx/4.8.3/../../../../pic32mx/lib/libpic32.a(default-on-bootstrap.o)
 .data          0x00000000        0x0 /opt/microchip/xc32/v2.41/bin/bin/../../lib/gcc/pic32mx/4.8.3/../../../../pic32mx/lib/libpic32.a(default-on-bootstrap.o)
 .bss           0x00000000        0x0 /opt/microchip/xc32/v2.41/bin/bin/../../lib/gcc/pic32mx/4.8.3/../../../../pic32mx/lib/libpic32.a(default-on-bootstrap.o)
 .reginfo       0x00000000       0x18 /opt/microchip/xc32/v2.41/bin/bin/../../lib/gcc/pic32mx/4.8.3/../../../../pic32mx/lib/libpic32.a(default-on-bootstrap.o)
 .data          0x00000000        0x0 /opt/microchip/xc32/v2.41/bin/bin/../../lib/gcc/pic32mx/4.8.3/../../../../pic32mx/lib/libpic32.a(default-nmi-handler.o)
 .bss           0x00000000        0x0 /opt/microchip/xc32/v2.41/bin/bin/../../lib/gcc/pic32mx/4.8.3/../../../../pic32mx/lib/libpic32.a(default-nmi-handler.o)
 .reginfo       0x00000000       0x18 /opt/microchip/xc32/v2.41/bin/bin/../../lib/gcc/pic32mx/4.8.3/../../../../pic32mx/lib/libpic32.a(default-nmi-handler.o)
 .data          0x00000000        0x0 /opt/microchip/xc32/v2.41/bin/bin/../../lib/gcc/pic32mx/4.8.3/../../../../pic32mx/lib/libpic32.a(pic32_data_init.o)
 .bss           0x00000000        0x0 /opt/microchip/xc32/v2.41/bin/bin/../../lib/gcc/pic32mx/4.8.3/../../../../pic32mx/lib/libpic32.a(pic32_data_init.o)
 .reginfo       0x00000000       0x18 /opt/microchip/xc32/v2.41/bin/bin/../../lib/gcc/pic32mx/4.8.3/../../../../pic32mx/lib/libpic32.a(pic32_data_init.o)
 .text          0x00000000        0x0 /opt/microchip/xc32/v2.41/bin/bin/../../lib/gcc/pic32mx/4.8.3/../../../../pic32mx/lib/libpic32.a(pic32_init_cache.o)
 .data          0x00000000        0x0 /opt/microchip/xc32/v2.41/bin/bin/../../lib/gcc/pic32mx/4.8.3/../../../../pic32mx/lib/libpic32.a(pic32_init_cache.o)
 .bss           0x00000000        0x0 /opt/microchip/xc32/v2.41/bin/bin/../../lib/gcc/pic32mx/4.8.3/../../../../pic32mx/lib/libpic32.a(pic32_init_cache.o)
 .reginfo       0x00000000       0x18 /opt/microchip/xc32/v2.41/bin/bin/../../lib/gcc/pic32mx/4.8.3/../../../../pic32mx/lib/libpic32.a(pic32_init_cache.o)
 .cache_init.pic32_size_cache
                0x00000000       0x58 /opt/microchip/xc32/v2.41/bin/bin/../../lib/gcc/pic32mx/4.8.3/../../../../pic32mx/lib/libpic32.a(pic32_init_cache.o)
 .text          0x00000000        0x0 /opt/microchip/xc32/v2.41/bin/bin/../../lib/gcc/pic32mx/4.8.3/../../../../pic32mx/lib/libpic32.a(pic32_init_tlb_ebi_sqi.o)
 .data          0x00000000        0x0 /opt/microchip/xc32/v2.41/bin/bin/../../lib/gcc/pic32mx/4.8.3/../../../../pic32mx/lib/libpic32.a(pic32_init_tlb_ebi_sqi.o)
 .bss           0x00000000        0x0 /opt/microchip/xc32/v2.41/bin/bin/../../lib/gcc/pic32mx/4.8.3/../../../../pic32mx/lib/libpic32.a(pic32_init_tlb_ebi_sqi.o)
 .reginfo       0x00000000       0x18 /opt/microchip/xc32/v2.41/bin/bin/../../lib/gcc/pic32mx/4.8.3/../../../../pic32mx/lib/libpic32.a(pic32_init_tlb_ebi_sqi.o)
 .text          0x00000000        0x0 /opt/microchip/xc32/v2.41/bin/bin/../../lib/gcc/pic32mx/4.8.3/../../../../pic32mx/lib/libpic32.a(cache-err-exception.o)
 .data          0x00000000        0x0 /opt/microchip/xc32/v2.41/bin/bin/../../lib/gcc/pic32mx/4.8.3/../../../../pic32mx/lib/libpic32.a(cache-err-exception.o)
 .bss           0x00000000        0x0 /opt/microchip/xc32/v2.41/bin/bin/../../lib/gcc/pic32mx/4.8.3/../../../../pic32mx/lib/libpic32.a(cache-err-exception.o)
 .reginfo       0x00000000       0x18 /opt/microchip/xc32/v2.41/bin/bin/../../lib/gcc/pic32mx/4.8.3/../../../../pic32mx/lib/libpic32.a(cache-err-exception.o)
 .text          0x00000000        0x0 /opt/microchip/xc32/v2.41/bin/bin/../../lib/gcc/pic32mx/4.8.3/../../../../pic32mx/lib/libpic32.a(simple-tlb-refill-exception.o)
 .data          0x00000000        0x0 /opt/microchip/xc32/v2.41/bin/bin/../../lib/gcc/pic32mx/4.8.3/../../../../pic32mx/lib/libpic32.a(simple-tlb-refill-exception.o)
 .bss           0x00000000        0x0 /opt/microchip/xc32/v2.41/bin/bin/../../lib/gcc/pic32mx/4.8.3/../../../../pic32mx/lib/libpic32.a(simple-tlb-refill-exception.o)
 .reginfo       0x00000000       0x18 /opt/microchip/xc32/v2.41/bin/bin/../../lib/gcc/pic32mx/4.8.3/../../../../pic32mx/lib/libpic32.a(simple-tlb-refill-exception.o)
 .text          0x00000000        0x0 /opt/microchip/xc32/v2.41/bin/bin/../../lib/gcc/pic32mx/4.8.3/../../../../pic32mx/lib/libpic32.a(defaultinterrupt.o)
 .data          0x00000000        0x0 /opt/microchip/xc32/v2.41/bin/bin/../../lib/gcc/pic32mx/4.8.3/../../../../pic32mx/lib/libpic32.a(defaultinterrupt.o)
 .bss           0x00000000        0x0 /opt/microchip/xc32/v2.41/bin/bin/../../lib/gcc/pic32mx/4.8.3/../../../../pic32mx/lib/libpic32.a(defaultinterrupt.o)
 .reginfo       0x00000000       0x18 /opt/microchip/xc32/v2.41/bin/bin/../../lib/gcc/pic32mx/4.8.3/../../../../pic32mx/lib/libpic32.a(defaultinterrupt.o)
 .text          0x00000000        0x0 /opt/microchip/xc32/v2.41/bin/bin/../../lib/gcc/pic32mx/4.8.3/../../../../pic32mx/lib/libpic32.a(default-cache-err-exception-handler.o)
 .data          0x00000000        0x0 /opt/microchip/xc32/v2.41/bin/bin/../../lib/gcc/pic32mx/4.8.3/../../../../pic32mx/lib/libpic32.a(default-cache-err-exception-handler.o)
 .bss           0x00000000        0x0 /opt/microchip/xc32/v2.41/bin/bin/../../lib/gcc/pic32mx/4.8.3/../../../../pic32mx/lib/libpic32.a(default-cache-err-exception-handler.o)
 .reginfo       0x00000000       0x18 /opt/microchip/xc32/v2.41/bin/bin/../../lib/gcc/pic32mx/4.8.3/../../../../pic32mx/lib/libpic32.a(default-cache-err-exception-handler.o)
 .text          0x00000000        0x0 /opt/microchip/xc32/v2.41/bin/bin/../../lib/gcc/pic32mx/4.8.3/../../../../pic32mx/lib/libpic32.a(default-simple-tlb-refill-exception-handler.o)
 .data          0x00000000        0x0 /opt/microchip/xc32/v2.41/bin/bin/../../lib/gcc/pic32mx/4.8.3/../../../../pic32mx/lib/libpic32.a(default-simple-tlb-refill-exception-handler.o)
 .bss           0x00000000        0x0 /opt/microchip/xc32/v2.41/bin/bin/../../lib/gcc/pic32mx/4.8.3/../../../../pic32mx/lib/libpic32.a(default-simple-tlb-refill-exception-handler.o)
 .reginfo       0x00000000       0x18 /opt/microchip/xc32/v2.41/bin/bin/../../lib/gcc/pic32mx/4.8.3/../../../../pic32mx/lib/libpic32.a(default-simple-tlb-refill-exception-handler.o)
 .text          0x00000000        0x0 /opt/microchip/xc32/v2.41/bin/bin/../../lib/gcc/pic32mx/4.8.3/../../../../pic32mx/lib/libc.a(malloc.o)
 .data          0x00000000        0x0 /opt/microchip/xc32/v2.41/bin/bin/../../lib/gcc/pic32mx/4.8.3/../../../../pic32mx/lib/libc.a(malloc.o)
 .bss           0x00000000       0x20 /opt/microchip/xc32/v2.41/bin/bin/../../lib/gcc/pic32mx/4.8.3/../../../../pic32mx/lib/libc.a(malloc.o)
 .reginfo       0x00000000       0x18 /opt/microchip/xc32/v2.41/bin/bin/../../lib/gcc/pic32mx/4.8.3/../../../../pic32mx/lib/libc.a(malloc.o)
 .text.malloc   0x00000000      0x28c /opt/microchip/xc32/v2.41/bin/bin/../../lib/gcc/pic32mx/4.8.3/../../../../pic32mx/lib/libc.a(malloc.o)
 .text.free     0x00000000       0x30 /opt/microchip/xc32/v2.41/bin/bin/../../lib/gcc/pic32mx/4.8.3/../../../../pic32mx/lib/libc.a(malloc.o)
 .text.realloc  0x00000000      0x148 /opt/microchip/xc32/v2.41/bin/bin/../../lib/gcc/pic32mx/4.8.3/../../../../pic32mx/lib/libc.a(malloc.o)
 .text          0x00000000        0x0 /opt/microchip/xc32/v2.41/bin/bin/../../lib/gcc/pic32mx/4.8.3/../../../../pic32mx/lib/libc.a(puts.o)
 .data          0x00000000        0x0 /opt/microchip/xc32/v2.41/bin/bin/../../lib/gcc/pic32mx/4.8.3/../../../../pic32mx/lib/libc.a(puts.o)
 .bss           0x00000000        0x0 /opt/microchip/xc32/v2.41/bin/bin/../../lib/gcc/pic32mx/4.8.3/../../../../pic32mx/lib/libc.a(puts.o)
 .reginfo       0x00000000       0x18 /opt/microchip/xc32/v2.41/bin/bin/../../lib/gcc/pic32mx/4.8.3/../../../../pic32mx/lib/libc.a(puts.o)
 .text          0x00000000        0x0 /opt/microchip/xc32/v2.41/bin/bin/../../lib/gcc/pic32mx/4.8.3/../../../../pic32mx/lib/libc.a(strcat.o)
 .data          0x00000000        0x0 /opt/microchip/xc32/v2.41/bin/bin/../../lib/gcc/pic32mx/4.8.3/../../../../pic32mx/lib/libc.a(strcat.o)
 .bss           0x00000000        0x0 /opt/microchip/xc32/v2.41/bin/bin/../../lib/gcc/pic32mx/4.8.3/../../../../pic32mx/lib/libc.a(strcat.o)
 .reginfo       0x00000000       0x18 /opt/microchip/xc32/v2.41/bin/bin/../../lib/gcc/pic32mx/4.8.3/../../../../pic32mx/lib/libc.a(strcat.o)
 .text          0x00000000        0x0 /opt/microchip/xc32/v2.41/bin/bin/../../lib/gcc/pic32mx/4.8.3/../../../../pic32mx/lib/libc.a(sprintf_cdnopuxX.eo)
 .data          0x00000000        0x0 /opt/microchip/xc32/v2.41/bin/bin/../../lib/gcc/pic32mx/4.8.3/../../../../pic32mx/lib/libc.a(sprintf_cdnopuxX.eo)
 .bss           0x00000000        0x0 /opt/microchip/xc32/v2.41/bin/bin/../../lib/gcc/pic32mx/4.8.3/../../../../pic32mx/lib/libc.a(sprintf_cdnopuxX.eo)
 .reginfo       0x00000000       0x18 /opt/microchip/xc32/v2.41/bin/bin/../../lib/gcc/pic32mx/4.8.3/../../../../pic32mx/lib/libc.a(sprintf_cdnopuxX.eo)
 .text          0x00000000        0x0 /opt/microchip/xc32/v2.41/bin/bin/../../lib/gcc/pic32mx/4.8.3/../../../../pic32mx/lib/libc.a(_iob.o)
 .reginfo       0x00000000       0x18 /opt/microchip/xc32/v2.41/bin/bin/../../lib/gcc/pic32mx/4.8.3/../../../../pic32mx/lib/libc.a(_iob.o)
 .text          0x00000000        0x0 /opt/microchip/xc32/v2.41/bin/bin/../../lib/gcc/pic32mx/4.8.3/../../../../pic32mx/lib/libc.a(_fputc_simple.o)
 .data          0x00000000        0x0 /opt/microchip/xc32/v2.41/bin/bin/../../lib/gcc/pic32mx/4.8.3/../../../../pic32mx/lib/libc.a(_fputc_simple.o)
 .bss           0x00000000        0x0 /opt/microchip/xc32/v2.41/bin/bin/../../lib/gcc/pic32mx/4.8.3/../../../../pic32mx/lib/libc.a(_fputc_simple.o)
 .reginfo       0x00000000       0x18 /opt/microchip/xc32/v2.41/bin/bin/../../lib/gcc/pic32mx/4.8.3/../../../../pic32mx/lib/libc.a(_fputc_simple.o)
 .text          0x00000000        0x0 /opt/microchip/xc32/v2.41/bin/bin/../../lib/gcc/pic32mx/4.8.3/../../../../pic32mx/lib/libc.a(doprnt_cdnopuxX.eo)
 .data          0x00000000        0x0 /opt/microchip/xc32/v2.41/bin/bin/../../lib/gcc/pic32mx/4.8.3/../../../../pic32mx/lib/libc.a(doprnt_cdnopuxX.eo)
 .bss           0x00000000        0x0 /opt/microchip/xc32/v2.41/bin/bin/../../lib/gcc/pic32mx/4.8.3/../../../../pic32mx/lib/libc.a(doprnt_cdnopuxX.eo)
 .reginfo       0x00000000       0x18 /opt/microchip/xc32/v2.41/bin/bin/../../lib/gcc/pic32mx/4.8.3/../../../../pic32mx/lib/libc.a(doprnt_cdnopuxX.eo)
 .text          0x00000000        0x0 /opt/microchip/xc32/v2.41/bin/bin/../../lib/gcc/pic32mx/4.8.3/../../../../pic32mx/lib/libc.a(_flsbuf_simple.o)
 .data          0x00000000        0x0 /opt/microchip/xc32/v2.41/bin/bin/../../lib/gcc/pic32mx/4.8.3/../../../../pic32mx/lib/libc.a(_flsbuf_simple.o)
 .bss           0x00000000        0x0 /opt/microchip/xc32/v2.41/bin/bin/../../lib/gcc/pic32mx/4.8.3/../../../../pic32mx/lib/libc.a(_flsbuf_simple.o)
 .reginfo       0x00000000       0x18 /opt/microchip/xc32/v2.41/bin/bin/../../lib/gcc/pic32mx/4.8.3/../../../../pic32mx/lib/libc.a(_flsbuf_simple.o)
 .text          0x00000000        0x0 /opt/microchip/xc32/v2.41/bin/bin/../../lib/gcc/pic32mx/4.8.3/../../../../pic32mx/lib/libc.a(ctype.o)
 .data          0x00000000        0x0 /opt/microchip/xc32/v2.41/bin/bin/../../lib/gcc/pic32mx/4.8.3/../../../../pic32mx/lib/libc.a(ctype.o)
 .bss           0x00000000        0x0 /opt/microchip/xc32/v2.41/bin/bin/../../lib/gcc/pic32mx/4.8.3/../../../../pic32mx/lib/libc.a(ctype.o)
 .reginfo       0x00000000       0x18 /opt/microchip/xc32/v2.41/bin/bin/../../lib/gcc/pic32mx/4.8.3/../../../../pic32mx/lib/libc.a(ctype.o)
 .text          0x00000000        0x0 /opt/microchip/xc32/v2.41/bin/bin/../../lib/gcc/pic32mx/4.8.3/../../../../pic32mx/lib/libm.a(fp32div.o)
 .data          0x00000000        0x0 /opt/microchip/xc32/v2.41/bin/bin/../../lib/gcc/pic32mx/4.8.3/../../../../pic32mx/lib/libm.a(fp32div.o)
 .bss           0x00000000        0x0 /opt/microchip/xc32/v2.41/bin/bin/../../lib/gcc/pic32mx/4.8.3/../../../../pic32mx/lib/libm.a(fp32div.o)
 .reginfo       0x00000000       0x18 /opt/microchip/xc32/v2.41/bin/bin/../../lib/gcc/pic32mx/4.8.3/../../../../pic32mx/lib/libm.a(fp32div.o)
 .text.fp32div  0x00000000      0x230 /opt/microchip/xc32/v2.41/bin/bin/../../lib/gcc/pic32mx/4.8.3/../../../../pic32mx/lib/libm.a(fp32div.o)
 .text          0x00000000        0x0 /opt/microchip/xc32/v2.41/bin/bin/../../lib/gcc/pic32mx/4.8.3/../../../../pic32mx/lib/libm.a(fp32mul.o)
 .data          0x00000000        0x0 /opt/microchip/xc32/v2.41/bin/bin/../../lib/gcc/pic32mx/4.8.3/../../../../pic32mx/lib/libm.a(fp32mul.o)
 .bss           0x00000000        0x0 /opt/microchip/xc32/v2.41/bin/bin/../../lib/gcc/pic32mx/4.8.3/../../../../pic32mx/lib/libm.a(fp32mul.o)
 .reginfo       0x00000000       0x18 /opt/microchip/xc32/v2.41/bin/bin/../../lib/gcc/pic32mx/4.8.3/../../../../pic32mx/lib/libm.a(fp32mul.o)
 .text.fp32mul  0x00000000      0x1bc /opt/microchip/xc32/v2.41/bin/bin/../../lib/gcc/pic32mx/4.8.3/../../../../pic32mx/lib/libm.a(fp32mul.o)
 .text          0x00000000        0x0 /opt/microchip/xc32/v2.41/bin/bin/../../lib/gcc/pic32mx/4.8.3/../../../../pic32mx/lib/libm.a(fp32subadd.o)
 .data          0x00000000        0x0 /opt/microchip/xc32/v2.41/bin/bin/../../lib/gcc/pic32mx/4.8.3/../../../../pic32mx/lib/libm.a(fp32subadd.o)
 .bss           0x00000000        0x0 /opt/microchip/xc32/v2.41/bin/bin/../../lib/gcc/pic32mx/4.8.3/../../../../pic32mx/lib/libm.a(fp32subadd.o)
 .reginfo       0x00000000       0x18 /opt/microchip/xc32/v2.41/bin/bin/../../lib/gcc/pic32mx/4.8.3/../../../../pic32mx/lib/libm.a(fp32subadd.o)
 .text.fpsubadd
                0x00000000      0x278 /opt/microchip/xc32/v2.41/bin/bin/../../lib/gcc/pic32mx/4.8.3/../../../../pic32mx/lib/libm.a(fp32subadd.o)
 .text          0x00000000        0x0 /opt/microchip/xc32/v2.41/bin/bin/../../lib/gcc/pic32mx/4.8.3/../../../../pic32mx/lib/libm.a(fpcmp.o)
 .data          0x00000000        0x0 /opt/microchip/xc32/v2.41/bin/bin/../../lib/gcc/pic32mx/4.8.3/../../../../pic32mx/lib/libm.a(fpcmp.o)
 .bss           0x00000000        0x0 /opt/microchip/xc32/v2.41/bin/bin/../../lib/gcc/pic32mx/4.8.3/../../../../pic32mx/lib/libm.a(fpcmp.o)
 .reginfo       0x00000000       0x18 /opt/microchip/xc32/v2.41/bin/bin/../../lib/gcc/pic32mx/4.8.3/../../../../pic32mx/lib/libm.a(fpcmp.o)
 .text.fpcmp    0x00000000       0x9c /opt/microchip/xc32/v2.41/bin/bin/../../lib/gcc/pic32mx/4.8.3/../../../../pic32mx/lib/libm.a(fpcmp.o)
 .text          0x00000000        0x0 /opt/microchip/xc32/v2.41/bin/bin/../../lib/gcc/pic32mx/4.8.3/../../../../pic32mx/lib/libm.a(fpcos32.o)
 .data          0x00000000        0x0 /opt/microchip/xc32/v2.41/bin/bin/../../lib/gcc/pic32mx/4.8.3/../../../../pic32mx/lib/libm.a(fpcos32.o)
 .bss           0x00000000        0x0 /opt/microchip/xc32/v2.41/bin/bin/../../lib/gcc/pic32mx/4.8.3/../../../../pic32mx/lib/libm.a(fpcos32.o)
 .reginfo       0x00000000       0x18 /opt/microchip/xc32/v2.41/bin/bin/../../lib/gcc/pic32mx/4.8.3/../../../../pic32mx/lib/libm.a(fpcos32.o)
 .text.libm     0x00000000      0x118 /opt/microchip/xc32/v2.41/bin/bin/../../lib/gcc/pic32mx/4.8.3/../../../../pic32mx/lib/libm.a(fpcos32.o)
 .text          0x00000000        0x0 /opt/microchip/xc32/v2.41/bin/bin/../../lib/gcc/pic32mx/4.8.3/../../../../pic32mx/lib/libm.a(fpreduct32.o)
 .data          0x00000000        0x0 /opt/microchip/xc32/v2.41/bin/bin/../../lib/gcc/pic32mx/4.8.3/../../../../pic32mx/lib/libm.a(fpreduct32.o)
 .bss           0x00000000        0x0 /opt/microchip/xc32/v2.41/bin/bin/../../lib/gcc/pic32mx/4.8.3/../../../../pic32mx/lib/libm.a(fpreduct32.o)
 .reginfo       0x00000000       0x18 /opt/microchip/xc32/v2.41/bin/bin/../../lib/gcc/pic32mx/4.8.3/../../../../pic32mx/lib/libm.a(fpreduct32.o)
 .text.libm     0x00000000      0x10c /opt/microchip/xc32/v2.41/bin/bin/../../lib/gcc/pic32mx/4.8.3/../../../../pic32mx/lib/libm.a(fpreduct32.o)
 .text          0x00000000        0x0 /opt/microchip/xc32/v2.41/bin/bin/../../lib/gcc/pic32mx/4.8.3/../../../../pic32mx/lib/libm.a(fpsin32.o)
 .data          0x00000000        0x0 /opt/microchip/xc32/v2.41/bin/bin/../../lib/gcc/pic32mx/4.8.3/../../../../pic32mx/lib/libm.a(fpsin32.o)
 .bss           0x00000000        0x0 /opt/microchip/xc32/v2.41/bin/bin/../../lib/gcc/pic32mx/4.8.3/../../../../pic32mx/lib/libm.a(fpsin32.o)
 .reginfo       0x00000000       0x18 /opt/microchip/xc32/v2.41/bin/bin/../../lib/gcc/pic32mx/4.8.3/../../../../pic32mx/lib/libm.a(fpsin32.o)
 .text.libm     0x00000000      0x11c /opt/microchip/xc32/v2.41/bin/bin/../../lib/gcc/pic32mx/4.8.3/../../../../pic32mx/lib/libm.a(fpsin32.o)
 .text          0x00000000        0x0 /opt/microchip/xc32/v2.41/bin/bin/../../lib/gcc/pic32mx/4.8.3/../../../../pic32mx/lib/libm.a(fptoul.o)
 .data          0x00000000        0x0 /opt/microchip/xc32/v2.41/bin/bin/../../lib/gcc/pic32mx/4.8.3/../../../../pic32mx/lib/libm.a(fptoul.o)
 .bss           0x00000000        0x0 /opt/microchip/xc32/v2.41/bin/bin/../../lib/gcc/pic32mx/4.8.3/../../../../pic32mx/lib/libm.a(fptoul.o)
 .reginfo       0x00000000       0x18 /opt/microchip/xc32/v2.41/bin/bin/../../lib/gcc/pic32mx/4.8.3/../../../../pic32mx/lib/libm.a(fptoul.o)
 .text.fptoul   0x00000000       0x7c /opt/microchip/xc32/v2.41/bin/bin/../../lib/gcc/pic32mx/4.8.3/../../../../pic32mx/lib/libm.a(fptoul.o)
 .text          0x00000000        0x0 /opt/microchip/xc32/v2.41/bin/bin/../../lib/gcc/pic32mx/4.8.3/../../../../pic32mx/lib/libm.a(sincof32.o)
 .data          0x00000000       0x24 /opt/microchip/xc32/v2.41/bin/bin/../../lib/gcc/pic32mx/4.8.3/../../../../pic32mx/lib/libm.a(sincof32.o)
 .bss           0x00000000        0x0 /opt/microchip/xc32/v2.41/bin/bin/../../lib/gcc/pic32mx/4.8.3/../../../../pic32mx/lib/libm.a(sincof32.o)
 .reginfo       0x00000000       0x18 /opt/microchip/xc32/v2.41/bin/bin/../../lib/gcc/pic32mx/4.8.3/../../../../pic32mx/lib/libm.a(sincof32.o)
 .text          0x00000000        0x0 /opt/microchip/xc32/v2.41/bin/bin/../../lib/gcc/pic32mx/4.8.3/../../../../pic32mx/lib/libm.a(sitofp.o)
 .data          0x00000000        0x0 /opt/microchip/xc32/v2.41/bin/bin/../../lib/gcc/pic32mx/4.8.3/../../../../pic32mx/lib/libm.a(sitofp.o)
 .bss           0x00000000        0x0 /opt/microchip/xc32/v2.41/bin/bin/../../lib/gcc/pic32mx/4.8.3/../../../../pic32mx/lib/libm.a(sitofp.o)
 .reginfo       0x00000000       0x18 /opt/microchip/xc32/v2.41/bin/bin/../../lib/gcc/pic32mx/4.8.3/../../../../pic32mx/lib/libm.a(sitofp.o)
 .text          0x00000000        0x0 /opt/microchip/xc32/v2.41/bin/bin/../../lib/gcc/pic32mx/4.8.3/../../../../pic32mx/lib/libm.a(w_asinf.o)
 .data          0x00000000        0x0 /opt/microchip/xc32/v2.41/bin/bin/../../lib/gcc/pic32mx/4.8.3/../../../../pic32mx/lib/libm.a(w_asinf.o)
 .bss           0x00000000        0x0 /opt/microchip/xc32/v2.41/bin/bin/../../lib/gcc/pic32mx/4.8.3/../../../../pic32mx/lib/libm.a(w_asinf.o)
 .reginfo       0x00000000       0x18 /opt/microchip/xc32/v2.41/bin/bin/../../lib/gcc/pic32mx/4.8.3/../../../../pic32mx/lib/libm.a(w_asinf.o)
 .text.asinf    0x00000000       0x7c /opt/microchip/xc32/v2.41/bin/bin/../../lib/gcc/pic32mx/4.8.3/../../../../pic32mx/lib/libm.a(w_asinf.o)
 .rodata        0x00000000        0x4 /opt/microchip/xc32/v2.41/bin/bin/../../lib/gcc/pic32mx/4.8.3/../../../../pic32mx/lib/libm.a(w_asinf.o)
 .text          0x00000000        0x0 /opt/microchip/xc32/v2.41/bin/bin/../../lib/gcc/pic32mx/4.8.3/../../../../pic32mx/lib/libm.a(w_atan2f.o)
 .data          0x00000000        0x0 /opt/microchip/xc32/v2.41/bin/bin/../../lib/gcc/pic32mx/4.8.3/../../../../pic32mx/lib/libm.a(w_atan2f.o)
 .bss           0x00000000        0x0 /opt/microchip/xc32/v2.41/bin/bin/../../lib/gcc/pic32mx/4.8.3/../../../../pic32mx/lib/libm.a(w_atan2f.o)
 .reginfo       0x00000000       0x18 /opt/microchip/xc32/v2.41/bin/bin/../../lib/gcc/pic32mx/4.8.3/../../../../pic32mx/lib/libm.a(w_atan2f.o)
 .text.atan2f   0x00000000      0x1f8 /opt/microchip/xc32/v2.41/bin/bin/../../lib/gcc/pic32mx/4.8.3/../../../../pic32mx/lib/libm.a(w_atan2f.o)
 .rodata        0x00000000       0x28 /opt/microchip/xc32/v2.41/bin/bin/../../lib/gcc/pic32mx/4.8.3/../../../../pic32mx/lib/libm.a(w_atan2f.o)
 .text          0x00000000        0x0 /opt/microchip/xc32/v2.41/bin/bin/../../lib/gcc/pic32mx/4.8.3/../../../../pic32mx/lib/libm.a(support.o)
 .data          0x00000000        0x0 /opt/microchip/xc32/v2.41/bin/bin/../../lib/gcc/pic32mx/4.8.3/../../../../pic32mx/lib/libm.a(support.o)
 .bss           0x00000000        0x0 /opt/microchip/xc32/v2.41/bin/bin/../../lib/gcc/pic32mx/4.8.3/../../../../pic32mx/lib/libm.a(support.o)
 .reginfo       0x00000000       0x18 /opt/microchip/xc32/v2.41/bin/bin/../../lib/gcc/pic32mx/4.8.3/../../../../pic32mx/lib/libm.a(support.o)
 .text.copysignl
                0x00000000       0x34 /opt/microchip/xc32/v2.41/bin/bin/../../lib/gcc/pic32mx/4.8.3/../../../../pic32mx/lib/libm.a(support.o)
 .text.copysign
                0x00000000       0x3c /opt/microchip/xc32/v2.41/bin/bin/../../lib/gcc/pic32mx/4.8.3/../../../../pic32mx/lib/libm.a(support.o)
 .text.copysignf
                0x00000000       0x90 /opt/microchip/xc32/v2.41/bin/bin/../../lib/gcc/pic32mx/4.8.3/../../../../pic32mx/lib/libm.a(support.o)
 .text.logbl    0x00000000      0x124 /opt/microchip/xc32/v2.41/bin/bin/../../lib/gcc/pic32mx/4.8.3/../../../../pic32mx/lib/libm.a(support.o)
 .text.logb     0x00000000       0x1c /opt/microchip/xc32/v2.41/bin/bin/../../lib/gcc/pic32mx/4.8.3/../../../../pic32mx/lib/libm.a(support.o)
 .text.logbf    0x00000000       0x3c /opt/microchip/xc32/v2.41/bin/bin/../../lib/gcc/pic32mx/4.8.3/../../../../pic32mx/lib/libm.a(support.o)
 .text.finitel  0x00000000       0x1c /opt/microchip/xc32/v2.41/bin/bin/../../lib/gcc/pic32mx/4.8.3/../../../../pic32mx/lib/libm.a(support.o)
 .text.finite   0x00000000       0x24 /opt/microchip/xc32/v2.41/bin/bin/../../lib/gcc/pic32mx/4.8.3/../../../../pic32mx/lib/libm.a(support.o)
 .text.finitef  0x00000000       0x3c /opt/microchip/xc32/v2.41/bin/bin/../../lib/gcc/pic32mx/4.8.3/../../../../pic32mx/lib/libm.a(support.o)
 .text.dreml    0x00000000      0x46c /opt/microchip/xc32/v2.41/bin/bin/../../lib/gcc/pic32mx/4.8.3/../../../../pic32mx/lib/libm.a(support.o)
 .text.drem     0x00000000       0x1c /opt/microchip/xc32/v2.41/bin/bin/../../lib/gcc/pic32mx/4.8.3/../../../../pic32mx/lib/libm.a(support.o)
 .text.dremf    0x00000000       0x8c /opt/microchip/xc32/v2.41/bin/bin/../../lib/gcc/pic32mx/4.8.3/../../../../pic32mx/lib/libm.a(support.o)
 .rodata        0x00000000       0x20 /opt/microchip/xc32/v2.41/bin/bin/../../lib/gcc/pic32mx/4.8.3/../../../../pic32mx/lib/libm.a(support.o)
 .text          0x00000000        0x0 /opt/microchip/xc32/v2.41/bin/bin/../../lib/gcc/pic32mx/4.8.3/../../../../pic32mx/lib/libm.a(dpldexp.o)
 .data          0x00000000        0x0 /opt/microchip/xc32/v2.41/bin/bin/../../lib/gcc/pic32mx/4.8.3/../../../../pic32mx/lib/libm.a(dpldexp.o)
 .bss           0x00000000        0x0 /opt/microchip/xc32/v2.41/bin/bin/../../lib/gcc/pic32mx/4.8.3/../../../../pic32mx/lib/libm.a(dpldexp.o)
 .reginfo       0x00000000       0x18 /opt/microchip/xc32/v2.41/bin/bin/../../lib/gcc/pic32mx/4.8.3/../../../../pic32mx/lib/libm.a(dpldexp.o)
 .text.libm     0x00000000      0x16c /opt/microchip/xc32/v2.41/bin/bin/../../lib/gcc/pic32mx/4.8.3/../../../../pic32mx/lib/libm.a(dpldexp.o)
 .text          0x00000000        0x0 /opt/microchip/xc32/v2.41/bin/bin/../../lib/gcc/pic32mx/4.8.3/../../../../pic32mx/lib/libm.a(dp32div.o)
 .data          0x00000000        0x0 /opt/microchip/xc32/v2.41/bin/bin/../../lib/gcc/pic32mx/4.8.3/../../../../pic32mx/lib/libm.a(dp32div.o)
 .bss           0x00000000        0x0 /opt/microchip/xc32/v2.41/bin/bin/../../lib/gcc/pic32mx/4.8.3/../../../../pic32mx/lib/libm.a(dp32div.o)
 .reginfo       0x00000000       0x18 /opt/microchip/xc32/v2.41/bin/bin/../../lib/gcc/pic32mx/4.8.3/../../../../pic32mx/lib/libm.a(dp32div.o)
 .text.dp32mul  0x00000000      0x4b8 /opt/microchip/xc32/v2.41/bin/bin/../../lib/gcc/pic32mx/4.8.3/../../../../pic32mx/lib/libm.a(dp32div.o)
 .text          0x00000000        0x0 /opt/microchip/xc32/v2.41/bin/bin/../../lib/gcc/pic32mx/4.8.3/../../../../pic32mx/lib/libm.a(dp32mul.o)
 .data          0x00000000        0x0 /opt/microchip/xc32/v2.41/bin/bin/../../lib/gcc/pic32mx/4.8.3/../../../../pic32mx/lib/libm.a(dp32mul.o)
 .bss           0x00000000        0x0 /opt/microchip/xc32/v2.41/bin/bin/../../lib/gcc/pic32mx/4.8.3/../../../../pic32mx/lib/libm.a(dp32mul.o)
 .reginfo       0x00000000       0x18 /opt/microchip/xc32/v2.41/bin/bin/../../lib/gcc/pic32mx/4.8.3/../../../../pic32mx/lib/libm.a(dp32mul.o)
 .text.dp32mul  0x00000000      0x32c /opt/microchip/xc32/v2.41/bin/bin/../../lib/gcc/pic32mx/4.8.3/../../../../pic32mx/lib/libm.a(dp32mul.o)
 .text          0x00000000        0x0 /opt/microchip/xc32/v2.41/bin/bin/../../lib/gcc/pic32mx/4.8.3/../../../../pic32mx/lib/libm.a(dp32subadd.o)
 .data          0x00000000        0x0 /opt/microchip/xc32/v2.41/bin/bin/../../lib/gcc/pic32mx/4.8.3/../../../../pic32mx/lib/libm.a(dp32subadd.o)
 .bss           0x00000000        0x0 /opt/microchip/xc32/v2.41/bin/bin/../../lib/gcc/pic32mx/4.8.3/../../../../pic32mx/lib/libm.a(dp32subadd.o)
 .reginfo       0x00000000       0x18 /opt/microchip/xc32/v2.41/bin/bin/../../lib/gcc/pic32mx/4.8.3/../../../../pic32mx/lib/libm.a(dp32subadd.o)
 .text.dp32subadd
                0x00000000      0x430 /opt/microchip/xc32/v2.41/bin/bin/../../lib/gcc/pic32mx/4.8.3/../../../../pic32mx/lib/libm.a(dp32subadd.o)
 .text          0x00000000        0x0 /opt/microchip/xc32/v2.41/bin/bin/../../lib/gcc/pic32mx/4.8.3/../../../../pic32mx/lib/libm.a(dpcmp.o)
 .data          0x00000000        0x0 /opt/microchip/xc32/v2.41/bin/bin/../../lib/gcc/pic32mx/4.8.3/../../../../pic32mx/lib/libm.a(dpcmp.o)
 .bss           0x00000000        0x0 /opt/microchip/xc32/v2.41/bin/bin/../../lib/gcc/pic32mx/4.8.3/../../../../pic32mx/lib/libm.a(dpcmp.o)
 .reginfo       0x00000000       0x18 /opt/microchip/xc32/v2.41/bin/bin/../../lib/gcc/pic32mx/4.8.3/../../../../pic32mx/lib/libm.a(dpcmp.o)
 .text.dpcmp    0x00000000      0x12c /opt/microchip/xc32/v2.41/bin/bin/../../lib/gcc/pic32mx/4.8.3/../../../../pic32mx/lib/libm.a(dpcmp.o)
 .text          0x00000000        0x0 /opt/microchip/xc32/v2.41/bin/bin/../../lib/gcc/pic32mx/4.8.3/../../../../pic32mx/lib/libm.a(dptofp.o)
 .data          0x00000000        0x0 /opt/microchip/xc32/v2.41/bin/bin/../../lib/gcc/pic32mx/4.8.3/../../../../pic32mx/lib/libm.a(dptofp.o)
 .bss           0x00000000        0x0 /opt/microchip/xc32/v2.41/bin/bin/../../lib/gcc/pic32mx/4.8.3/../../../../pic32mx/lib/libm.a(dptofp.o)
 .reginfo       0x00000000       0x18 /opt/microchip/xc32/v2.41/bin/bin/../../lib/gcc/pic32mx/4.8.3/../../../../pic32mx/lib/libm.a(dptofp.o)
 .text.dptofp   0x00000000      0x100 /opt/microchip/xc32/v2.41/bin/bin/../../lib/gcc/pic32mx/4.8.3/../../../../pic32mx/lib/libm.a(dptofp.o)
 .text          0x00000000        0x0 /opt/microchip/xc32/v2.41/bin/bin/../../lib/gcc/pic32mx/4.8.3/../../../../pic32mx/lib/libm.a(fpasin.o)
 .data          0x00000000        0x0 /opt/microchip/xc32/v2.41/bin/bin/../../lib/gcc/pic32mx/4.8.3/../../../../pic32mx/lib/libm.a(fpasin.o)
 .bss           0x00000000        0x0 /opt/microchip/xc32/v2.41/bin/bin/../../lib/gcc/pic32mx/4.8.3/../../../../pic32mx/lib/libm.a(fpasin.o)
 .reginfo       0x00000000       0x18 /opt/microchip/xc32/v2.41/bin/bin/../../lib/gcc/pic32mx/4.8.3/../../../../pic32mx/lib/libm.a(fpasin.o)
 .text.libm     0x00000000      0x1dc /opt/microchip/xc32/v2.41/bin/bin/../../lib/gcc/pic32mx/4.8.3/../../../../pic32mx/lib/libm.a(fpasin.o)
 .text          0x00000000        0x0 /opt/microchip/xc32/v2.41/bin/bin/../../lib/gcc/pic32mx/4.8.3/../../../../pic32mx/lib/libm.a(fpatan2.o)
 .data          0x00000000        0x0 /opt/microchip/xc32/v2.41/bin/bin/../../lib/gcc/pic32mx/4.8.3/../../../../pic32mx/lib/libm.a(fpatan2.o)
 .bss           0x00000000        0x0 /opt/microchip/xc32/v2.41/bin/bin/../../lib/gcc/pic32mx/4.8.3/../../../../pic32mx/lib/libm.a(fpatan2.o)
 .reginfo       0x00000000       0x18 /opt/microchip/xc32/v2.41/bin/bin/../../lib/gcc/pic32mx/4.8.3/../../../../pic32mx/lib/libm.a(fpatan2.o)
 .text.libm     0x00000000      0x248 /opt/microchip/xc32/v2.41/bin/bin/../../lib/gcc/pic32mx/4.8.3/../../../../pic32mx/lib/libm.a(fpatan2.o)
 .text          0x00000000        0x0 /opt/microchip/xc32/v2.41/bin/bin/../../lib/gcc/pic32mx/4.8.3/../../../../pic32mx/lib/libm.a(fpexatan.o)
 .data          0x00000000      0x100 /opt/microchip/xc32/v2.41/bin/bin/../../lib/gcc/pic32mx/4.8.3/../../../../pic32mx/lib/libm.a(fpexatan.o)
 .bss           0x00000000        0x0 /opt/microchip/xc32/v2.41/bin/bin/../../lib/gcc/pic32mx/4.8.3/../../../../pic32mx/lib/libm.a(fpexatan.o)
 .reginfo       0x00000000       0x18 /opt/microchip/xc32/v2.41/bin/bin/../../lib/gcc/pic32mx/4.8.3/../../../../pic32mx/lib/libm.a(fpexatan.o)
 .text.fpexatan
                0x00000000        0x0 /opt/microchip/xc32/v2.41/bin/bin/../../lib/gcc/pic32mx/4.8.3/../../../../pic32mx/lib/libm.a(fpexatan.o)
 .text.libm     0x00000000      0x350 /opt/microchip/xc32/v2.41/bin/bin/../../lib/gcc/pic32mx/4.8.3/../../../../pic32mx/lib/libm.a(fpexatan.o)
 .text          0x00000000        0x0 /opt/microchip/xc32/v2.41/bin/bin/../../lib/gcc/pic32mx/4.8.3/../../../../pic32mx/lib/libm.a(fpfabs.o)
 .data          0x00000000        0x0 /opt/microchip/xc32/v2.41/bin/bin/../../lib/gcc/pic32mx/4.8.3/../../../../pic32mx/lib/libm.a(fpfabs.o)
 .bss           0x00000000        0x0 /opt/microchip/xc32/v2.41/bin/bin/../../lib/gcc/pic32mx/4.8.3/../../../../pic32mx/lib/libm.a(fpfabs.o)
 .reginfo       0x00000000       0x18 /opt/microchip/xc32/v2.41/bin/bin/../../lib/gcc/pic32mx/4.8.3/../../../../pic32mx/lib/libm.a(fpfabs.o)
 .text.fpfabs   0x00000000       0x14 /opt/microchip/xc32/v2.41/bin/bin/../../lib/gcc/pic32mx/4.8.3/../../../../pic32mx/lib/libm.a(fpfabs.o)
 .text          0x00000000        0x0 /opt/microchip/xc32/v2.41/bin/bin/../../lib/gcc/pic32mx/4.8.3/../../../../pic32mx/lib/libm.a(fpexsqrt32.o)
 .data          0x00000000        0x0 /opt/microchip/xc32/v2.41/bin/bin/../../lib/gcc/pic32mx/4.8.3/../../../../pic32mx/lib/libm.a(fpexsqrt32.o)
 .bss           0x00000000        0x0 /opt/microchip/xc32/v2.41/bin/bin/../../lib/gcc/pic32mx/4.8.3/../../../../pic32mx/lib/libm.a(fpexsqrt32.o)
 .reginfo       0x00000000       0x18 /opt/microchip/xc32/v2.41/bin/bin/../../lib/gcc/pic32mx/4.8.3/../../../../pic32mx/lib/libm.a(fpexsqrt32.o)
 .text.libm.fpexsqrt
                0x00000000       0xfc /opt/microchip/xc32/v2.41/bin/bin/../../lib/gcc/pic32mx/4.8.3/../../../../pic32mx/lib/libm.a(fpexsqrt32.o)
 .text          0x00000000        0x0 /opt/microchip/xc32/v2.41/bin/bin/../../lib/gcc/pic32mx/4.8.3/../../../../pic32mx/lib/libm.a(fptodp.o)
 .data          0x00000000        0x0 /opt/microchip/xc32/v2.41/bin/bin/../../lib/gcc/pic32mx/4.8.3/../../../../pic32mx/lib/libm.a(fptodp.o)
 .bss           0x00000000        0x0 /opt/microchip/xc32/v2.41/bin/bin/../../lib/gcc/pic32mx/4.8.3/../../../../pic32mx/lib/libm.a(fptodp.o)
 .reginfo       0x00000000       0x18 /opt/microchip/xc32/v2.41/bin/bin/../../lib/gcc/pic32mx/4.8.3/../../../../pic32mx/lib/libm.a(fptodp.o)
 .text.fptodp   0x00000000       0xac /opt/microchip/xc32/v2.41/bin/bin/../../lib/gcc/pic32mx/4.8.3/../../../../pic32mx/lib/libm.a(fptodp.o)
 .text          0x00000000        0x0 /opt/microchip/xc32/v2.41/bin/bin/../../lib/gcc/pic32mx/4.8.3/../../../../pic32mx/lib/libm.a(litodp.o)
 .data          0x00000000        0x0 /opt/microchip/xc32/v2.41/bin/bin/../../lib/gcc/pic32mx/4.8.3/../../../../pic32mx/lib/libm.a(litodp.o)
 .bss           0x00000000        0x0 /opt/microchip/xc32/v2.41/bin/bin/../../lib/gcc/pic32mx/4.8.3/../../../../pic32mx/lib/libm.a(litodp.o)
 .reginfo       0x00000000       0x18 /opt/microchip/xc32/v2.41/bin/bin/../../lib/gcc/pic32mx/4.8.3/../../../../pic32mx/lib/libm.a(litodp.o)
 .text.litodp   0x00000000       0x78 /opt/microchip/xc32/v2.41/bin/bin/../../lib/gcc/pic32mx/4.8.3/../../../../pic32mx/lib/libm.a(litodp.o)
 .text          0x00000000        0x0 /opt/microchip/xc32/v2.41/bin/bin/../../lib/gcc/pic32mx/4.8.3/../../../../pic32mx/lib/libm.a(s_lib_ver.o)
 .data          0x00000000        0x0 /opt/microchip/xc32/v2.41/bin/bin/../../lib/gcc/pic32mx/4.8.3/../../../../pic32mx/lib/libm.a(s_lib_ver.o)
 .bss           0x00000000        0x0 /opt/microchip/xc32/v2.41/bin/bin/../../lib/gcc/pic32mx/4.8.3/../../../../pic32mx/lib/libm.a(s_lib_ver.o)
 .reginfo       0x00000000       0x18 /opt/microchip/xc32/v2.41/bin/bin/../../lib/gcc/pic32mx/4.8.3/../../../../pic32mx/lib/libm.a(s_lib_ver.o)
 .data.math_errhandling_flag
                0x00000000        0x4 /opt/microchip/xc32/v2.41/bin/bin/../../lib/gcc/pic32mx/4.8.3/../../../../pic32mx/lib/libm.a(s_lib_ver.o)
 .data          0x00000000        0x0 /opt/microchip/xc32/v2.41/bin/bin/../../lib/gcc/pic32mx/4.8.3/libgcc.a(_udivdi3.o)
 .bss           0x00000000        0x0 /opt/microchip/xc32/v2.41/bin/bin/../../lib/gcc/pic32mx/4.8.3/libgcc.a(_udivdi3.o)
 .reginfo       0x00000000       0x18 /opt/microchip/xc32/v2.41/bin/bin/../../lib/gcc/pic32mx/4.8.3/libgcc.a(_udivdi3.o)
 .data          0x00000000        0x0 /opt/microchip/xc32/v2.41/bin/bin/../../lib/gcc/pic32mx/4.8.3/libgcc.a(_umoddi3.o)
 .bss           0x00000000        0x0 /opt/microchip/xc32/v2.41/bin/bin/../../lib/gcc/pic32mx/4.8.3/libgcc.a(_umoddi3.o)
 .reginfo       0x00000000       0x18 /opt/microchip/xc32/v2.41/bin/bin/../../lib/gcc/pic32mx/4.8.3/libgcc.a(_umoddi3.o)
 .text          0x00000000        0x0 /opt/microchip/xc32/v2.41/bin/bin/../../lib/gcc/pic32mx/4.8.3/../../../../pic32mx/lib/libpic32.a(sbrk.o)
 .data          0x00000000        0x0 /opt/microchip/xc32/v2.41/bin/bin/../../lib/gcc/pic32mx/4.8.3/../../../../pic32mx/lib/libpic32.a(sbrk.o)
 .bss           0x00000000       0x24 /opt/microchip/xc32/v2.41/bin/bin/../../lib/gcc/pic32mx/4.8.3/../../../../pic32mx/lib/libpic32.a(sbrk.o)
 .reginfo       0x00000000       0x18 /opt/microchip/xc32/v2.41/bin/bin/../../lib/gcc/pic32mx/4.8.3/../../../../pic32mx/lib/libpic32.a(sbrk.o)
 .text.getpagesize
                0x00000000        0x8 /opt/microchip/xc32/v2.41/bin/bin/../../lib/gcc/pic32mx/4.8.3/../../../../pic32mx/lib/libpic32.a(sbrk.o)
 .text._stub_sbd_memlayout
                0x00000000       0x2c /opt/microchip/xc32/v2.41/bin/bin/../../lib/gcc/pic32mx/4.8.3/../../../../pic32mx/lib/libpic32.a(sbrk.o)
 .text._sbrk_init
                0x00000000      0x194 /opt/microchip/xc32/v2.41/bin/bin/../../lib/gcc/pic32mx/4.8.3/../../../../pic32mx/lib/libpic32.a(sbrk.o)
 .text._sbrk    0x00000000       0xc8 /opt/microchip/xc32/v2.41/bin/bin/../../lib/gcc/pic32mx/4.8.3/../../../../pic32mx/lib/libpic32.a(sbrk.o)
 .text.sbrk     0x00000000       0x50 /opt/microchip/xc32/v2.41/bin/bin/../../lib/gcc/pic32mx/4.8.3/../../../../pic32mx/lib/libpic32.a(sbrk.o)
 .text          0x00000000        0x0 /opt/microchip/xc32/v2.41/bin/bin/../../lib/gcc/pic32mx/4.8.3/../../../../pic32mx/lib/libpic32.a(write.o)
 .data          0x00000000        0x0 /opt/microchip/xc32/v2.41/bin/bin/../../lib/gcc/pic32mx/4.8.3/../../../../pic32mx/lib/libpic32.a(write.o)
 .bss           0x00000000        0x0 /opt/microchip/xc32/v2.41/bin/bin/../../lib/gcc/pic32mx/4.8.3/../../../../pic32mx/lib/libpic32.a(write.o)
 .reginfo       0x00000000       0x18 /opt/microchip/xc32/v2.41/bin/bin/../../lib/gcc/pic32mx/4.8.3/../../../../pic32mx/lib/libpic32.a(write.o)
 .text          0x00000000        0x0 /opt/microchip/xc32/v2.41/bin/bin/../../lib/gcc/pic32mx/4.8.3/../../../../pic32mx/lib/libpic32.a(errno.o)
 .data          0x00000000        0x0 /opt/microchip/xc32/v2.41/bin/bin/../../lib/gcc/pic32mx/4.8.3/../../../../pic32mx/lib/libpic32.a(errno.o)
 .bss           0x00000000        0x0 /opt/microchip/xc32/v2.41/bin/bin/../../lib/gcc/pic32mx/4.8.3/../../../../pic32mx/lib/libpic32.a(errno.o)
 .reginfo       0x00000000       0x18 /opt/microchip/xc32/v2.41/bin/bin/../../lib/gcc/pic32mx/4.8.3/../../../../pic32mx/lib/libpic32.a(errno.o)
 .bss.errno     0x00000000        0x4 /opt/microchip/xc32/v2.41/bin/bin/../../lib/gcc/pic32mx/4.8.3/../../../../pic32mx/lib/libpic32.a(errno.o)
 .text          0x00000000        0x0 /opt/microchip/xc32/v2.41/bin/bin/../../lib/gcc/pic32mx/4.8.3/../../../../pic32mx/lib/libpic32.a(_mon_putc.o)
 .data          0x00000000        0x0 /opt/microchip/xc32/v2.41/bin/bin/../../lib/gcc/pic32mx/4.8.3/../../../../pic32mx/lib/libpic32.a(_mon_putc.o)
 .bss           0x00000000        0x0 /opt/microchip/xc32/v2.41/bin/bin/../../lib/gcc/pic32mx/4.8.3/../../../../pic32mx/lib/libpic32.a(_mon_putc.o)
 .reginfo       0x00000000       0x18 /opt/microchip/xc32/v2.41/bin/bin/../../lib/gcc/pic32mx/4.8.3/../../../../pic32mx/lib/libpic32.a(_mon_putc.o)
 .text          0x00000000        0x0 /opt/microchip/xc32/v2.41/bin/bin/../../lib/gcc/pic32mx/4.8.3/../../../../pic32mx/lib/libpic32.a(xc32_uart.o)
 .data          0x00000000        0x0 /opt/microchip/xc32/v2.41/bin/bin/../../lib/gcc/pic32mx/4.8.3/../../../../pic32mx/lib/libpic32.a(xc32_uart.o)
 .bss           0x00000000        0x0 /opt/microchip/xc32/v2.41/bin/bin/../../lib/gcc/pic32mx/4.8.3/../../../../pic32mx/lib/libpic32.a(xc32_uart.o)
 .reginfo       0x00000000       0x18 /opt/microchip/xc32/v2.41/bin/bin/../../lib/gcc/pic32mx/4.8.3/../../../../pic32mx/lib/libpic32.a(xc32_uart.o)

Memory Configuration

Name             Origin             Length             Attributes
kseg0_data_mem   0x80000000         0x00080000         w !x
kseg1_data_mem   0xa0000000         0x00000280
kseg0_program_mem 0x9d000000         0x00200000         xr
kseg0_boot_mem   0x9fc004b0         0x00000000
kseg1_boot_mem   0xbfc00000         0x00000480
kseg1_boot_mem_4B0 0xbfc004b0         0x0000fa50
config_BFC0FF40  0xbfc0ff40         0x00000004
config_BFC0FF44  0xbfc0ff44         0x00000004
config_BFC0FF48  0xbfc0ff48         0x00000004
config_BFC0FF4C  0xbfc0ff4c         0x00000004
config_BFC0FF50  0xbfc0ff50         0x00000004
config_BFC0FF54  0xbfc0ff54         0x00000004
config_BFC0FF58  0xbfc0ff58         0x00000004
config_BFC0FF5C  0xbfc0ff5c         0x00000004
config_BFC0FF60  0xbfc0ff60         0x00000004
config_BFC0FF64  0xbfc0ff64         0x00000004
config_BFC0FF68  0xbfc0ff68         0x00000004
config_BFC0FF6C  0xbfc0ff6c         0x00000004
config_BFC0FF70  0xbfc0ff70         0x00000004
config_BFC0FF74  0xbfc0ff74         0x00000004
config_BFC0FF78  0xbfc0ff78         0x00000004
config_BFC0FF7C  0xbfc0ff7c         0x00000004
config_BFC0FFC0  0xbfc0ffc0         0x00000004
config_BFC0FFC4  0xbfc0ffc4         0x00000004
config_BFC0FFC8  0xbfc0ffc8         0x00000004
config_BFC0FFCC  0xbfc0ffcc         0x00000004
config_BFC0FFD0  0xbfc0ffd0         0x00000004
config_BFC0FFD4  0xbfc0ffd4         0x00000004
config_BFC0FFD8  0xbfc0ffd8         0x00000004
config_BFC0FFDC  0xbfc0ffdc         0x00000004
config_BFC0FFE0  0xbfc0ffe0         0x00000004
config_BFC0FFE4  0xbfc0ffe4         0x00000004
config_BFC0FFE8  0xbfc0ffe8         0x00000004
config_BFC0FFEC  0xbfc0ffec         0x00000004
config_BFC0FFF0  0xbfc0fff0         0x00000004
config_BFC0FFF4  0xbfc0fff4         0x00000004
config_BFC0FFF8  0xbfc0fff8         0x00000004
config_BFC0FFFC  0xbfc0fffc         0x00000004
lowerbootaliaslastpage 0xbfc10000         0x00004000
upperbootalias   0xbfc20000         0x0000ff00
config_BFC2FF40  0xbfc2ff40         0x00000004
config_BFC2FF44  0xbfc2ff44         0x00000004
config_BFC2FF48  0xbfc2ff48         0x00000004
config_BFC2FF4C  0xbfc2ff4c         0x00000004
config_BFC2FF50  0xbfc2ff50         0x00000004
config_BFC2FF54  0xbfc2ff54         0x00000004
config_BFC2FF58  0xbfc2ff58         0x00000004
config_BFC2FF5C  0xbfc2ff5c         0x00000004
config_BFC2FF60  0xbfc2ff60         0x00000004
config_BFC2FF64  0xbfc2ff64         0x00000004
config_BFC2FF68  0xbfc2ff68         0x00000004
config_BFC2FF6C  0xbfc2ff6c         0x00000004
config_BFC2FF70  0xbfc2ff70         0x00000004
config_BFC2FF74  0xbfc2ff74         0x00000004
config_BFC2FF78  0xbfc2ff78         0x00000004
config_BFC2FF7C  0xbfc2ff7c         0x00000004
config_BFC2FFC0  0xbfc2ffc0         0x00000004
config_BFC2FFC4  0xbfc2ffc4         0x00000004
config_BFC2FFC8  0xbfc2ffc8         0x00000004
config_BFC2FFCC  0xbfc2ffcc         0x00000004
config_BFC2FFD0  0xbfc2ffd0         0x00000004
config_BFC2FFD4  0xbfc2ffd4         0x00000004
config_BFC2FFD8  0xbfc2ffd8         0x00000004
config_BFC2FFDC  0xbfc2ffdc         0x00000004
config_BFC2FFE0  0xbfc2ffe0         0x00000004
config_BFC2FFE4  0xbfc2ffe4         0x00000004
config_BFC2FFE8  0xbfc2ffe8         0x00000004
config_BFC2FFEC  0xbfc2ffec         0x00000004
config_BFC2FFF0  0xbfc2fff0         0x00000004
config_BFC2FFF4  0xbfc2fff4         0x00000004
config_BFC2FFF8  0xbfc2fff8         0x00000004
config_BFC2FFFC  0xbfc2fffc         0x00000004
upperbootaliaslastpage 0xbfc30000         0x00004000
boot1            0xbfc40000         0x0000ff00
config_BFC4FF40  0xbfc4ff40         0x00000004
config_BFC4FF44  0xbfc4ff44         0x00000004
config_BFC4FF48  0xbfc4ff48         0x00000004
config_BFC4FF4C  0xbfc4ff4c         0x00000004
config_BFC4FF50  0xbfc4ff50         0x00000004
config_BFC4FF54  0xbfc4ff54         0x00000004
config_BFC4FF58  0xbfc4ff58         0x00000004
config_BFC4FF5C  0xbfc4ff5c         0x00000004
config_BFC4FF60  0xbfc4ff60         0x00000004
config_BFC4FF64  0xbfc4ff64         0x00000004
config_BFC4FF68  0xbfc4ff68         0x00000004
config_BFC4FF6C  0xbfc4ff6c         0x00000004
config_BFC4FF70  0xbfc4ff70         0x00000004
config_BFC4FF74  0xbfc4ff74         0x00000004
config_BFC4FF78  0xbfc4ff78         0x00000004
config_BFC4FF7C  0xbfc4ff7c         0x00000004
config_BFC4FFC0  0xbfc4ffc0         0x00000004
config_BFC4FFC4  0xbfc4ffc4         0x00000004
config_BFC4FFC8  0xbfc4ffc8         0x00000004
config_BFC4FFCC  0xbfc4ffcc         0x00000004
config_BFC4FFD0  0xbfc4ffd0         0x00000004
config_BFC4FFD4  0xbfc4ffd4         0x00000004
config_BFC4FFD8  0xbfc4ffd8         0x00000004
config_BFC4FFDC  0xbfc4ffdc         0x00000004
config_BFC4FFE0  0xbfc4ffe0         0x00000004
config_BFC4FFE4  0xbfc4ffe4         0x00000004
config_BFC4FFE8  0xbfc4ffe8         0x00000004
config_BFC4FFEC  0xbfc4ffec         0x00000004
config_BFC4FFF0  0xbfc4fff0         0x00000004
config_BFC4FFF4  0xbfc4fff4         0x00000004
config_BFC4FFF8  0xbfc4fff8         0x00000004
config_BFC4FFFC  0xbfc4fffc         0x00000004
boot1lastpage    0xbfc50000         0x00004000
config_BFC54000  0xbfc54000         0x00000004
config_BFC54004  0xbfc54004         0x00000004
config_BFC54008  0xbfc54008         0x00000004
config_BFC5400C  0xbfc5400c         0x00000004
config_BFC54010  0xbfc54010         0x00000004
config_BFC54020  0xbfc54020         0x00000004
config_BFC54024  0xbfc54024         0x00000004
boot2            0xbfc60000         0x0000ff00
config_BFC6FF40  0xbfc6ff40         0x00000004
config_BFC6FF44  0xbfc6ff44         0x00000004
config_BFC6FF48  0xbfc6ff48         0x00000004
config_BFC6FF4C  0xbfc6ff4c         0x00000004
config_BFC6FF50  0xbfc6ff50         0x00000004
config_BFC6FF54  0xbfc6ff54         0x00000004
config_BFC6FF58  0xbfc6ff58         0x00000004
config_BFC6FF5C  0xbfc6ff5c         0x00000004
config_BFC6FF60  0xbfc6ff60         0x00000004
config_BFC6FF64  0xbfc6ff64         0x00000004
config_BFC6FF68  0xbfc6ff68         0x00000004
config_BFC6FF6C  0xbfc6ff6c         0x00000004
config_BFC6FF70  0xbfc6ff70         0x00000004
config_BFC6FF74  0xbfc6ff74         0x00000004
config_BFC6FF78  0xbfc6ff78         0x00000004
config_BFC6FF7C  0xbfc6ff7c         0x00000004
config_BFC6FFC0  0xbfc6ffc0         0x00000004
config_BFC6FFC4  0xbfc6ffc4         0x00000004
config_BFC6FFC8  0xbfc6ffc8         0x00000004
config_BFC6FFCC  0xbfc6ffcc         0x00000004
config_BFC6FFD0  0xbfc6ffd0         0x00000004
config_BFC6FFD4  0xbfc6ffd4         0x00000004
config_BFC6FFD8  0xbfc6ffd8         0x00000004
config_BFC6FFDC  0xbfc6ffdc         0x00000004
config_BFC6FFE0  0xbfc6ffe0         0x00000004
config_BFC6FFE4  0xbfc6ffe4         0x00000004
config_BFC6FFE8  0xbfc6ffe8         0x00000004
config_BFC6FFEC  0xbfc6ffec         0x00000004
config_BFC6FFF0  0xbfc6fff0         0x00000004
config_BFC6FFF4  0xbfc6fff4         0x00000004
config_BFC6FFF8  0xbfc6fff8         0x00000004
config_BFC6FFFC  0xbfc6fffc         0x00000004
boot2lastpage    0xbfc70000         0x00004000
sfrs             0xbf800000         0x00100000
configsfrs_BFC0FF40 0xbfc0ff40         0x00000040
configsfrs_BFC0FFC0 0xbfc0ffc0         0x00000040
configsfrs_BFC2FF40 0xbfc2ff40         0x00000040
configsfrs_BFC2FFC0 0xbfc2ffc0         0x00000040
configsfrs_BFC4FF40 0xbfc4ff40         0x00000040
configsfrs_BFC4FFC0 0xbfc4ffc0         0x00000040
configsfrs_BFC54000 0xbfc54000         0x00000014
configsfrs_BFC54020 0xbfc54020         0x00000008
configsfrs_BFC6FF40 0xbfc6ff40         0x00000040
configsfrs_BFC6FFC0 0xbfc6ffc0         0x00000040
kseg2_ebi_data_mem 0xc0000000         0x04000000
kseg2_sqi_data_mem 0xd0000000         0x04000000
kseg3_ebi_data_mem 0xe0000000         0x04000000
kseg3_sqi_data_mem 0xf0000000         0x04000000
*default*        0x00000000         0xffffffff

Linker script and memory map


reserve_data_0_kseg0
                0x80000000      0x280
                0x80000000        0x2 SHORT 0x0
                0x00000280                . = 0x280
 *fill*         0x80000002      0x27e 
                0x80000280                . = ALIGN (0x4)

reserve_data_0_kseg1
                0xa0000000      0x280
                0xa0000000        0x2 SHORT 0x0
                0x00000280                . = 0x280
 *fill*         0xa0000002      0x27e 
                0xa0000280                . = ALIGN (0x4)
LOAD /opt/microchip/xc32/v2.41/bin/bin/../../lib/gcc/pic32mx/4.8.3/../../../../pic32mx/lib/software-debug-break.o
LOAD build/default/debug/_ext/1650642999/imu.o
LOAD build/default/debug/_ext/1650642999/comms.o
LOAD build/default/debug/_ext/1650642999/tof.o
LOAD build/default/debug/_ext/1650642999/motors.o
LOAD build/default/debug/_ext/971049567/Quaternion.o
LOAD build/default/debug/_ext/971049567/Vector3D.o
LOAD build/default/debug/_ext/1047219354/drv_oc_mapping.o
LOAD build/default/debug/_ext/1047219354/drv_oc_static.o
LOAD build/default/debug/_ext/1407244131/drv_tmr_static.o
LOAD build/default/debug/_ext/1407244131/drv_tmr_mapping.o
LOAD build/default/debug/_ext/327000265/drv_usart_mapping.o
LOAD build/default/debug/_ext/327000265/drv_usart_static.o
LOAD build/default/debug/_ext/327000265/drv_usart_static_byte_model.o
LOAD build/default/debug/_ext/639803181/sys_clk_pic32mz.o
LOAD build/default/debug/_ext/822048611/sys_ports_static.o
LOAD build/default/debug/_ext/1688732426/system_init.o
LOAD build/default/debug/_ext/1688732426/system_interrupt.o
LOAD build/default/debug/_ext/1688732426/general_exception_handler.o
LOAD build/default/debug/_ext/1688732426/general-exception-context.o
LOAD build/default/debug/_ext/1688732426/fassert.o
LOAD build/default/debug/_ext/1688732426/system_tasks.o
LOAD build/default/debug/_ext/1688732426/system_interrupt_a.o
LOAD build/default/debug/_ext/1688732426/rtos_hooks.o
LOAD build/default/debug/_ext/1360937237/main.o
LOAD build/default/debug/_ext/1360937237/app.o
LOAD build/default/debug/_ext/1360937237/mavlink_recv_task.o
LOAD build/default/debug/_ext/1360937237/mavlink_send_task.o
LOAD build/default/debug/_ext/1360937237/mavlink_status_task.o
LOAD build/default/debug/_ext/1360937237/att_controller_task.o
LOAD build/default/debug/_ext/1353086322/osal_freertos.o
LOAD build/default/debug/_ext/121284916/sys_devcon.o
LOAD build/default/debug/_ext/121284916/sys_devcon_pic32mz.o
LOAD build/default/debug/_ext/121284916/sys_devcon_cache_pic32mz.o
LOAD build/default/debug/_ext/1317643790/sys_int_pic32.o
LOAD build/default/debug/_ext/457403440/heap_1.o
LOAD build/default/debug/_ext/1571139743/port.o
LOAD build/default/debug/_ext/1571139743/port_asm.o
LOAD build/default/debug/_ext/1276567923/croutine.o
LOAD build/default/debug/_ext/1276567923/list.o
LOAD build/default/debug/_ext/1276567923/queue.o
LOAD build/default/debug/_ext/1276567923/tasks.o
LOAD build/default/debug/_ext/1276567923/timers.o
LOAD build/default/debug/_ext/1276567923/event_groups.o
LOAD build/default/debug/_ext/443942460/PID.o
LOAD build/default/debug/_ext/1035051164/SixDOFQuadcopterModel.o
LOAD build/default/debug/_ext/1204493032/PositionEstimatorAltitude.o
LOAD build/default/debug/_ext/1204493032/SensFusion.o
LOAD build/default/debug/_ext/1204493032/ComplementaryFilter.o
LOAD build/default/debug/_ext/1204493032/AttitudeController.o
LOAD build/default/debug/_ext/149289479/MAVLinkSender.o
LOAD build/default/debug/_ext/149289479/MAVLinkHandler.o
LOAD build/default/debug/_ext/1715884449/AttitudeControllerTask.o
LOAD build/default/debug/_ext/1158199258/MAVLinkSendTask.o
LOAD build/default/debug/_ext/1158199258/MAVLinkRecvTask.o
LOAD build/default/debug/_ext/1315301415/TOFUpdateTask.o
LOAD build/default/debug/_ext/1315301415/MAVStatusTask.o
LOAD build/default/debug/_ext/1315301415/IMUUpdateTask.o
LOAD build/default/debug/_ext/1313821444/num.o
LOAD ../../../../../microchip/harmony/v2_06/bin/framework/math/dsp/dsp_pic32mz_nofpu.a
LOAD ../../../../../microchip/harmony/v2_06/bin/framework/math/libq/libq_c_mips32_mz_l.a
LOAD ../../../../../microchip/harmony/v2_06/bin/framework/peripheral/PIC32MZ2048ECM100_peripherals.a
                0x00000001                __MPLAB_BUILD = 0x1
                0x00000001                __MPLAB_DEBUG = 0x1
                0x00000001                __DEBUG = 0x1
                0x00000000                _min_heap_size = 0x0
LOAD /tmp/ccUSX7Wj.o
LOAD /tmp/cccIpb7j.o
LOAD /tmp/cctcrwCj.o
LOAD /opt/microchip/xc32/v2.41/bin/bin/../../lib/gcc/pic32mx/4.8.3/../../../../pic32mx/lib/pic32_software_reset.o
                0x00000400                PROVIDE (_min_stack_size, 0x400)
START GROUP
LOAD /opt/microchip/xc32/v2.41/bin/bin/../../lib/gcc/pic32mx/4.8.3/../../../../pic32mx/lib/./proc/32MZ2048ECM100/vector_offset_init.o
END GROUP
                0x00000001                PROVIDE (_vector_spacing, 0x1)
                0x9d000000                PROVIDE (_ebase_address, 0x9d000000)
                0xbfc00000                _RESET_ADDR = 0xbfc00000
                0xbfc00380                _BEV_EXCPT_ADDR = 0xbfc00380
                0xbfc00480                _DBG_EXCPT_ADDR = 0xbfc00480
                0x9d000000                _SIMPLE_TLB_REFILL_EXCPT_ADDR = (_ebase_address + 0x0)
                0x9d000100                _CACHE_ERR_EXCPT_ADDR = (_ebase_address + 0x100)
                0x9d000180                _GEN_EXCPT_ADDR = (_ebase_address + 0x180)

.config_BFC0FF40
 *(.config_BFC0FF40)

.config_BFC0FF44
 *(.config_BFC0FF44)

.config_BFC0FF48
 *(.config_BFC0FF48)

.config_BFC0FF4C
 *(.config_BFC0FF4C)

.config_BFC0FF50
 *(.config_BFC0FF50)

.config_BFC0FF54
 *(.config_BFC0FF54)

.config_BFC0FF58
 *(.config_BFC0FF58)

.config_BFC0FF5C
 *(.config_BFC0FF5C)

.config_BFC0FF60
 *(.config_BFC0FF60)

.config_BFC0FF64
 *(.config_BFC0FF64)

.config_BFC0FF68
 *(.config_BFC0FF68)

.config_BFC0FF6C
 *(.config_BFC0FF6C)

.config_BFC0FF70
 *(.config_BFC0FF70)

.config_BFC0FF74
 *(.config_BFC0FF74)

.config_BFC0FF78
 *(.config_BFC0FF78)

.config_BFC0FF7C
 *(.config_BFC0FF7C)

.config_BFC0FFC0
                0xbfc0ffc0        0x4
 *(.config_BFC0FFC0)
 .config_BFC0FFC0
                0xbfc0ffc0        0x4 build/default/debug/_ext/1688732426/system_init.o

.config_BFC0FFC4
                0xbfc0ffc4        0x4
 *(.config_BFC0FFC4)
 .config_BFC0FFC4
                0xbfc0ffc4        0x4 build/default/debug/_ext/1688732426/system_init.o

.config_BFC0FFC8
                0xbfc0ffc8        0x4
 *(.config_BFC0FFC8)
 .config_BFC0FFC8
                0xbfc0ffc8        0x4 build/default/debug/_ext/1688732426/system_init.o

.config_BFC0FFCC
                0xbfc0ffcc        0x4
 *(.config_BFC0FFCC)
 .config_BFC0FFCC
                0xbfc0ffcc        0x4 build/default/debug/_ext/1688732426/system_init.o

.config_BFC0FFD0
 *(.config_BFC0FFD0)

.config_BFC0FFD4
 *(.config_BFC0FFD4)

.config_BFC0FFD8
 *(.config_BFC0FFD8)

.config_BFC0FFDC
                0xbfc0ffdc        0x4
 *(.config_BFC0FFDC)
 .config_BFC0FFDC
                0xbfc0ffdc        0x4 build/default/debug/_ext/1688732426/system_init.o

.config_BFC0FFE0
 *(.config_BFC0FFE0)

.config_BFC0FFE4
 *(.config_BFC0FFE4)

.config_BFC0FFE8
 *(.config_BFC0FFE8)

.config_BFC0FFEC
 *(.config_BFC0FFEC)

.config_BFC0FFF0
 *(.config_BFC0FFF0)

.config_BFC0FFF4
 *(.config_BFC0FFF4)

.config_BFC0FFF8
 *(.config_BFC0FFF8)

.config_BFC0FFFC
                0xbfc0fffc        0x4
 *(.config_BFC0FFFC)
 .config_BFC0FFFC
                0xbfc0fffc        0x4 build/default/debug/_ext/1688732426/system_init.o

.config_BFC2FF40
 *(.config_BFC2FF40)

.config_BFC2FF44
 *(.config_BFC2FF44)

.config_BFC2FF48
 *(.config_BFC2FF48)

.config_BFC2FF4C
 *(.config_BFC2FF4C)

.config_BFC2FF50
 *(.config_BFC2FF50)

.config_BFC2FF54
 *(.config_BFC2FF54)

.config_BFC2FF58
 *(.config_BFC2FF58)

.config_BFC2FF5C
 *(.config_BFC2FF5C)

.config_BFC2FF60
 *(.config_BFC2FF60)

.config_BFC2FF64
 *(.config_BFC2FF64)

.config_BFC2FF68
 *(.config_BFC2FF68)

.config_BFC2FF6C
 *(.config_BFC2FF6C)

.config_BFC2FF70
 *(.config_BFC2FF70)

.config_BFC2FF74
 *(.config_BFC2FF74)

.config_BFC2FF78
 *(.config_BFC2FF78)

.config_BFC2FF7C
 *(.config_BFC2FF7C)

.config_BFC2FFC0
 *(.config_BFC2FFC0)

.config_BFC2FFC4
 *(.config_BFC2FFC4)

.config_BFC2FFC8
 *(.config_BFC2FFC8)

.config_BFC2FFCC
 *(.config_BFC2FFCC)

.config_BFC2FFD0
 *(.config_BFC2FFD0)

.config_BFC2FFD4
 *(.config_BFC2FFD4)

.config_BFC2FFD8
 *(.config_BFC2FFD8)

.config_BFC2FFDC
 *(.config_BFC2FFDC)

.config_BFC2FFE0
 *(.config_BFC2FFE0)

.config_BFC2FFE4
 *(.config_BFC2FFE4)

.config_BFC2FFE8
 *(.config_BFC2FFE8)

.config_BFC2FFEC
 *(.config_BFC2FFEC)

.config_BFC2FFF0
 *(.config_BFC2FFF0)

.config_BFC2FFF4
 *(.config_BFC2FFF4)

.config_BFC2FFF8
 *(.config_BFC2FFF8)

.config_BFC2FFFC
 *(.config_BFC2FFFC)

.config_BFC4FF40
 *(.config_BFC4FF40)

.config_BFC4FF44
 *(.config_BFC4FF44)

.config_BFC4FF48
 *(.config_BFC4FF48)

.config_BFC4FF4C
 *(.config_BFC4FF4C)

.config_BFC4FF50
 *(.config_BFC4FF50)

.config_BFC4FF54
 *(.config_BFC4FF54)

.config_BFC4FF58
 *(.config_BFC4FF58)

.config_BFC4FF5C
 *(.config_BFC4FF5C)

.config_BFC4FF60
 *(.config_BFC4FF60)

.config_BFC4FF64
 *(.config_BFC4FF64)

.config_BFC4FF68
 *(.config_BFC4FF68)

.config_BFC4FF6C
 *(.config_BFC4FF6C)

.config_BFC4FF70
 *(.config_BFC4FF70)

.config_BFC4FF74
 *(.config_BFC4FF74)

.config_BFC4FF78
 *(.config_BFC4FF78)

.config_BFC4FF7C
 *(.config_BFC4FF7C)

.config_BFC4FFC0
 *(.config_BFC4FFC0)

.config_BFC4FFC4
 *(.config_BFC4FFC4)

.config_BFC4FFC8
 *(.config_BFC4FFC8)

.config_BFC4FFCC
 *(.config_BFC4FFCC)

.config_BFC4FFD0
 *(.config_BFC4FFD0)

.config_BFC4FFD4
 *(.config_BFC4FFD4)

.config_BFC4FFD8
 *(.config_BFC4FFD8)

.config_BFC4FFDC
 *(.config_BFC4FFDC)

.config_BFC4FFE0
 *(.config_BFC4FFE0)

.config_BFC4FFE4
 *(.config_BFC4FFE4)

.config_BFC4FFE8
 *(.config_BFC4FFE8)

.config_BFC4FFEC
 *(.config_BFC4FFEC)

.config_BFC4FFF0
 *(.config_BFC4FFF0)

.config_BFC4FFF4
 *(.config_BFC4FFF4)

.config_BFC4FFF8
 *(.config_BFC4FFF8)

.config_BFC4FFFC
 *(.config_BFC4FFFC)

.config_BFC54000
 *(.config_BFC54000)

.config_BFC54004
 *(.config_BFC54004)

.config_BFC54008
 *(.config_BFC54008)

.config_BFC5400C
 *(.config_BFC5400C)

.config_BFC54010
 *(.config_BFC54010)

.config_BFC54020
 *(.config_BFC54020)

.config_BFC54024
 *(.config_BFC54024)

.config_BFC6FF40
 *(.config_BFC6FF40)

.config_BFC6FF44
 *(.config_BFC6FF44)

.config_BFC6FF48
 *(.config_BFC6FF48)

.config_BFC6FF4C
 *(.config_BFC6FF4C)

.config_BFC6FF50
 *(.config_BFC6FF50)

.config_BFC6FF54
 *(.config_BFC6FF54)

.config_BFC6FF58
 *(.config_BFC6FF58)

.config_BFC6FF5C
 *(.config_BFC6FF5C)

.config_BFC6FF60
 *(.config_BFC6FF60)

.config_BFC6FF64
 *(.config_BFC6FF64)

.config_BFC6FF68
 *(.config_BFC6FF68)

.config_BFC6FF6C
 *(.config_BFC6FF6C)

.config_BFC6FF70
 *(.config_BFC6FF70)

.config_BFC6FF74
 *(.config_BFC6FF74)

.config_BFC6FF78
 *(.config_BFC6FF78)

.config_BFC6FF7C
 *(.config_BFC6FF7C)

.config_BFC6FFC0
 *(.config_BFC6FFC0)

.config_BFC6FFC4
 *(.config_BFC6FFC4)

.config_BFC6FFC8
 *(.config_BFC6FFC8)

.config_BFC6FFCC
 *(.config_BFC6FFCC)

.config_BFC6FFD0
 *(.config_BFC6FFD0)

.config_BFC6FFD4
 *(.config_BFC6FFD4)

.config_BFC6FFD8
 *(.config_BFC6FFD8)

.config_BFC6FFDC
 *(.config_BFC6FFDC)

.config_BFC6FFE0
 *(.config_BFC6FFE0)

.config_BFC6FFE4
 *(.config_BFC6FFE4)

.config_BFC6FFE8
 *(.config_BFC6FFE8)

.config_BFC6FFEC
 *(.config_BFC6FFEC)

.config_BFC6FFF0
 *(.config_BFC6FFF0)

.config_BFC6FFF4
 *(.config_BFC6FFF4)

.config_BFC6FFF8
 *(.config_BFC6FFF8)

.config_BFC6FFFC
 *(.config_BFC6FFFC)

.reset          0xbfc00000      0x1a4
 *(.reset)
 .reset         0xbfc00000       0x18 /tmp/ccUSX7Wj.o
                0xbfc00000                _reset
 *(.reset.startup)
 .reset.startup
                0xbfc00018      0x18c /tmp/ccUSX7Wj.o
                0xbfc00018                _startup

.bev_excpt      0xbfc00380       0x10
 *(.bev_handler)
 .bev_handler   0xbfc00380       0x10 /tmp/ccUSX7Wj.o

.cache_init     0xbfc004b0      0x1c0
 *(.cache_init)
 *(.cache_init.*)
 .cache_init.cache
                0xbfc004b0       0xc0 /opt/microchip/xc32/v2.41/bin/bin/../../lib/gcc/pic32mx/4.8.3/../../../../pic32mx/lib/libpic32.a(pic32_init_cache.o)
 .cache_init.pic32_init_cache
                0xbfc00570      0x100 /opt/microchip/xc32/v2.41/bin/bin/../../lib/gcc/pic32mx/4.8.3/../../../../pic32mx/lib/libpic32.a(pic32_init_cache.o)
                0xbfc00570                __pic32_init_cache

.simple_tlb_refill_excpt
                0x9d000000       0x10
 *(.simple_tlb_refill_vector)
 .simple_tlb_refill_vector
                0x9d000000       0x10 /tmp/ccUSX7Wj.o

.cache_err_excpt
                0x9d000100       0x10
 *(.cache_err_vector)
 .cache_err_vector
                0x9d000100       0x10 /tmp/ccUSX7Wj.o

.app_excpt      0x9d000180       0x10
 *(.gen_handler)
 .gen_handler   0x9d000180       0x10 /tmp/ccUSX7Wj.o

.vectors        0x9d000200      0x700
                0x9d000200                . = ALIGN (0x4)
                0x000008b8                __vector_offset_0 = DEFINED (__vector_dispatch_0)?(. - _ebase_address):__vector_offset_default
 *(.vector_0)
                0x9d000200                . = ALIGN (0x4)
                0x00000200                __vector_offset_1 = DEFINED (__vector_dispatch_1)?(. - _ebase_address):__vector_offset_default
 *(.vector_1)
 .vector_1      0x9d000200      0x258 build/default/debug/_ext/1571139743/port_asm.o
                0x9d000200                vPortYieldISR
                0x9d000200                __vector_dispatch_1
                0x9d000458                . = ALIGN (0x4)
                0x000008b8                __vector_offset_2 = DEFINED (__vector_dispatch_2)?(. - _ebase_address):__vector_offset_default
 *(.vector_2)
                0x9d000458                . = ALIGN (0x4)
                0x000008b8                __vector_offset_3 = DEFINED (__vector_dispatch_3)?(. - _ebase_address):__vector_offset_default
 *(.vector_3)
                0x9d000458                . = ALIGN (0x4)
                0x00000458                __vector_offset_4 = DEFINED (__vector_dispatch_4)?(. - _ebase_address):__vector_offset_default
 *(.vector_4)
 .vector_4      0x9d000458      0x22c build/default/debug/_ext/1571139743/port_asm.o
                0x9d000458                vPortTickInterruptHandler
                0x9d000458                __vector_dispatch_4
                0x9d000684                . = ALIGN (0x4)
                0x000008b8                __vector_offset_5 = DEFINED (__vector_dispatch_5)?(. - _ebase_address):__vector_offset_default
 *(.vector_5)
                0x9d000684                . = ALIGN (0x4)
                0x000008b8                __vector_offset_6 = DEFINED (__vector_dispatch_6)?(. - _ebase_address):__vector_offset_default
 *(.vector_6)
                0x9d000684                . = ALIGN (0x4)
                0x000008b8                __vector_offset_7 = DEFINED (__vector_dispatch_7)?(. - _ebase_address):__vector_offset_default
 *(.vector_7)
                0x9d000684                . = ALIGN (0x4)
                0x000008b8                __vector_offset_8 = DEFINED (__vector_dispatch_8)?(. - _ebase_address):__vector_offset_default
 *(.vector_8)
                0x9d000684                . = ALIGN (0x4)
                0x00000684                __vector_offset_9 = DEFINED (__vector_dispatch_9)?(. - _ebase_address):__vector_offset_default
 *(.vector_9)
 .vector_9      0x9d000684      0x234 build/default/debug/_ext/1688732426/system_interrupt_a.o
                0x9d000684                __vector_dispatch_9
                0x9d0008b8                . = ALIGN (0x4)
                0x000008b8                __vector_offset_10 = DEFINED (__vector_dispatch_10)?(. - _ebase_address):__vector_offset_default
 *(.vector_10)
                0x9d0008b8                . = ALIGN (0x4)
                0x000008b8                __vector_offset_11 = DEFINED (__vector_dispatch_11)?(. - _ebase_address):__vector_offset_default
 *(.vector_11)
                0x9d0008b8                . = ALIGN (0x4)
                0x000008b8                __vector_offset_12 = DEFINED (__vector_dispatch_12)?(. - _ebase_address):__vector_offset_default
 *(.vector_12)
                0x9d0008b8                . = ALIGN (0x4)
                0x000008b8                __vector_offset_13 = DEFINED (__vector_dispatch_13)?(. - _ebase_address):__vector_offset_default
 *(.vector_13)
                0x9d0008b8                . = ALIGN (0x4)
                0x000008b8                __vector_offset_14 = DEFINED (__vector_dispatch_14)?(. - _ebase_address):__vector_offset_default
 *(.vector_14)
                0x9d0008b8                . = ALIGN (0x4)
                0x000008b8                __vector_offset_15 = DEFINED (__vector_dispatch_15)?(. - _ebase_address):__vector_offset_default
 *(.vector_15)
                0x9d0008b8                . = ALIGN (0x4)
                0x000008b8                __vector_offset_16 = DEFINED (__vector_dispatch_16)?(. - _ebase_address):__vector_offset_default
 *(.vector_16)
                0x9d0008b8                . = ALIGN (0x4)
                0x000008b8                __vector_offset_17 = DEFINED (__vector_dispatch_17)?(. - _ebase_address):__vector_offset_default
 *(.vector_17)
                0x9d0008b8                . = ALIGN (0x4)
                0x000008b8                __vector_offset_18 = DEFINED (__vector_dispatch_18)?(. - _ebase_address):__vector_offset_default
 *(.vector_18)
                0x9d0008b8                . = ALIGN (0x4)
                0x000008b8                __vector_offset_19 = DEFINED (__vector_dispatch_19)?(. - _ebase_address):__vector_offset_default
 *(.vector_19)
                0x9d0008b8                . = ALIGN (0x4)
                0x000008b8                __vector_offset_20 = DEFINED (__vector_dispatch_20)?(. - _ebase_address):__vector_offset_default
 *(.vector_20)
                0x9d0008b8                . = ALIGN (0x4)
                0x000008b8                __vector_offset_21 = DEFINED (__vector_dispatch_21)?(. - _ebase_address):__vector_offset_default
 *(.vector_21)
                0x9d0008b8                . = ALIGN (0x4)
                0x000008b8                __vector_offset_22 = DEFINED (__vector_dispatch_22)?(. - _ebase_address):__vector_offset_default
 *(.vector_22)
                0x9d0008b8                . = ALIGN (0x4)
                0x000008b8                __vector_offset_23 = DEFINED (__vector_dispatch_23)?(. - _ebase_address):__vector_offset_default
 *(.vector_23)
                0x9d0008b8                . = ALIGN (0x4)
                0x000008b8                __vector_offset_24 = DEFINED (__vector_dispatch_24)?(. - _ebase_address):__vector_offset_default
 *(.vector_24)
                0x9d0008b8                . = ALIGN (0x4)
                0x000008b8                __vector_offset_25 = DEFINED (__vector_dispatch_25)?(. - _ebase_address):__vector_offset_default
 *(.vector_25)
                0x9d0008b8                . = ALIGN (0x4)
                0x000008b8                __vector_offset_26 = DEFINED (__vector_dispatch_26)?(. - _ebase_address):__vector_offset_default
 *(.vector_26)
                0x9d0008b8                . = ALIGN (0x4)
                0x000008b8                __vector_offset_27 = DEFINED (__vector_dispatch_27)?(. - _ebase_address):__vector_offset_default
 *(.vector_27)
                0x9d0008b8                . = ALIGN (0x4)
                0x000008b8                __vector_offset_28 = DEFINED (__vector_dispatch_28)?(. - _ebase_address):__vector_offset_default
 *(.vector_28)
                0x9d0008b8                . = ALIGN (0x4)
                0x000008b8                __vector_offset_29 = DEFINED (__vector_dispatch_29)?(. - _ebase_address):__vector_offset_default
 *(.vector_29)
                0x9d0008b8                . = ALIGN (0x4)
                0x000008b8                __vector_offset_30 = DEFINED (__vector_dispatch_30)?(. - _ebase_address):__vector_offset_default
 *(.vector_30)
                0x9d0008b8                . = ALIGN (0x4)
                0x000008b8                __vector_offset_31 = DEFINED (__vector_dispatch_31)?(. - _ebase_address):__vector_offset_default
 *(.vector_31)
                0x9d0008b8                . = ALIGN (0x4)
                0x000008b8                __vector_offset_32 = DEFINED (__vector_dispatch_32)?(. - _ebase_address):__vector_offset_default
 *(.vector_32)
                0x9d0008b8                . = ALIGN (0x4)
                0x000008b8                __vector_offset_33 = DEFINED (__vector_dispatch_33)?(. - _ebase_address):__vector_offset_default
 *(.vector_33)
                0x9d0008b8                . = ALIGN (0x4)
                0x000008b8                __vector_offset_34 = DEFINED (__vector_dispatch_34)?(. - _ebase_address):__vector_offset_default
 *(.vector_34)
                0x9d0008b8                . = ALIGN (0x4)
                0x000008b8                __vector_offset_35 = DEFINED (__vector_dispatch_35)?(. - _ebase_address):__vector_offset_default
 *(.vector_35)
                0x9d0008b8                . = ALIGN (0x4)
                0x000008b8                __vector_offset_36 = DEFINED (__vector_dispatch_36)?(. - _ebase_address):__vector_offset_default
 *(.vector_36)
                0x9d0008b8                . = ALIGN (0x4)
                0x000008b8                __vector_offset_37 = DEFINED (__vector_dispatch_37)?(. - _ebase_address):__vector_offset_default
 *(.vector_37)
                0x9d0008b8                . = ALIGN (0x4)
                0x000008b8                __vector_offset_38 = DEFINED (__vector_dispatch_38)?(. - _ebase_address):__vector_offset_default
 *(.vector_38)
                0x9d0008b8                . = ALIGN (0x4)
                0x000008b8                __vector_offset_39 = DEFINED (__vector_dispatch_39)?(. - _ebase_address):__vector_offset_default
 *(.vector_39)
                0x9d0008b8                . = ALIGN (0x4)
                0x000008b8                __vector_offset_40 = DEFINED (__vector_dispatch_40)?(. - _ebase_address):__vector_offset_default
 *(.vector_40)
                0x9d0008b8                . = ALIGN (0x4)
                0x000008b8                __vector_offset_41 = DEFINED (__vector_dispatch_41)?(. - _ebase_address):__vector_offset_default
 *(.vector_41)
                0x9d0008b8                . = ALIGN (0x4)
                0x000008b8                __vector_offset_42 = DEFINED (__vector_dispatch_42)?(. - _ebase_address):__vector_offset_default
 *(.vector_42)
                0x9d0008b8                . = ALIGN (0x4)
                0x000008b8                __vector_offset_43 = DEFINED (__vector_dispatch_43)?(. - _ebase_address):__vector_offset_default
 *(.vector_43)
                0x9d0008b8                . = ALIGN (0x4)
                0x000008b8                __vector_offset_44 = DEFINED (__vector_dispatch_44)?(. - _ebase_address):__vector_offset_default
 *(.vector_44)
                0x9d0008b8                . = ALIGN (0x4)
                0x000008b8                __vector_offset_45 = DEFINED (__vector_dispatch_45)?(. - _ebase_address):__vector_offset_default
 *(.vector_45)
                0x9d0008b8                . = ALIGN (0x4)
                0x000008b8                __vector_offset_46 = DEFINED (__vector_dispatch_46)?(. - _ebase_address):__vector_offset_default
 *(.vector_46)
                0x9d0008b8                . = ALIGN (0x4)
                0x000008b8                __vector_offset_47 = DEFINED (__vector_dispatch_47)?(. - _ebase_address):__vector_offset_default
 *(.vector_47)
                0x9d0008b8                . = ALIGN (0x4)
                0x000008b8                __vector_offset_48 = DEFINED (__vector_dispatch_48)?(. - _ebase_address):__vector_offset_default
 *(.vector_48)
                0x9d0008b8                . = ALIGN (0x4)
                0x000008b8                __vector_offset_49 = DEFINED (__vector_dispatch_49)?(. - _ebase_address):__vector_offset_default
 *(.vector_49)
                0x9d0008b8                . = ALIGN (0x4)
                0x000008b8                __vector_offset_50 = DEFINED (__vector_dispatch_50)?(. - _ebase_address):__vector_offset_default
 *(.vector_50)
                0x9d0008b8                . = ALIGN (0x4)
                0x000008b8                __vector_offset_51 = DEFINED (__vector_dispatch_51)?(. - _ebase_address):__vector_offset_default
 *(.vector_51)
                0x9d0008b8                . = ALIGN (0x4)
                0x000008b8                __vector_offset_52 = DEFINED (__vector_dispatch_52)?(. - _ebase_address):__vector_offset_default
 *(.vector_52)
                0x9d0008b8                . = ALIGN (0x4)
                0x000008b8                __vector_offset_53 = DEFINED (__vector_dispatch_53)?(. - _ebase_address):__vector_offset_default
 *(.vector_53)
                0x9d0008b8                . = ALIGN (0x4)
                0x000008b8                __vector_offset_54 = DEFINED (__vector_dispatch_54)?(. - _ebase_address):__vector_offset_default
 *(.vector_54)
                0x9d0008b8                . = ALIGN (0x4)
                0x000008b8                __vector_offset_55 = DEFINED (__vector_dispatch_55)?(. - _ebase_address):__vector_offset_default
 *(.vector_55)
                0x9d0008b8                . = ALIGN (0x4)
                0x000008b8                __vector_offset_56 = DEFINED (__vector_dispatch_56)?(. - _ebase_address):__vector_offset_default
 *(.vector_56)
                0x9d0008b8                . = ALIGN (0x4)
                0x000008b8                __vector_offset_57 = DEFINED (__vector_dispatch_57)?(. - _ebase_address):__vector_offset_default
 *(.vector_57)
                0x9d0008b8                . = ALIGN (0x4)
                0x000008b8                __vector_offset_58 = DEFINED (__vector_dispatch_58)?(. - _ebase_address):__vector_offset_default
 *(.vector_58)
                0x9d0008b8                . = ALIGN (0x4)
                0x000008b8                __vector_offset_59 = DEFINED (__vector_dispatch_59)?(. - _ebase_address):__vector_offset_default
 *(.vector_59)
                0x9d0008b8                . = ALIGN (0x4)
                0x000008b8                __vector_offset_60 = DEFINED (__vector_dispatch_60)?(. - _ebase_address):__vector_offset_default
 *(.vector_60)
                0x9d0008b8                . = ALIGN (0x4)
                0x000008b8                __vector_offset_61 = DEFINED (__vector_dispatch_61)?(. - _ebase_address):__vector_offset_default
 *(.vector_61)
                0x9d0008b8                . = ALIGN (0x4)
                0x000008b8                __vector_offset_62 = DEFINED (__vector_dispatch_62)?(. - _ebase_address):__vector_offset_default
 *(.vector_62)
                0x9d0008b8                . = ALIGN (0x4)
                0x000008b8                __vector_offset_63 = DEFINED (__vector_dispatch_63)?(. - _ebase_address):__vector_offset_default
 *(.vector_63)
                0x9d0008b8                . = ALIGN (0x4)
                0x000008b8                __vector_offset_64 = DEFINED (__vector_dispatch_64)?(. - _ebase_address):__vector_offset_default
 *(.vector_64)
                0x9d0008b8                . = ALIGN (0x4)
                0x000008b8                __vector_offset_65 = DEFINED (__vector_dispatch_65)?(. - _ebase_address):__vector_offset_default
 *(.vector_65)
                0x9d0008b8                . = ALIGN (0x4)
                0x000008b8                __vector_offset_66 = DEFINED (__vector_dispatch_66)?(. - _ebase_address):__vector_offset_default
 *(.vector_66)
                0x9d0008b8                . = ALIGN (0x4)
                0x000008b8                __vector_offset_67 = DEFINED (__vector_dispatch_67)?(. - _ebase_address):__vector_offset_default
 *(.vector_67)
                0x9d0008b8                . = ALIGN (0x4)
                0x000008b8                __vector_offset_68 = DEFINED (__vector_dispatch_68)?(. - _ebase_address):__vector_offset_default
 *(.vector_68)
                0x9d0008b8                . = ALIGN (0x4)
                0x000008b8                __vector_offset_69 = DEFINED (__vector_dispatch_69)?(. - _ebase_address):__vector_offset_default
 *(.vector_69)
                0x9d0008b8                . = ALIGN (0x4)
                0x000008b8                __vector_offset_70 = DEFINED (__vector_dispatch_70)?(. - _ebase_address):__vector_offset_default
 *(.vector_70)
                0x9d0008b8                . = ALIGN (0x4)
                0x000008b8                __vector_offset_71 = DEFINED (__vector_dispatch_71)?(. - _ebase_address):__vector_offset_default
 *(.vector_71)
                0x9d0008b8                . = ALIGN (0x4)
                0x000008b8                __vector_offset_72 = DEFINED (__vector_dispatch_72)?(. - _ebase_address):__vector_offset_default
 *(.vector_72)
                0x9d0008b8                . = ALIGN (0x4)
                0x000008b8                __vector_offset_73 = DEFINED (__vector_dispatch_73)?(. - _ebase_address):__vector_offset_default
 *(.vector_73)
                0x9d0008b8                . = ALIGN (0x4)
                0x000008b8                __vector_offset_74 = DEFINED (__vector_dispatch_74)?(. - _ebase_address):__vector_offset_default
 *(.vector_74)
                0x9d0008b8                . = ALIGN (0x4)
                0x000008b8                __vector_offset_75 = DEFINED (__vector_dispatch_75)?(. - _ebase_address):__vector_offset_default
 *(.vector_75)
                0x9d0008b8                . = ALIGN (0x4)
                0x000008b8                __vector_offset_76 = DEFINED (__vector_dispatch_76)?(. - _ebase_address):__vector_offset_default
 *(.vector_76)
                0x9d0008b8                . = ALIGN (0x4)
                0x000008b8                __vector_offset_77 = DEFINED (__vector_dispatch_77)?(. - _ebase_address):__vector_offset_default
 *(.vector_77)
                0x9d0008b8                . = ALIGN (0x4)
                0x000008b8                __vector_offset_78 = DEFINED (__vector_dispatch_78)?(. - _ebase_address):__vector_offset_default
 *(.vector_78)
                0x9d0008b8                . = ALIGN (0x4)
                0x000008b8                __vector_offset_79 = DEFINED (__vector_dispatch_79)?(. - _ebase_address):__vector_offset_default
 *(.vector_79)
                0x9d0008b8                . = ALIGN (0x4)
                0x000008b8                __vector_offset_80 = DEFINED (__vector_dispatch_80)?(. - _ebase_address):__vector_offset_default
 *(.vector_80)
                0x9d0008b8                . = ALIGN (0x4)
                0x000008b8                __vector_offset_81 = DEFINED (__vector_dispatch_81)?(. - _ebase_address):__vector_offset_default
 *(.vector_81)
                0x9d0008b8                . = ALIGN (0x4)
                0x000008b8                __vector_offset_82 = DEFINED (__vector_dispatch_82)?(. - _ebase_address):__vector_offset_default
 *(.vector_82)
                0x9d0008b8                . = ALIGN (0x4)
                0x000008b8                __vector_offset_83 = DEFINED (__vector_dispatch_83)?(. - _ebase_address):__vector_offset_default
 *(.vector_83)
                0x9d0008b8                . = ALIGN (0x4)
                0x000008b8                __vector_offset_84 = DEFINED (__vector_dispatch_84)?(. - _ebase_address):__vector_offset_default
 *(.vector_84)
                0x9d0008b8                . = ALIGN (0x4)
                0x000008b8                __vector_offset_85 = DEFINED (__vector_dispatch_85)?(. - _ebase_address):__vector_offset_default
 *(.vector_85)
                0x9d0008b8                . = ALIGN (0x4)
                0x000008b8                __vector_offset_86 = DEFINED (__vector_dispatch_86)?(. - _ebase_address):__vector_offset_default
 *(.vector_86)
                0x9d0008b8                . = ALIGN (0x4)
                0x000008b8                __vector_offset_87 = DEFINED (__vector_dispatch_87)?(. - _ebase_address):__vector_offset_default
 *(.vector_87)
                0x9d0008b8                . = ALIGN (0x4)
                0x000008b8                __vector_offset_88 = DEFINED (__vector_dispatch_88)?(. - _ebase_address):__vector_offset_default
 *(.vector_88)
                0x9d0008b8                . = ALIGN (0x4)
                0x000008b8                __vector_offset_89 = DEFINED (__vector_dispatch_89)?(. - _ebase_address):__vector_offset_default
 *(.vector_89)
                0x9d0008b8                . = ALIGN (0x4)
                0x000008b8                __vector_offset_90 = DEFINED (__vector_dispatch_90)?(. - _ebase_address):__vector_offset_default
 *(.vector_90)
                0x9d0008b8                . = ALIGN (0x4)
                0x000008b8                __vector_offset_91 = DEFINED (__vector_dispatch_91)?(. - _ebase_address):__vector_offset_default
 *(.vector_91)
                0x9d0008b8                . = ALIGN (0x4)
                0x000008b8                __vector_offset_92 = DEFINED (__vector_dispatch_92)?(. - _ebase_address):__vector_offset_default
 *(.vector_92)
                0x9d0008b8                . = ALIGN (0x4)
                0x000008b8                __vector_offset_93 = DEFINED (__vector_dispatch_93)?(. - _ebase_address):__vector_offset_default
 *(.vector_93)
                0x9d0008b8                . = ALIGN (0x4)
                0x000008b8                __vector_offset_94 = DEFINED (__vector_dispatch_94)?(. - _ebase_address):__vector_offset_default
 *(.vector_94)
                0x9d0008b8                . = ALIGN (0x4)
                0x000008b8                __vector_offset_95 = DEFINED (__vector_dispatch_95)?(. - _ebase_address):__vector_offset_default
 *(.vector_95)
                0x9d0008b8                . = ALIGN (0x4)
                0x000008b8                __vector_offset_96 = DEFINED (__vector_dispatch_96)?(. - _ebase_address):__vector_offset_default
 *(.vector_96)
                0x9d0008b8                . = ALIGN (0x4)
                0x000008b8                __vector_offset_97 = DEFINED (__vector_dispatch_97)?(. - _ebase_address):__vector_offset_default
 *(.vector_97)
                0x9d0008b8                . = ALIGN (0x4)
                0x000008b8                __vector_offset_98 = DEFINED (__vector_dispatch_98)?(. - _ebase_address):__vector_offset_default
 *(.vector_98)
                0x9d0008b8                . = ALIGN (0x4)
                0x000008b8                __vector_offset_99 = DEFINED (__vector_dispatch_99)?(. - _ebase_address):__vector_offset_default
 *(.vector_99)
                0x9d0008b8                . = ALIGN (0x4)
                0x000008b8                __vector_offset_100 = DEFINED (__vector_dispatch_100)?(. - _ebase_address):__vector_offset_default
 *(.vector_100)
                0x9d0008b8                . = ALIGN (0x4)
                0x000008b8                __vector_offset_101 = DEFINED (__vector_dispatch_101)?(. - _ebase_address):__vector_offset_default
 *(.vector_101)
                0x9d0008b8                . = ALIGN (0x4)
                0x000008b8                __vector_offset_102 = DEFINED (__vector_dispatch_102)?(. - _ebase_address):__vector_offset_default
 *(.vector_102)
                0x9d0008b8                . = ALIGN (0x4)
                0x000008b8                __vector_offset_103 = DEFINED (__vector_dispatch_103)?(. - _ebase_address):__vector_offset_default
 *(.vector_103)
                0x9d0008b8                . = ALIGN (0x4)
                0x000008b8                __vector_offset_104 = DEFINED (__vector_dispatch_104)?(. - _ebase_address):__vector_offset_default
 *(.vector_104)
                0x9d0008b8                . = ALIGN (0x4)
                0x000008b8                __vector_offset_105 = DEFINED (__vector_dispatch_105)?(. - _ebase_address):__vector_offset_default
 *(.vector_105)
                0x9d0008b8                . = ALIGN (0x4)
                0x000008b8                __vector_offset_106 = DEFINED (__vector_dispatch_106)?(. - _ebase_address):__vector_offset_default
 *(.vector_106)
                0x9d0008b8                . = ALIGN (0x4)
                0x000008b8                __vector_offset_107 = DEFINED (__vector_dispatch_107)?(. - _ebase_address):__vector_offset_default
 *(.vector_107)
                0x9d0008b8                . = ALIGN (0x4)
                0x000008b8                __vector_offset_108 = DEFINED (__vector_dispatch_108)?(. - _ebase_address):__vector_offset_default
 *(.vector_108)
                0x9d0008b8                . = ALIGN (0x4)
                0x000008b8                __vector_offset_109 = DEFINED (__vector_dispatch_109)?(. - _ebase_address):__vector_offset_default
 *(.vector_109)
                0x9d0008b8                . = ALIGN (0x4)
                0x000008b8                __vector_offset_110 = DEFINED (__vector_dispatch_110)?(. - _ebase_address):__vector_offset_default
 *(.vector_110)
                0x9d0008b8                . = ALIGN (0x4)
                0x000008b8                __vector_offset_111 = DEFINED (__vector_dispatch_111)?(. - _ebase_address):__vector_offset_default
 *(.vector_111)
                0x9d0008b8                . = ALIGN (0x4)
                0x000008b8                __vector_offset_112 = DEFINED (__vector_dispatch_112)?(. - _ebase_address):__vector_offset_default
 *(.vector_112)
                0x9d0008b8                . = ALIGN (0x4)
                0x000008b8                __vector_offset_113 = DEFINED (__vector_dispatch_113)?(. - _ebase_address):__vector_offset_default
 *(.vector_113)
                0x9d0008b8                . = ALIGN (0x4)
                0x000008b8                __vector_offset_114 = DEFINED (__vector_dispatch_114)?(. - _ebase_address):__vector_offset_default
 *(.vector_114)
                0x9d0008b8                . = ALIGN (0x4)
                0x000008b8                __vector_offset_115 = DEFINED (__vector_dispatch_115)?(. - _ebase_address):__vector_offset_default
 *(.vector_115)
                0x9d0008b8                . = ALIGN (0x4)
                0x000008b8                __vector_offset_116 = DEFINED (__vector_dispatch_116)?(. - _ebase_address):__vector_offset_default
 *(.vector_116)
                0x9d0008b8                . = ALIGN (0x4)
                0x000008b8                __vector_offset_117 = DEFINED (__vector_dispatch_117)?(. - _ebase_address):__vector_offset_default
 *(.vector_117)
                0x9d0008b8                . = ALIGN (0x4)
                0x000008b8                __vector_offset_118 = DEFINED (__vector_dispatch_118)?(. - _ebase_address):__vector_offset_default
 *(.vector_118)
                0x9d0008b8                . = ALIGN (0x4)
                0x000008b8                __vector_offset_119 = DEFINED (__vector_dispatch_119)?(. - _ebase_address):__vector_offset_default
 *(.vector_119)
                0x9d0008b8                . = ALIGN (0x4)
                0x000008b8                __vector_offset_120 = DEFINED (__vector_dispatch_120)?(. - _ebase_address):__vector_offset_default
 *(.vector_120)
                0x9d0008b8                . = ALIGN (0x4)
                0x000008b8                __vector_offset_121 = DEFINED (__vector_dispatch_121)?(. - _ebase_address):__vector_offset_default
 *(.vector_121)
                0x9d0008b8                . = ALIGN (0x4)
                0x000008b8                __vector_offset_122 = DEFINED (__vector_dispatch_122)?(. - _ebase_address):__vector_offset_default
 *(.vector_122)
                0x9d0008b8                . = ALIGN (0x4)
                0x000008b8                __vector_offset_123 = DEFINED (__vector_dispatch_123)?(. - _ebase_address):__vector_offset_default
 *(.vector_123)
                0x9d0008b8                . = ALIGN (0x4)
                0x000008b8                __vector_offset_124 = DEFINED (__vector_dispatch_124)?(. - _ebase_address):__vector_offset_default
 *(.vector_124)
                0x9d0008b8                . = ALIGN (0x4)
                0x000008b8                __vector_offset_125 = DEFINED (__vector_dispatch_125)?(. - _ebase_address):__vector_offset_default
 *(.vector_125)
                0x9d0008b8                . = ALIGN (0x4)
                0x000008b8                __vector_offset_126 = DEFINED (__vector_dispatch_126)?(. - _ebase_address):__vector_offset_default
 *(.vector_126)
                0x9d0008b8                . = ALIGN (0x4)
                0x000008b8                __vector_offset_127 = DEFINED (__vector_dispatch_127)?(. - _ebase_address):__vector_offset_default
 *(.vector_127)
                0x9d0008b8                . = ALIGN (0x4)
                0x000008b8                __vector_offset_128 = DEFINED (__vector_dispatch_128)?(. - _ebase_address):__vector_offset_default
 *(.vector_128)
                0x9d0008b8                . = ALIGN (0x4)
                0x000008b8                __vector_offset_129 = DEFINED (__vector_dispatch_129)?(. - _ebase_address):__vector_offset_default
 *(.vector_129)
                0x9d0008b8                . = ALIGN (0x4)
                0x000008b8                __vector_offset_130 = DEFINED (__vector_dispatch_130)?(. - _ebase_address):__vector_offset_default
 *(.vector_130)
                0x9d0008b8                . = ALIGN (0x4)
                0x000008b8                __vector_offset_131 = DEFINED (__vector_dispatch_131)?(. - _ebase_address):__vector_offset_default
 *(.vector_131)
                0x9d0008b8                . = ALIGN (0x4)
                0x000008b8                __vector_offset_132 = DEFINED (__vector_dispatch_132)?(. - _ebase_address):__vector_offset_default
 *(.vector_132)
                0x9d0008b8                . = ALIGN (0x4)
                0x000008b8                __vector_offset_133 = DEFINED (__vector_dispatch_133)?(. - _ebase_address):__vector_offset_default
 *(.vector_133)
                0x9d0008b8                . = ALIGN (0x4)
                0x000008b8                __vector_offset_134 = DEFINED (__vector_dispatch_134)?(. - _ebase_address):__vector_offset_default
 *(.vector_134)
                0x9d0008b8                . = ALIGN (0x4)
                0x000008b8                __vector_offset_135 = DEFINED (__vector_dispatch_135)?(. - _ebase_address):__vector_offset_default
 *(.vector_135)
                0x9d0008b8                . = ALIGN (0x4)
                0x000008b8                __vector_offset_136 = DEFINED (__vector_dispatch_136)?(. - _ebase_address):__vector_offset_default
 *(.vector_136)
                0x9d0008b8                . = ALIGN (0x4)
                0x000008b8                __vector_offset_137 = DEFINED (__vector_dispatch_137)?(. - _ebase_address):__vector_offset_default
 *(.vector_137)
                0x9d0008b8                . = ALIGN (0x4)
                0x000008b8                __vector_offset_138 = DEFINED (__vector_dispatch_138)?(. - _ebase_address):__vector_offset_default
 *(.vector_138)
                0x9d0008b8                . = ALIGN (0x4)
                0x000008b8                __vector_offset_139 = DEFINED (__vector_dispatch_139)?(. - _ebase_address):__vector_offset_default
 *(.vector_139)
                0x9d0008b8                . = ALIGN (0x4)
                0x000008b8                __vector_offset_140 = DEFINED (__vector_dispatch_140)?(. - _ebase_address):__vector_offset_default
 *(.vector_140)
                0x9d0008b8                . = ALIGN (0x4)
                0x000008b8                __vector_offset_141 = DEFINED (__vector_dispatch_141)?(. - _ebase_address):__vector_offset_default
 *(.vector_141)
                0x9d0008b8                . = ALIGN (0x4)
                0x000008b8                __vector_offset_142 = DEFINED (__vector_dispatch_142)?(. - _ebase_address):__vector_offset_default
 *(.vector_142)
                0x9d0008b8                . = ALIGN (0x4)
                0x000008b8                __vector_offset_143 = DEFINED (__vector_dispatch_143)?(. - _ebase_address):__vector_offset_default
 *(.vector_143)
                0x9d0008b8                . = ALIGN (0x4)
                0x000008b8                __vector_offset_144 = DEFINED (__vector_dispatch_144)?(. - _ebase_address):__vector_offset_default
 *(.vector_144)
                0x9d0008b8                . = ALIGN (0x4)
                0x000008b8                __vector_offset_145 = DEFINED (__vector_dispatch_145)?(. - _ebase_address):__vector_offset_default
 *(.vector_145)
                0x9d0008b8                . = ALIGN (0x4)
                0x000008b8                __vector_offset_146 = DEFINED (__vector_dispatch_146)?(. - _ebase_address):__vector_offset_default
 *(.vector_146)
                0x9d0008b8                . = ALIGN (0x4)
                0x000008b8                __vector_offset_147 = DEFINED (__vector_dispatch_147)?(. - _ebase_address):__vector_offset_default
 *(.vector_147)
                0x9d0008b8                . = ALIGN (0x4)
                0x000008b8                __vector_offset_148 = DEFINED (__vector_dispatch_148)?(. - _ebase_address):__vector_offset_default
 *(.vector_148)
                0x9d0008b8                . = ALIGN (0x4)
                0x000008b8                __vector_offset_149 = DEFINED (__vector_dispatch_149)?(. - _ebase_address):__vector_offset_default
 *(.vector_149)
                0x9d0008b8                . = ALIGN (0x4)
                0x000008b8                __vector_offset_150 = DEFINED (__vector_dispatch_150)?(. - _ebase_address):__vector_offset_default
 *(.vector_150)
                0x9d0008b8                . = ALIGN (0x4)
                0x000008b8                __vector_offset_151 = DEFINED (__vector_dispatch_151)?(. - _ebase_address):__vector_offset_default
 *(.vector_151)
                0x9d0008b8                . = ALIGN (0x4)
                0x000008b8                __vector_offset_152 = DEFINED (__vector_dispatch_152)?(. - _ebase_address):__vector_offset_default
 *(.vector_152)
                0x9d0008b8                . = ALIGN (0x4)
                0x000008b8                __vector_offset_153 = DEFINED (__vector_dispatch_153)?(. - _ebase_address):__vector_offset_default
 *(.vector_153)
                0x9d0008b8                . = ALIGN (0x4)
                0x000008b8                __vector_offset_154 = DEFINED (__vector_dispatch_154)?(. - _ebase_address):__vector_offset_default
 *(.vector_154)
                0x9d0008b8                . = ALIGN (0x4)
                0x000008b8                __vector_offset_155 = DEFINED (__vector_dispatch_155)?(. - _ebase_address):__vector_offset_default
 *(.vector_155)
                0x9d0008b8                . = ALIGN (0x4)
                0x000008b8                __vector_offset_156 = DEFINED (__vector_dispatch_156)?(. - _ebase_address):__vector_offset_default
 *(.vector_156)
                0x9d0008b8                . = ALIGN (0x4)
                0x000008b8                __vector_offset_157 = DEFINED (__vector_dispatch_157)?(. - _ebase_address):__vector_offset_default
 *(.vector_157)
                0x9d0008b8                . = ALIGN (0x4)
                0x000008b8                __vector_offset_158 = DEFINED (__vector_dispatch_158)?(. - _ebase_address):__vector_offset_default
 *(.vector_158)
                0x9d0008b8                . = ALIGN (0x4)
                0x000008b8                __vector_offset_159 = DEFINED (__vector_dispatch_159)?(. - _ebase_address):__vector_offset_default
 *(.vector_159)
                0x9d0008b8                . = ALIGN (0x4)
                0x000008b8                __vector_offset_160 = DEFINED (__vector_dispatch_160)?(. - _ebase_address):__vector_offset_default
 *(.vector_160)
                0x9d0008b8                . = ALIGN (0x4)
                0x000008b8                __vector_offset_161 = DEFINED (__vector_dispatch_161)?(. - _ebase_address):__vector_offset_default
 *(.vector_161)
                0x9d0008b8                . = ALIGN (0x4)
                0x000008b8                __vector_offset_162 = DEFINED (__vector_dispatch_162)?(. - _ebase_address):__vector_offset_default
 *(.vector_162)
                0x9d0008b8                . = ALIGN (0x4)
                0x000008b8                __vector_offset_163 = DEFINED (__vector_dispatch_163)?(. - _ebase_address):__vector_offset_default
 *(.vector_163)
                0x9d0008b8                . = ALIGN (0x4)
                0x000008b8                __vector_offset_164 = DEFINED (__vector_dispatch_164)?(. - _ebase_address):__vector_offset_default
 *(.vector_164)
                0x9d0008b8                . = ALIGN (0x4)
                0x000008b8                __vector_offset_165 = DEFINED (__vector_dispatch_165)?(. - _ebase_address):__vector_offset_default
 *(.vector_165)
                0x9d0008b8                . = ALIGN (0x4)
                0x000008b8                __vector_offset_166 = DEFINED (__vector_dispatch_166)?(. - _ebase_address):__vector_offset_default
 *(.vector_166)
                0x9d0008b8                . = ALIGN (0x4)
                0x000008b8                __vector_offset_167 = DEFINED (__vector_dispatch_167)?(. - _ebase_address):__vector_offset_default
 *(.vector_167)
                0x9d0008b8                . = ALIGN (0x4)
                0x000008b8                __vector_offset_168 = DEFINED (__vector_dispatch_168)?(. - _ebase_address):__vector_offset_default
 *(.vector_168)
                0x9d0008b8                . = ALIGN (0x4)
                0x000008b8                __vector_offset_169 = DEFINED (__vector_dispatch_169)?(. - _ebase_address):__vector_offset_default
 *(.vector_169)
                0x9d0008b8                . = ALIGN (0x4)
                0x000008b8                __vector_offset_170 = DEFINED (__vector_dispatch_170)?(. - _ebase_address):__vector_offset_default
 *(.vector_170)
                0x9d0008b8                . = ALIGN (0x4)
                0x000008b8                __vector_offset_171 = DEFINED (__vector_dispatch_171)?(. - _ebase_address):__vector_offset_default
 *(.vector_171)
                0x9d0008b8                . = ALIGN (0x4)
                0x000008b8                __vector_offset_172 = DEFINED (__vector_dispatch_172)?(. - _ebase_address):__vector_offset_default
 *(.vector_172)
                0x9d0008b8                . = ALIGN (0x4)
                0x000008b8                __vector_offset_173 = DEFINED (__vector_dispatch_173)?(. - _ebase_address):__vector_offset_default
 *(.vector_173)
                0x9d0008b8                . = ALIGN (0x4)
                0x000008b8                __vector_offset_174 = DEFINED (__vector_dispatch_174)?(. - _ebase_address):__vector_offset_default
 *(.vector_174)
                0x9d0008b8                . = ALIGN (0x4)
                0x000008b8                __vector_offset_175 = DEFINED (__vector_dispatch_175)?(. - _ebase_address):__vector_offset_default
 *(.vector_175)
                0x9d0008b8                . = ALIGN (0x4)
                0x000008b8                __vector_offset_176 = DEFINED (__vector_dispatch_176)?(. - _ebase_address):__vector_offset_default
 *(.vector_176)
                0x9d0008b8                . = ALIGN (0x4)
                0x000008b8                __vector_offset_177 = DEFINED (__vector_dispatch_177)?(. - _ebase_address):__vector_offset_default
 *(.vector_177)
                0x9d0008b8                . = ALIGN (0x4)
                0x000008b8                __vector_offset_178 = DEFINED (__vector_dispatch_178)?(. - _ebase_address):__vector_offset_default
 *(.vector_178)
                0x9d0008b8                . = ALIGN (0x4)
                0x000008b8                __vector_offset_179 = DEFINED (__vector_dispatch_179)?(. - _ebase_address):__vector_offset_default
 *(.vector_179)
                0x9d0008b8                . = ALIGN (0x4)
                0x000008b8                __vector_offset_180 = DEFINED (__vector_dispatch_180)?(. - _ebase_address):__vector_offset_default
 *(.vector_180)
                0x9d0008b8                . = ALIGN (0x4)
                0x000008b8                __vector_offset_181 = DEFINED (__vector_dispatch_181)?(. - _ebase_address):__vector_offset_default
 *(.vector_181)
                0x9d0008b8                . = ALIGN (0x4)
                0x000008b8                __vector_offset_182 = DEFINED (__vector_dispatch_182)?(. - _ebase_address):__vector_offset_default
 *(.vector_182)
                0x9d0008b8                . = ALIGN (0x4)
                0x000008b8                __vector_offset_183 = DEFINED (__vector_dispatch_183)?(. - _ebase_address):__vector_offset_default
 *(.vector_183)
                0x9d0008b8                . = ALIGN (0x4)
                0x000008b8                __vector_offset_184 = DEFINED (__vector_dispatch_184)?(. - _ebase_address):__vector_offset_default
 *(.vector_184)
                0x9d0008b8                . = ALIGN (0x4)
                0x000008b8                __vector_offset_185 = DEFINED (__vector_dispatch_185)?(. - _ebase_address):__vector_offset_default
 *(.vector_185)
                0x9d0008b8                . = ALIGN (0x4)
                0x000008b8                __vector_offset_186 = DEFINED (__vector_dispatch_186)?(. - _ebase_address):__vector_offset_default
 *(.vector_186)
                0x9d0008b8                . = ALIGN (0x4)
                0x000008b8                __vector_offset_187 = DEFINED (__vector_dispatch_187)?(. - _ebase_address):__vector_offset_default
 *(.vector_187)
                0x9d0008b8                . = ALIGN (0x4)
                0x000008b8                __vector_offset_188 = DEFINED (__vector_dispatch_188)?(. - _ebase_address):__vector_offset_default
 *(.vector_188)
                0x9d0008b8                . = ALIGN (0x4)
                0x000008b8                __vector_offset_189 = DEFINED (__vector_dispatch_189)?(. - _ebase_address):__vector_offset_default
 *(.vector_189)
                0x9d0008b8                . = ALIGN (0x4)
                0x000008b8                __vector_offset_190 = DEFINED (__vector_dispatch_190)?(. - _ebase_address):__vector_offset_default
 *(.vector_190)
                0x9d0008b8                . = ALIGN (0x4)
                0x000008b8                __vector_offset_191 = DEFINED (__vector_dispatch_191)?(. - _ebase_address):__vector_offset_default
 *(.vector_191)
                0x9d0008b8                . = ALIGN (0x4)
                0x000008b8                __vector_offset_192 = DEFINED (__vector_dispatch_192)?(. - _ebase_address):__vector_offset_default
 *(.vector_192)
                0x9d0008b8                . = ALIGN (0x4)
                0x000008b8                __vector_offset_193 = DEFINED (__vector_dispatch_193)?(. - _ebase_address):__vector_offset_default
 *(.vector_193)
                0x9d0008b8                . = ALIGN (0x4)
                0x000008b8                __vector_offset_194 = DEFINED (__vector_dispatch_194)?(. - _ebase_address):__vector_offset_default
 *(.vector_194)
                0x9d0008b8                . = ALIGN (0x4)
                0x000008b8                __vector_offset_195 = DEFINED (__vector_dispatch_195)?(. - _ebase_address):__vector_offset_default
 *(.vector_195)
                0x9d0008b8                . = ALIGN (0x4)
                0x000008b8                __vector_offset_196 = DEFINED (__vector_dispatch_196)?(. - _ebase_address):__vector_offset_default
 *(.vector_196)
                0x9d0008b8                . = ALIGN (0x4)
                0x000008b8                __vector_offset_197 = DEFINED (__vector_dispatch_197)?(. - _ebase_address):__vector_offset_default
 *(.vector_197)
                0x9d0008b8                . = ALIGN (0x4)
                0x000008b8                __vector_offset_198 = DEFINED (__vector_dispatch_198)?(. - _ebase_address):__vector_offset_default
 *(.vector_198)
                0x9d0008b8                . = ALIGN (0x4)
                0x000008b8                __vector_offset_199 = DEFINED (__vector_dispatch_199)?(. - _ebase_address):__vector_offset_default
 *(.vector_199)
                0x9d0008b8                . = ALIGN (0x4)
                0x000008b8                __vector_offset_200 = DEFINED (__vector_dispatch_200)?(. - _ebase_address):__vector_offset_default
 *(.vector_200)
                0x9d0008b8                . = ALIGN (0x4)
                0x000008b8                __vector_offset_201 = DEFINED (__vector_dispatch_201)?(. - _ebase_address):__vector_offset_default
 *(.vector_201)
                0x9d0008b8                . = ALIGN (0x4)
                0x000008b8                __vector_offset_202 = DEFINED (__vector_dispatch_202)?(. - _ebase_address):__vector_offset_default
 *(.vector_202)
                0x9d0008b8                . = ALIGN (0x4)
                0x000008b8                __vector_offset_203 = DEFINED (__vector_dispatch_203)?(. - _ebase_address):__vector_offset_default
 *(.vector_203)
                0x9d0008b8                . = ALIGN (0x4)
                0x000008b8                __vector_offset_204 = DEFINED (__vector_dispatch_204)?(. - _ebase_address):__vector_offset_default
 *(.vector_204)
                0x9d0008b8                . = ALIGN (0x4)
                0x000008b8                __vector_offset_205 = DEFINED (__vector_dispatch_205)?(. - _ebase_address):__vector_offset_default
 *(.vector_205)
                0x9d0008b8                . = ALIGN (0x4)
                0x000008b8                __vector_offset_206 = DEFINED (__vector_dispatch_206)?(. - _ebase_address):__vector_offset_default
 *(.vector_206)
                0x9d0008b8                . = ALIGN (0x4)
                0x000008b8                __vector_offset_207 = DEFINED (__vector_dispatch_207)?(. - _ebase_address):__vector_offset_default
 *(.vector_207)
                0x9d0008b8                . = ALIGN (0x4)
                0x000008b8                __vector_offset_208 = DEFINED (__vector_dispatch_208)?(. - _ebase_address):__vector_offset_default
 *(.vector_208)
                0x9d0008b8                . = ALIGN (0x4)
                0x000008b8                __vector_offset_209 = DEFINED (__vector_dispatch_209)?(. - _ebase_address):__vector_offset_default
 *(.vector_209)
                0x9d0008b8                . = ALIGN (0x4)
                0x000008b8                __vector_offset_210 = DEFINED (__vector_dispatch_210)?(. - _ebase_address):__vector_offset_default
 *(.vector_210)
                0x9d0008b8                . = ALIGN (0x4)
                0x000008b8                __vector_offset_211 = DEFINED (__vector_dispatch_211)?(. - _ebase_address):__vector_offset_default
 *(.vector_211)
                0x9d0008b8                . = ALIGN (0x4)
                0x000008b8                __vector_offset_212 = DEFINED (__vector_dispatch_212)?(. - _ebase_address):__vector_offset_default
 *(.vector_212)
                0x9d0008b8                . = ALIGN (0x4)
                0x000008b8                __vector_offset_213 = DEFINED (__vector_dispatch_213)?(. - _ebase_address):__vector_offset_default
 *(.vector_213)
                0x9d0008b8                . = ALIGN (0x4)
                0x000008b8                __vector_offset_214 = DEFINED (__vector_dispatch_214)?(. - _ebase_address):__vector_offset_default
 *(.vector_214)
                0x9d0008b8                . = ALIGN (0x4)
                0x000008b8                __vector_offset_215 = DEFINED (__vector_dispatch_215)?(. - _ebase_address):__vector_offset_default
 *(.vector_215)
                0x9d0008b8                . = ALIGN (0x4)
                0x000008b8                __vector_offset_216 = DEFINED (__vector_dispatch_216)?(. - _ebase_address):__vector_offset_default
 *(.vector_216)
                0x9d0008b8                . = ALIGN (0x4)
                0x000008b8                __vector_offset_217 = DEFINED (__vector_dispatch_217)?(. - _ebase_address):__vector_offset_default
 *(.vector_217)
                0x9d0008b8                . = ALIGN (0x4)
                0x000008b8                __vector_offset_218 = DEFINED (__vector_dispatch_218)?(. - _ebase_address):__vector_offset_default
 *(.vector_218)
                0x9d0008b8                . = ALIGN (0x4)
                0x000008b8                __vector_offset_219 = DEFINED (__vector_dispatch_219)?(. - _ebase_address):__vector_offset_default
 *(.vector_219)
                0x9d0008b8                . = ALIGN (0x4)
                0x000008b8                __vector_offset_220 = DEFINED (__vector_dispatch_220)?(. - _ebase_address):__vector_offset_default
 *(.vector_220)
                0x9d0008b8                . = ALIGN (0x4)
                0x000008b8                __vector_offset_221 = DEFINED (__vector_dispatch_221)?(. - _ebase_address):__vector_offset_default
 *(.vector_221)
                0x9d0008b8                . = ALIGN (0x4)
                0x000008b8                __vector_offset_222 = DEFINED (__vector_dispatch_222)?(. - _ebase_address):__vector_offset_default
 *(.vector_222)
                0x9d0008b8                . = ALIGN (0x4)
                0x000008b8                __vector_offset_223 = DEFINED (__vector_dispatch_223)?(. - _ebase_address):__vector_offset_default
 *(.vector_223)
                0x9d0008b8                . = ALIGN (0x4)
                0x000008b8                __vector_offset_224 = DEFINED (__vector_dispatch_224)?(. - _ebase_address):__vector_offset_default
 *(.vector_224)
                0x9d0008b8                . = ALIGN (0x4)
                0x000008b8                __vector_offset_225 = DEFINED (__vector_dispatch_225)?(. - _ebase_address):__vector_offset_default
 *(.vector_225)
                0x9d0008b8                . = ALIGN (0x4)
                0x000008b8                __vector_offset_226 = DEFINED (__vector_dispatch_226)?(. - _ebase_address):__vector_offset_default
 *(.vector_226)
                0x9d0008b8                . = ALIGN (0x4)
                0x000008b8                __vector_offset_227 = DEFINED (__vector_dispatch_227)?(. - _ebase_address):__vector_offset_default
 *(.vector_227)
                0x9d0008b8                . = ALIGN (0x4)
                0x000008b8                __vector_offset_228 = DEFINED (__vector_dispatch_228)?(. - _ebase_address):__vector_offset_default
 *(.vector_228)
                0x9d0008b8                . = ALIGN (0x4)
                0x000008b8                __vector_offset_229 = DEFINED (__vector_dispatch_229)?(. - _ebase_address):__vector_offset_default
 *(.vector_229)
                0x9d0008b8                . = ALIGN (0x4)
                0x000008b8                __vector_offset_230 = DEFINED (__vector_dispatch_230)?(. - _ebase_address):__vector_offset_default
 *(.vector_230)
                0x9d0008b8                . = ALIGN (0x4)
                0x000008b8                __vector_offset_231 = DEFINED (__vector_dispatch_231)?(. - _ebase_address):__vector_offset_default
 *(.vector_231)
                0x9d0008b8                . = ALIGN (0x4)
                0x000008b8                __vector_offset_232 = DEFINED (__vector_dispatch_232)?(. - _ebase_address):__vector_offset_default
 *(.vector_232)
                0x9d0008b8                . = ALIGN (0x4)
                0x000008b8                __vector_offset_233 = DEFINED (__vector_dispatch_233)?(. - _ebase_address):__vector_offset_default
 *(.vector_233)
                0x9d0008b8                . = ALIGN (0x4)
                0x000008b8                __vector_offset_234 = DEFINED (__vector_dispatch_234)?(. - _ebase_address):__vector_offset_default
 *(.vector_234)
                0x9d0008b8                . = ALIGN (0x4)
                0x000008b8                __vector_offset_235 = DEFINED (__vector_dispatch_235)?(. - _ebase_address):__vector_offset_default
 *(.vector_235)
                0x9d0008b8                . = ALIGN (0x4)
                0x000008b8                __vector_offset_236 = DEFINED (__vector_dispatch_236)?(. - _ebase_address):__vector_offset_default
 *(.vector_236)
                0x9d0008b8                . = ALIGN (0x4)
                0x000008b8                __vector_offset_237 = DEFINED (__vector_dispatch_237)?(. - _ebase_address):__vector_offset_default
 *(.vector_237)
                0x9d0008b8                . = ALIGN (0x4)
                0x000008b8                __vector_offset_238 = DEFINED (__vector_dispatch_238)?(. - _ebase_address):__vector_offset_default
 *(.vector_238)
                0x9d0008b8                . = ALIGN (0x4)
                0x000008b8                __vector_offset_239 = DEFINED (__vector_dispatch_239)?(. - _ebase_address):__vector_offset_default
 *(.vector_239)
                0x9d0008b8                . = ALIGN (0x4)
                0x000008b8                __vector_offset_240 = DEFINED (__vector_dispatch_240)?(. - _ebase_address):__vector_offset_default
 *(.vector_240)
                0x9d0008b8                . = ALIGN (0x4)
                0x000008b8                __vector_offset_241 = DEFINED (__vector_dispatch_241)?(. - _ebase_address):__vector_offset_default
 *(.vector_241)
                0x9d0008b8                . = ALIGN (0x4)
                0x000008b8                __vector_offset_242 = DEFINED (__vector_dispatch_242)?(. - _ebase_address):__vector_offset_default
 *(.vector_242)
                0x9d0008b8                . = ALIGN (0x4)
                0x000008b8                __vector_offset_243 = DEFINED (__vector_dispatch_243)?(. - _ebase_address):__vector_offset_default
 *(.vector_243)
                0x9d0008b8                . = ALIGN (0x4)
                0x000008b8                __vector_offset_244 = DEFINED (__vector_dispatch_244)?(. - _ebase_address):__vector_offset_default
 *(.vector_244)
                0x9d0008b8                . = ALIGN (0x4)
                0x000008b8                __vector_offset_245 = DEFINED (__vector_dispatch_245)?(. - _ebase_address):__vector_offset_default
 *(.vector_245)
                0x9d0008b8                . = ALIGN (0x4)
                0x000008b8                __vector_offset_246 = DEFINED (__vector_dispatch_246)?(. - _ebase_address):__vector_offset_default
 *(.vector_246)
                0x9d0008b8                . = ALIGN (0x4)
                0x000008b8                __vector_offset_247 = DEFINED (__vector_dispatch_247)?(. - _ebase_address):__vector_offset_default
 *(.vector_247)
                0x9d0008b8                . = ALIGN (0x4)
                0x000008b8                __vector_offset_248 = DEFINED (__vector_dispatch_248)?(. - _ebase_address):__vector_offset_default
 *(.vector_248)
                0x9d0008b8                . = ALIGN (0x4)
                0x000008b8                __vector_offset_249 = DEFINED (__vector_dispatch_249)?(. - _ebase_address):__vector_offset_default
 *(.vector_249)
                0x9d0008b8                . = ALIGN (0x4)
                0x000008b8                __vector_offset_250 = DEFINED (__vector_dispatch_250)?(. - _ebase_address):__vector_offset_default
 *(.vector_250)
                0x9d0008b8                . = ALIGN (0x4)
                0x000008b8                __vector_offset_251 = DEFINED (__vector_dispatch_251)?(. - _ebase_address):__vector_offset_default
 *(.vector_251)
                0x9d0008b8                . = ALIGN (0x4)
                0x000008b8                __vector_offset_252 = DEFINED (__vector_dispatch_252)?(. - _ebase_address):__vector_offset_default
 *(.vector_252)
                0x9d0008b8                . = ALIGN (0x4)
                0x000008b8                __vector_offset_253 = DEFINED (__vector_dispatch_253)?(. - _ebase_address):__vector_offset_default
 *(.vector_253)
                0x9d0008b8                . = ALIGN (0x4)
                0x000008b8                __vector_offset_254 = DEFINED (__vector_dispatch_254)?(. - _ebase_address):__vector_offset_default
 *(.vector_254)
                0x9d0008b8                . = ALIGN (0x4)
                0x000008b8                __vector_offset_255 = DEFINED (__vector_dispatch_255)?(. - _ebase_address):__vector_offset_default
 *(.vector_255)
                0x9d0008b8                . = ALIGN (0x4)
                0x000008b8                __vector_offset_default = (. - _ebase_address)
 *(.vector_default)
 .vector_default
                0x9d0008b8       0x48 /opt/microchip/xc32/v2.41/bin/bin/../../lib/gcc/pic32mx/4.8.3/../../../../pic32mx/lib/libpic32.a(defaultinterrupt.o)
                0x9d0008b8                _DefaultInterrupt

.startup
 *(.startup)

.text           0x9d000900        0x0
 *(.stub .gnu.linkonce.t.*)
 *(.text.*personality*)
 *(.mips16.fn.*)
 *(.mips16.call.*)
 *(.gnu.warning)
                0x9d000900                . = ALIGN (0x4)

.init           0x9d000900        0x0
 *crti.o(.init)
 *crtbegin.o(.init)
 *(EXCLUDE_FILE(*crtn.o *crtend?.o *crtend.o) .init)
 *crtend.o(.init)
 *crtn.o(.init)
                0x9d000900                . = ALIGN (0x4)

.fini           0x9d000900        0x0
 *(.fini)
                0x9d000900                . = ALIGN (0x4)

.preinit_array  0x9d000900        0x0
                0x9d000900                PROVIDE (__preinit_array_start, .)
 *(.preinit_array)
                0x9d000900                PROVIDE (__preinit_array_end, .)
                0x9d000900                . = ALIGN (0x4)

.init_array     0x9d000900        0x0
                0x9d000900                PROVIDE (__init_array_start, .)
 *(SORT(.init_array.*))
 *(.init_array)
                0x9d000900                PROVIDE (__init_array_end, .)
                0x9d000900                . = ALIGN (0x4)

.fini_array     0x9d000900        0x0
                0x9d000900                PROVIDE (__fini_array_start, .)
 *(SORT(.fini_array.*))
 *(.fini_array)
                0x9d000900                PROVIDE (__fini_array_end, .)
                0x9d000900                . = ALIGN (0x4)

.ctors          0x9d000900        0x0
 *crtbegin.o(.ctors)
 *crtbegin?.o(.ctors)
 *(EXCLUDE_FILE(*crtend?.o *crtend.o) .ctors)
 *(SORT(.ctors.*))
 *(.ctors)
                0x9d000900                . = ALIGN (0x4)

.dtors          0x9d000900        0x0
 *crtbegin.o(.dtors)
 *crtbegin?.o(.dtors)
 *(EXCLUDE_FILE(*crtend?.o *crtend.o) .dtors)
 *(SORT(.dtors.*))
 *(.dtors)
                0x9d000900                . = ALIGN (0x4)

.rodata         0x9d000900        0x0
 *(.gnu.linkonce.r.*)
 *(.rodata1)
                0x9d000900                . = ALIGN (0x4)

.sdata2         0x9fc004b0        0x0
 *(.sdata2 .sdata2.* .gnu.linkonce.s2.*)
                0x9fc004b0                . = ALIGN (0x4)

.sbss2          0x9fc004b0        0x0
 *(.sbss2 .sbss2.* .gnu.linkonce.sb2.*)
                0x9fc004b0                . = ALIGN (0x4)

.eh_frame_hdr
 *(.eh_frame_hdr)
                0x9fc004b0                . = ALIGN (0x4)

.eh_frame
 *(.eh_frame)
                0x9fc004b0                . = ALIGN (0x4)

.gcc_except_table
 *(.gcc_except_table .gcc_except_table.*)
                0x9fc004b0                . = ALIGN (0x4)

.dbg_data       0x80000280        0x0
                0x80000280                . = (. + DEFINED (_DEBUGGER)?0x200:0x0)
                0x80000280                . = (. + DEFINED (_DEBUGGER)?0x80:0x0)

.jcr            0x80000280        0x0
 *(.jcr)
                0x80000280                . = ALIGN (0x4)

.eh_frame
 *(.eh_frame)
                0x80000280                . = ALIGN (0x4)

.gcc_except_table
 *(.gcc_except_table .gcc_except_table.*)
                0x80000280                . = ALIGN (0x4)

.persist        0x80000280        0x0
                0x80000280                _persist_begin = .
 *(.persist .persist.*)
                0x80000280                . = ALIGN (0x4)
                0x80000280                _persist_end = .

.data           0x80000280        0x0
 *(.gnu.linkonce.d.*)
 *(.data1)
                0x80000280                . = ALIGN (0x4)
                0x80000280                . = .
                0x80008270                _gp = (ALIGN (0x10) + 0x7ff0)

.got            0x80000280        0x0
 *(.got.plt)
 *(.got)
                0x80000280                . = ALIGN (0x4)

.sdata          0x80000280       0x2c
                0x80000280                _sdata_begin = .
 *(.sdata .sdata.* .gnu.linkonce.s.*)
 .sdata         0x80000280        0x4 build/default/debug/_ext/1571139743/port.o
                0x80000280                uxInterruptNesting
 .sdata         0x80000284       0x24 /opt/microchip/xc32/v2.41/bin/bin/../../lib/gcc/pic32mx/4.8.3/../../../../pic32mx/lib/libpic32.a(pic32_init_cache.o)
                0x80000284                __pic32_icache_size
                0x80000288                __pic32_icache_linesize
                0x8000028c                __pic32_icache_ways
                0x80000290                __pic32_dcache_size
                0x80000294                __pic32_dcache_linesize
                0x80000298                __pic32_dcache_ways
                0x8000029c                __pic32_scache_size
                0x800002a0                __pic32_scache_linesize
                0x800002a4                __pic32_scache_ways
 .sdata         0x800002a8        0x4 /opt/microchip/xc32/v2.41/bin/bin/../../lib/gcc/pic32mx/4.8.3/../../../../pic32mx/lib/libpic32.a(xc32_uart.o)
                0x800002a8                __XC_UART
                0x800002ac                . = ALIGN (0x4)
                0x800002ac                _sdata_end = .

.lit8
 *(.lit8)

.lit4
 *(.lit4)
                0x800002ac                . = ALIGN (0x4)
                0x800002ac                _data_end = .
                0x800002ac                _bss_begin = .

.sbss           0x800002ac       0xc4
                0x800002ac                _sbss_begin = .
 *(.dynsbss)
 *(.sbss .sbss.* .gnu.linkonce.sb.*)
 .sbss          0x800002ac        0x8 build/default/debug/_ext/1650642999/comms.o
 .sbss          0x800002b4        0x1 build/default/debug/_ext/1407244131/drv_tmr_static.o
 *fill*         0x800002b5        0x3 
 .sbss          0x800002b8       0x18 build/default/debug/_ext/1688732426/general_exception_handler.o
 .sbss          0x800002d0        0x8 build/default/debug/_ext/457403440/heap_1.o
 .sbss          0x800002d8        0x4 build/default/debug/_ext/1571139743/port.o
                0x800002d8                uxSavedTaskStackPointer
 .sbss          0x800002dc       0x34 build/default/debug/_ext/1276567923/tasks.o
                0x800002dc                uxSchedulerSuspended
                0x800002e0                xIdleTaskHandle
                0x800002e4                xNextTaskUnblockTime
                0x800002e8                uxTaskNumber
                0x800002ec                xNumOfOverflows
                0x800002f0                xYieldPending
                0x800002f4                uxPendedTicks
                0x800002f8                xSchedulerRunning
                0x800002fc                uxTopReadyPriority
                0x80000300                xTickCount
                0x80000304                uxCurrentNumberOfTasks
                0x80000308                uxDeletedTasksWaitingCleanUp
                0x8000030c                pxCurrentTCB
 .sbss          0x80000310        0x8 build/default/debug/_ext/1204493032/PositionEstimatorAltitude.o
 .sbss          0x80000318        0x4 build/default/debug/_ext/149289479/MAVLinkHandler.o
 .sbss          0x8000031c        0x8 build/default/debug/_ext/1715884449/AttitudeControllerTask.o
 .sbss          0x80000324        0x4 build/default/debug/_ext/1158199258/MAVLinkSendTask.o
 .sbss          0x80000328        0xc build/default/debug/_ext/1315301415/MAVStatusTask.o
 *(.scommon)
 .scommon       0x80000334       0x10 build/default/debug/_ext/327000265/drv_usart_static.o
                0x80000334                gDrvUSART0Obj
                0x8000033c                gDrvUSART1Obj
 .scommon       0x80000344        0x8 build/default/debug/_ext/1360937237/app.o
                0x80000344                appData
                0x80000348                i
 .scommon       0x8000034c        0x4 build/default/debug/_ext/1360937237/mavlink_recv_task.o
                0x8000034c                mavlink_recv_taskData
 .scommon       0x80000350        0x8 build/default/debug/_ext/1360937237/mavlink_send_task.o
                0x80000350                mavlink_send_taskData
                0x80000354                g_mavLinkSendQueue
 .scommon       0x80000358        0x4 build/default/debug/_ext/1360937237/mavlink_status_task.o
                0x80000358                mavlink_status_taskData
 .scommon       0x8000035c        0x4 build/default/debug/_ext/1360937237/att_controller_task.o
                0x8000035c                att_controller_taskData
 .scommon       0x80000360        0x8 build/default/debug/_ext/121284916/sys_devcon.o
                0x80000360                sysDevconObj
 .scommon       0x80000368        0x8 build/default/debug/_ext/1276567923/tasks.o
                0x80000368                pxDelayedTaskList
                0x8000036c                pxOverflowDelayedTaskList
                0x80000370                _sbss_end = .
                0x80000370                . = ALIGN (0x4)

.bss            0x80000370      0x124
 *(.dynbss)
 *(COMMON)
 COMMON         0x80000370       0x10 build/default/debug/_ext/1688732426/system_init.o
                0x80000370                sysObj
 COMMON         0x80000380      0x104 build/default/debug/_ext/1276567923/tasks.o
                0x80000380                pxReadyTasksLists
                0x80000420                xPendingReadyList
                0x80000434                xTasksWaitingTermination
                0x80000448                xSuspendedTaskList
                0x8000045c                xDelayedTaskList2
                0x80000470                xDelayedTaskList1
 COMMON         0x80000484       0x10 build/default/debug/_ext/149289479/MAVLinkHandler.o
                0x80000484                g_latestJoystickInput
                0x80000494                . = ALIGN ((. != 0x0)?0x4:0x1)
                0x80000494                . = ALIGN (0x4)
                0x80000494                _end = .
                0x80000494                _bss_end = .
                0x00080000                _bmxdudba_address = 0x80000
                0x00080000                _bmxdupba_address = 0x80000

/DISCARD/
 *(.pdr)
 *(.rel.dyn)
 *(.note.GNU-stack)
 *(.note.GNU-stack)
 *(.gnu_debuglink)
 *(.gnu.lto_*)
 *(.discard)

.gptab.sdata
 *(.gptab.data)
 *(.gptab.sdata)

.gptab.sbss
 *(.gptab.bss)
 *(.gptab.sbss)

.mdebug.abi32   0x00000000        0x0
 *(.mdebug.abi32)
 .mdebug.abi32  0x00000000        0x0 /opt/microchip/xc32/v2.41/bin/bin/../../lib/gcc/pic32mx/4.8.3/../../../../pic32mx/lib/software-debug-break.o
 .mdebug.abi32  0x00000000        0x0 build/default/debug/_ext/1650642999/imu.o
 .mdebug.abi32  0x00000000        0x0 build/default/debug/_ext/1650642999/comms.o
 .mdebug.abi32  0x00000000        0x0 build/default/debug/_ext/1650642999/tof.o
 .mdebug.abi32  0x00000000        0x0 build/default/debug/_ext/1650642999/motors.o
 .mdebug.abi32  0x00000000        0x0 build/default/debug/_ext/971049567/Quaternion.o
 .mdebug.abi32  0x00000000        0x0 build/default/debug/_ext/971049567/Vector3D.o
 .mdebug.abi32  0x00000000        0x0 build/default/debug/_ext/1047219354/drv_oc_mapping.o
 .mdebug.abi32  0x00000000        0x0 build/default/debug/_ext/1047219354/drv_oc_static.o
 .mdebug.abi32  0x00000000        0x0 build/default/debug/_ext/1407244131/drv_tmr_static.o
 .mdebug.abi32  0x00000000        0x0 build/default/debug/_ext/1407244131/drv_tmr_mapping.o
 .mdebug.abi32  0x00000000        0x0 build/default/debug/_ext/327000265/drv_usart_mapping.o
 .mdebug.abi32  0x00000000        0x0 build/default/debug/_ext/327000265/drv_usart_static.o
 .mdebug.abi32  0x00000000        0x0 build/default/debug/_ext/327000265/drv_usart_static_byte_model.o
 .mdebug.abi32  0x00000000        0x0 build/default/debug/_ext/639803181/sys_clk_pic32mz.o
 .mdebug.abi32  0x00000000        0x0 build/default/debug/_ext/822048611/sys_ports_static.o
 .mdebug.abi32  0x00000000        0x0 build/default/debug/_ext/1688732426/system_init.o
 .mdebug.abi32  0x00000000        0x0 build/default/debug/_ext/1688732426/system_interrupt.o
 .mdebug.abi32  0x00000000        0x0 build/default/debug/_ext/1688732426/general_exception_handler.o
 .mdebug.abi32  0x00000000        0x0 build/default/debug/_ext/1688732426/fassert.o
 .mdebug.abi32  0x00000000        0x0 build/default/debug/_ext/1688732426/system_tasks.o
 .mdebug.abi32  0x00000000        0x0 build/default/debug/_ext/1688732426/rtos_hooks.o
 .mdebug.abi32  0x00000000        0x0 build/default/debug/_ext/1360937237/main.o
 .mdebug.abi32  0x00000000        0x0 build/default/debug/_ext/1360937237/app.o
 .mdebug.abi32  0x00000000        0x0 build/default/debug/_ext/1360937237/mavlink_recv_task.o
 .mdebug.abi32  0x00000000        0x0 build/default/debug/_ext/1360937237/mavlink_send_task.o
 .mdebug.abi32  0x00000000        0x0 build/default/debug/_ext/1360937237/mavlink_status_task.o
 .mdebug.abi32  0x00000000        0x0 build/default/debug/_ext/1360937237/att_controller_task.o
 .mdebug.abi32  0x00000000        0x0 build/default/debug/_ext/1353086322/osal_freertos.o
 .mdebug.abi32  0x00000000        0x0 build/default/debug/_ext/121284916/sys_devcon.o
 .mdebug.abi32  0x00000000        0x0 build/default/debug/_ext/121284916/sys_devcon_pic32mz.o
 .mdebug.abi32  0x00000000        0x0 build/default/debug/_ext/1317643790/sys_int_pic32.o
 .mdebug.abi32  0x00000000        0x0 build/default/debug/_ext/457403440/heap_1.o
 .mdebug.abi32  0x00000000        0x0 build/default/debug/_ext/1571139743/port.o
 .mdebug.abi32  0x00000000        0x0 build/default/debug/_ext/1276567923/croutine.o
 .mdebug.abi32  0x00000000        0x0 build/default/debug/_ext/1276567923/list.o
 .mdebug.abi32  0x00000000        0x0 build/default/debug/_ext/1276567923/queue.o
 .mdebug.abi32  0x00000000        0x0 build/default/debug/_ext/1276567923/tasks.o
 .mdebug.abi32  0x00000000        0x0 build/default/debug/_ext/1276567923/timers.o
 .mdebug.abi32  0x00000000        0x0 build/default/debug/_ext/1276567923/event_groups.o
 .mdebug.abi32  0x00000000        0x0 build/default/debug/_ext/443942460/PID.o
 .mdebug.abi32  0x00000000        0x0 build/default/debug/_ext/1035051164/SixDOFQuadcopterModel.o
 .mdebug.abi32  0x00000000        0x0 build/default/debug/_ext/1204493032/PositionEstimatorAltitude.o
 .mdebug.abi32  0x00000000        0x0 build/default/debug/_ext/1204493032/SensFusion.o
 .mdebug.abi32  0x00000000        0x0 build/default/debug/_ext/1204493032/ComplementaryFilter.o
 .mdebug.abi32  0x00000000        0x0 build/default/debug/_ext/1204493032/AttitudeController.o
 .mdebug.abi32  0x00000000        0x0 build/default/debug/_ext/149289479/MAVLinkSender.o
 .mdebug.abi32  0x00000000        0x0 build/default/debug/_ext/149289479/MAVLinkHandler.o
 .mdebug.abi32  0x00000000        0x0 build/default/debug/_ext/1715884449/AttitudeControllerTask.o
 .mdebug.abi32  0x00000000        0x0 build/default/debug/_ext/1158199258/MAVLinkSendTask.o
 .mdebug.abi32  0x00000000        0x0 build/default/debug/_ext/1158199258/MAVLinkRecvTask.o
 .mdebug.abi32  0x00000000        0x0 build/default/debug/_ext/1315301415/TOFUpdateTask.o
 .mdebug.abi32  0x00000000        0x0 build/default/debug/_ext/1315301415/MAVStatusTask.o
 .mdebug.abi32  0x00000000        0x0 build/default/debug/_ext/1315301415/IMUUpdateTask.o
 .mdebug.abi32  0x00000000        0x0 build/default/debug/_ext/1313821444/num.o
 .mdebug.abi32  0x00000000        0x0 /opt/microchip/xc32/v2.41/bin/bin/../../lib/gcc/pic32mx/4.8.3/libgcc.a(floatunsisf.o)
 .mdebug.abi32  0x00000000        0x0 /opt/microchip/xc32/v2.41/bin/bin/../../lib/gcc/pic32mx/4.8.3/../../../../pic32mx/lib/libpic32.a(default-bootstrap-exception-handler.o)
 .mdebug.abi32  0x00000000        0x0 /opt/microchip/xc32/v2.41/bin/bin/../../lib/gcc/pic32mx/4.8.3/../../../../pic32mx/lib/libpic32.a(default-on-reset.o)
 .mdebug.abi32  0x00000000        0x0 /opt/microchip/xc32/v2.41/bin/bin/../../lib/gcc/pic32mx/4.8.3/../../../../pic32mx/lib/libpic32.a(default-on-bootstrap.o)
 .mdebug.abi32  0x00000000        0x0 /opt/microchip/xc32/v2.41/bin/bin/../../lib/gcc/pic32mx/4.8.3/../../../../pic32mx/lib/libpic32.a(defaultinterrupt.o)
 .mdebug.abi32  0x00000000        0x0 /opt/microchip/xc32/v2.41/bin/bin/../../lib/gcc/pic32mx/4.8.3/../../../../pic32mx/lib/libpic32.a(default-cache-err-exception-handler.o)
 .mdebug.abi32  0x00000000        0x0 /opt/microchip/xc32/v2.41/bin/bin/../../lib/gcc/pic32mx/4.8.3/../../../../pic32mx/lib/libpic32.a(default-simple-tlb-refill-exception-handler.o)
 .mdebug.abi32  0x00000000        0x0 /opt/microchip/xc32/v2.41/bin/bin/../../lib/gcc/pic32mx/4.8.3/../../../../pic32mx/lib/libc.a(malloc.o)
 .mdebug.abi32  0x00000000        0x0 /opt/microchip/xc32/v2.41/bin/bin/../../lib/gcc/pic32mx/4.8.3/../../../../pic32mx/lib/libc.a(puts.o)
 .mdebug.abi32  0x00000000        0x0 /opt/microchip/xc32/v2.41/bin/bin/../../lib/gcc/pic32mx/4.8.3/../../../../pic32mx/lib/libc.a(strcat.o)
 .mdebug.abi32  0x00000000        0x0 /opt/microchip/xc32/v2.41/bin/bin/../../lib/gcc/pic32mx/4.8.3/../../../../pic32mx/lib/libc.a(sprintf_cdnopuxX.eo)
 .mdebug.abi32  0x00000000        0x0 /opt/microchip/xc32/v2.41/bin/bin/../../lib/gcc/pic32mx/4.8.3/../../../../pic32mx/lib/libc.a(_iob.o)
 .mdebug.abi32  0x00000000        0x0 /opt/microchip/xc32/v2.41/bin/bin/../../lib/gcc/pic32mx/4.8.3/../../../../pic32mx/lib/libc.a(_fputc_simple.o)
 .mdebug.abi32  0x00000000        0x0 /opt/microchip/xc32/v2.41/bin/bin/../../lib/gcc/pic32mx/4.8.3/../../../../pic32mx/lib/libc.a(doprnt_cdnopuxX.eo)
 .mdebug.abi32  0x00000000        0x0 /opt/microchip/xc32/v2.41/bin/bin/../../lib/gcc/pic32mx/4.8.3/../../../../pic32mx/lib/libc.a(_flsbuf_simple.o)
 .mdebug.abi32  0x00000000        0x0 /opt/microchip/xc32/v2.41/bin/bin/../../lib/gcc/pic32mx/4.8.3/../../../../pic32mx/lib/libc.a(ctype.o)
 .mdebug.abi32  0x00000000        0x0 /opt/microchip/xc32/v2.41/bin/bin/../../lib/gcc/pic32mx/4.8.3/../../../../pic32mx/lib/libm.a(w_asinf.o)
 .mdebug.abi32  0x00000000        0x0 /opt/microchip/xc32/v2.41/bin/bin/../../lib/gcc/pic32mx/4.8.3/../../../../pic32mx/lib/libm.a(w_atan2f.o)
 .mdebug.abi32  0x00000000        0x0 /opt/microchip/xc32/v2.41/bin/bin/../../lib/gcc/pic32mx/4.8.3/../../../../pic32mx/lib/libm.a(support.o)
 .mdebug.abi32  0x00000000        0x0 /opt/microchip/xc32/v2.41/bin/bin/../../lib/gcc/pic32mx/4.8.3/../../../../pic32mx/lib/libm.a(s_lib_ver.o)
 .mdebug.abi32  0x00000000        0x0 /opt/microchip/xc32/v2.41/bin/bin/../../lib/gcc/pic32mx/4.8.3/libgcc.a(_udivdi3.o)
 .mdebug.abi32  0x00000000        0x0 /opt/microchip/xc32/v2.41/bin/bin/../../lib/gcc/pic32mx/4.8.3/libgcc.a(_umoddi3.o)
 .mdebug.abi32  0x00000000        0x0 /opt/microchip/xc32/v2.41/bin/bin/../../lib/gcc/pic32mx/4.8.3/../../../../pic32mx/lib/libpic32.a(sbrk.o)
 .mdebug.abi32  0x00000000        0x0 /opt/microchip/xc32/v2.41/bin/bin/../../lib/gcc/pic32mx/4.8.3/../../../../pic32mx/lib/libpic32.a(write.o)
 .mdebug.abi32  0x00000000        0x0 /opt/microchip/xc32/v2.41/bin/bin/../../lib/gcc/pic32mx/4.8.3/../../../../pic32mx/lib/libpic32.a(errno.o)
 .mdebug.abi32  0x00000000        0x0 /opt/microchip/xc32/v2.41/bin/bin/../../lib/gcc/pic32mx/4.8.3/../../../../pic32mx/lib/libpic32.a(_mon_putc.o)
 .mdebug.abi32  0x00000000        0x0 /opt/microchip/xc32/v2.41/bin/bin/../../lib/gcc/pic32mx/4.8.3/../../../../pic32mx/lib/libpic32.a(xc32_uart.o)

.mdebug.abiN32
 *(.mdebug.abiN32)

.mdebug.abi64
 *(.mdebug.abi64)

.mdebug.abiO64
 *(.mdebug.abiO64)

.mdebug.eabi32
 *(.mdebug.eabi32)

.mdebug.eabi64
 *(.mdebug.eabi64)

.gcc_compiled_long32
 *(.gcc_compiled_long32)

.gcc_compiled_long64
 *(.gcc_compiled_long64)

.stab
 *(.stab)

.stabstr
 *(.stabstr)

.stab.excl
 *(.stab.excl)

.stab.exclstr
 *(.stab.exclstr)

.stab.index
 *(.stab.index)

.stab.indexstr
 *(.stab.indexstr)

.comment        0x00000000      0x105
 *(.comment)
 .comment       0x00000000       0x3c /opt/microchip/xc32/v2.41/bin/bin/../../lib/gcc/pic32mx/4.8.3/../../../../pic32mx/lib/software-debug-break.o
                                 0x3d (size before relaxing)
 .comment       0x00000000       0x3d build/default/debug/_ext/1650642999/imu.o
 .comment       0x00000000       0x3d build/default/debug/_ext/1650642999/comms.o
 .comment       0x00000000       0x3d build/default/debug/_ext/1650642999/tof.o
 .comment       0x00000000       0x3d build/default/debug/_ext/1650642999/motors.o
 .comment       0x00000000       0x3d build/default/debug/_ext/971049567/Quaternion.o
 .comment       0x00000000       0x3d build/default/debug/_ext/971049567/Vector3D.o
 .comment       0x00000000       0x3d build/default/debug/_ext/1047219354/drv_oc_mapping.o
 .comment       0x00000000       0x3d build/default/debug/_ext/1047219354/drv_oc_static.o
 .comment       0x00000000       0x3d build/default/debug/_ext/1407244131/drv_tmr_static.o
 .comment       0x00000000       0x3d build/default/debug/_ext/1407244131/drv_tmr_mapping.o
 .comment       0x00000000       0x3d build/default/debug/_ext/327000265/drv_usart_mapping.o
 .comment       0x00000000       0x3d build/default/debug/_ext/327000265/drv_usart_static.o
 .comment       0x00000000       0x3d build/default/debug/_ext/327000265/drv_usart_static_byte_model.o
 .comment       0x00000000       0x3d build/default/debug/_ext/639803181/sys_clk_pic32mz.o
 .comment       0x00000000       0x3d build/default/debug/_ext/822048611/sys_ports_static.o
 .comment       0x00000000       0x3d build/default/debug/_ext/1688732426/system_init.o
 .comment       0x00000000       0x3d build/default/debug/_ext/1688732426/system_interrupt.o
 .comment       0x00000000       0x3d build/default/debug/_ext/1688732426/general_exception_handler.o
 .comment       0x00000000       0x3d build/default/debug/_ext/1688732426/fassert.o
 .comment       0x00000000       0x3d build/default/debug/_ext/1688732426/system_tasks.o
 .comment       0x00000000       0x3d build/default/debug/_ext/1688732426/rtos_hooks.o
 .comment       0x00000000       0x3d build/default/debug/_ext/1360937237/main.o
 .comment       0x00000000       0x3d build/default/debug/_ext/1360937237/app.o
 .comment       0x00000000       0x3d build/default/debug/_ext/1360937237/mavlink_recv_task.o
 .comment       0x00000000       0x3d build/default/debug/_ext/1360937237/mavlink_send_task.o
 .comment       0x00000000       0x3d build/default/debug/_ext/1360937237/mavlink_status_task.o
 .comment       0x00000000       0x3d build/default/debug/_ext/1360937237/att_controller_task.o
 .comment       0x00000000       0x3d build/default/debug/_ext/1353086322/osal_freertos.o
 .comment       0x00000000       0x3d build/default/debug/_ext/121284916/sys_devcon.o
 .comment       0x00000000       0x3d build/default/debug/_ext/121284916/sys_devcon_pic32mz.o
 .comment       0x00000000       0x3d build/default/debug/_ext/1317643790/sys_int_pic32.o
 .comment       0x00000000       0x3d build/default/debug/_ext/457403440/heap_1.o
 .comment       0x00000000       0x3d build/default/debug/_ext/1571139743/port.o
 .comment       0x00000000       0x3d build/default/debug/_ext/1276567923/croutine.o
 .comment       0x00000000       0x3d build/default/debug/_ext/1276567923/list.o
 .comment       0x00000000       0x3d build/default/debug/_ext/1276567923/queue.o
 .comment       0x00000000       0x3d build/default/debug/_ext/1276567923/tasks.o
 .comment       0x00000000       0x3d build/default/debug/_ext/1276567923/timers.o
 .comment       0x00000000       0x3d build/default/debug/_ext/1276567923/event_groups.o
 .comment       0x00000000       0x3d build/default/debug/_ext/443942460/PID.o
 .comment       0x00000000       0x3d build/default/debug/_ext/1035051164/SixDOFQuadcopterModel.o
 .comment       0x00000000       0x3d build/default/debug/_ext/1204493032/PositionEstimatorAltitude.o
 .comment       0x00000000       0x3d build/default/debug/_ext/1204493032/SensFusion.o
 .comment       0x00000000       0x3d build/default/debug/_ext/1204493032/ComplementaryFilter.o
 .comment       0x00000000       0x3d build/default/debug/_ext/1204493032/AttitudeController.o
 .comment       0x00000000       0x3d build/default/debug/_ext/149289479/MAVLinkSender.o
 .comment       0x00000000       0x3d build/default/debug/_ext/149289479/MAVLinkHandler.o
 .comment       0x00000000       0x3d build/default/debug/_ext/1715884449/AttitudeControllerTask.o
 .comment       0x00000000       0x3d build/default/debug/_ext/1158199258/MAVLinkSendTask.o
 .comment       0x00000000       0x3d build/default/debug/_ext/1158199258/MAVLinkRecvTask.o
 .comment       0x00000000       0x3d build/default/debug/_ext/1315301415/TOFUpdateTask.o
 .comment       0x00000000       0x3d build/default/debug/_ext/1315301415/MAVStatusTask.o
 .comment       0x00000000       0x3d build/default/debug/_ext/1315301415/IMUUpdateTask.o
 .comment       0x00000000       0x3d build/default/debug/_ext/1313821444/num.o
 .comment       0x00000000       0x3d /opt/microchip/xc32/v2.41/bin/bin/../../lib/gcc/pic32mx/4.8.3/libgcc.a(floatunsisf.o)
 .comment       0x0000003c       0x18 /opt/microchip/xc32/v2.41/bin/bin/../../lib/gcc/pic32mx/4.8.3/../../../../pic32mx/lib/libpic32.a(memcmp.o)
                                 0x19 (size before relaxing)
 .comment       0x00000054       0x18 /opt/microchip/xc32/v2.41/bin/bin/../../lib/gcc/pic32mx/4.8.3/../../../../pic32mx/lib/libpic32.a(memset.o)
                                 0x19 (size before relaxing)
 .comment       0x00000000       0x3d /opt/microchip/xc32/v2.41/bin/bin/../../lib/gcc/pic32mx/4.8.3/../../../../pic32mx/lib/libpic32.a(default-bootstrap-exception-handler.o)
 .comment       0x00000000       0x3d /opt/microchip/xc32/v2.41/bin/bin/../../lib/gcc/pic32mx/4.8.3/../../../../pic32mx/lib/libpic32.a(default-on-reset.o)
 .comment       0x00000000       0x3d /opt/microchip/xc32/v2.41/bin/bin/../../lib/gcc/pic32mx/4.8.3/../../../../pic32mx/lib/libpic32.a(default-on-bootstrap.o)
 .comment       0x00000000       0x3d /opt/microchip/xc32/v2.41/bin/bin/../../lib/gcc/pic32mx/4.8.3/../../../../pic32mx/lib/libpic32.a(defaultinterrupt.o)
 .comment       0x00000000       0x3d /opt/microchip/xc32/v2.41/bin/bin/../../lib/gcc/pic32mx/4.8.3/../../../../pic32mx/lib/libpic32.a(default-cache-err-exception-handler.o)
 .comment       0x00000000       0x3d /opt/microchip/xc32/v2.41/bin/bin/../../lib/gcc/pic32mx/4.8.3/../../../../pic32mx/lib/libpic32.a(default-simple-tlb-refill-exception-handler.o)
 .comment       0x00000000       0x3d /opt/microchip/xc32/v2.41/bin/bin/../../lib/gcc/pic32mx/4.8.3/../../../../pic32mx/lib/libc.a(malloc.o)
 .comment       0x00000000       0x3d /opt/microchip/xc32/v2.41/bin/bin/../../lib/gcc/pic32mx/4.8.3/../../../../pic32mx/lib/libc.a(puts.o)
 .comment       0x00000000       0x3d /opt/microchip/xc32/v2.41/bin/bin/../../lib/gcc/pic32mx/4.8.3/../../../../pic32mx/lib/libc.a(strcat.o)
 .comment       0x00000000       0x3d /opt/microchip/xc32/v2.41/bin/bin/../../lib/gcc/pic32mx/4.8.3/../../../../pic32mx/lib/libc.a(sprintf_cdnopuxX.eo)
 .comment       0x00000000       0x3d /opt/microchip/xc32/v2.41/bin/bin/../../lib/gcc/pic32mx/4.8.3/../../../../pic32mx/lib/libc.a(_iob.o)
 .comment       0x00000000       0x3d /opt/microchip/xc32/v2.41/bin/bin/../../lib/gcc/pic32mx/4.8.3/../../../../pic32mx/lib/libc.a(_fputc_simple.o)
 .comment       0x00000000       0x3d /opt/microchip/xc32/v2.41/bin/bin/../../lib/gcc/pic32mx/4.8.3/../../../../pic32mx/lib/libc.a(doprnt_cdnopuxX.eo)
 .comment       0x00000000       0x3d /opt/microchip/xc32/v2.41/bin/bin/../../lib/gcc/pic32mx/4.8.3/../../../../pic32mx/lib/libc.a(_flsbuf_simple.o)
 .comment       0x0000006c       0x4e /opt/microchip/xc32/v2.41/bin/bin/../../lib/gcc/pic32mx/4.8.3/../../../../pic32mx/lib/libc.a(ctype.o)
                                 0x8b (size before relaxing)
 .comment       0x00000000       0x3d /opt/microchip/xc32/v2.41/bin/bin/../../lib/gcc/pic32mx/4.8.3/../../../../pic32mx/lib/libm.a(w_asinf.o)
 .comment       0x00000000       0x3d /opt/microchip/xc32/v2.41/bin/bin/../../lib/gcc/pic32mx/4.8.3/../../../../pic32mx/lib/libm.a(w_atan2f.o)
 .comment       0x00000000       0x3d /opt/microchip/xc32/v2.41/bin/bin/../../lib/gcc/pic32mx/4.8.3/../../../../pic32mx/lib/libm.a(support.o)
 .comment       0x00000000       0x3d /opt/microchip/xc32/v2.41/bin/bin/../../lib/gcc/pic32mx/4.8.3/../../../../pic32mx/lib/libm.a(s_lib_ver.o)
 .comment       0x00000000       0x3d /opt/microchip/xc32/v2.41/bin/bin/../../lib/gcc/pic32mx/4.8.3/libgcc.a(_udivdi3.o)
 .comment       0x00000000       0x3d /opt/microchip/xc32/v2.41/bin/bin/../../lib/gcc/pic32mx/4.8.3/libgcc.a(_umoddi3.o)
 .comment       0x000000ba       0x4b /opt/microchip/xc32/v2.41/bin/bin/../../lib/gcc/pic32mx/4.8.3/../../../../pic32mx/lib/libpic32.a(sbrk.o)
                                 0x88 (size before relaxing)
 .comment       0x00000000       0x3d /opt/microchip/xc32/v2.41/bin/bin/../../lib/gcc/pic32mx/4.8.3/../../../../pic32mx/lib/libpic32.a(write.o)
 .comment       0x00000000       0x3d /opt/microchip/xc32/v2.41/bin/bin/../../lib/gcc/pic32mx/4.8.3/../../../../pic32mx/lib/libpic32.a(errno.o)
 .comment       0x00000000       0x3d /opt/microchip/xc32/v2.41/bin/bin/../../lib/gcc/pic32mx/4.8.3/../../../../pic32mx/lib/libpic32.a(_mon_putc.o)
 .comment       0x00000000       0x3d /opt/microchip/xc32/v2.41/bin/bin/../../lib/gcc/pic32mx/4.8.3/../../../../pic32mx/lib/libpic32.a(xc32_uart.o)

.debug
 *.elf(.debug)
 *(.debug)

.line
 *.elf(.line)
 *(.line)

.debug_srcinfo
 *.elf(.debug_srcinfo)
 *(.debug_srcinfo)

.debug_sfnames
 *.elf(.debug_sfnames)
 *(.debug_sfnames)

.debug_aranges  0x00000000     0x15b8
 *.elf(.debug_aranges)
 *(.debug_aranges)
 .debug_aranges
                0x00000000       0x20 /opt/microchip/xc32/v2.41/bin/bin/../../lib/gcc/pic32mx/4.8.3/../../../../pic32mx/lib/software-debug-break.o
 .debug_aranges
                0x00000020       0x50 build/default/debug/_ext/1650642999/imu.o
 .debug_aranges
                0x00000070       0x38 build/default/debug/_ext/1650642999/comms.o
 .debug_aranges
                0x000000a8       0x48 build/default/debug/_ext/1650642999/tof.o
 .debug_aranges
                0x000000f0       0x18 build/default/debug/_ext/1650642999/motors.o
 .debug_aranges
                0x00000108       0x28 build/default/debug/_ext/971049567/Quaternion.o
 .debug_aranges
                0x00000130       0x18 build/default/debug/_ext/971049567/Vector3D.o
 .debug_aranges
                0x00000148       0x50 build/default/debug/_ext/1047219354/drv_oc_mapping.o
 .debug_aranges
                0x00000198       0xf8 build/default/debug/_ext/1047219354/drv_oc_static.o
 .debug_aranges
                0x00000290       0x90 build/default/debug/_ext/1407244131/drv_tmr_static.o
 .debug_aranges
                0x00000320       0xe8 build/default/debug/_ext/1407244131/drv_tmr_mapping.o
 .debug_aranges
                0x00000408       0xb0 build/default/debug/_ext/327000265/drv_usart_mapping.o
 .debug_aranges
                0x000004b8       0xc8 build/default/debug/_ext/327000265/drv_usart_static.o
 .debug_aranges
                0x00000580       0x78 build/default/debug/_ext/327000265/drv_usart_static_byte_model.o
 .debug_aranges
                0x000005f8       0x50 build/default/debug/_ext/639803181/sys_clk_pic32mz.o
 .debug_aranges
                0x00000648      0x148 build/default/debug/_ext/822048611/sys_ports_static.o
 .debug_aranges
                0x00000790       0x20 build/default/debug/_ext/1688732426/system_init.o
 .debug_aranges
                0x000007b0       0x20 build/default/debug/_ext/1688732426/system_interrupt.o
 .debug_aranges
                0x000007d0       0x20 build/default/debug/_ext/1688732426/general_exception_handler.o
 .debug_aranges
                0x000007f0       0x20 build/default/debug/_ext/1688732426/general-exception-context.o
 .debug_aranges
                0x00000810       0x20 build/default/debug/_ext/1688732426/fassert.o
 .debug_aranges
                0x00000830       0x50 build/default/debug/_ext/1688732426/system_tasks.o
 .debug_aranges
                0x00000880       0x20 build/default/debug/_ext/1688732426/system_interrupt_a.o
 .debug_aranges
                0x000008a0       0x40 build/default/debug/_ext/1688732426/rtos_hooks.o
 .debug_aranges
                0x000008e0       0x20 build/default/debug/_ext/1360937237/main.o
 .debug_aranges
                0x00000900       0x28 build/default/debug/_ext/1360937237/app.o
 .debug_aranges
                0x00000928       0x28 build/default/debug/_ext/1360937237/mavlink_recv_task.o
 .debug_aranges
                0x00000950       0x28 build/default/debug/_ext/1360937237/mavlink_send_task.o
 .debug_aranges
                0x00000978       0x28 build/default/debug/_ext/1360937237/mavlink_status_task.o
 .debug_aranges
                0x000009a0       0x28 build/default/debug/_ext/1360937237/att_controller_task.o
 .debug_aranges
                0x000009c8       0x88 build/default/debug/_ext/1353086322/osal_freertos.o
 .debug_aranges
                0x00000a50       0x78 build/default/debug/_ext/121284916/sys_devcon.o
 .debug_aranges
                0x00000ac8       0xc8 build/default/debug/_ext/121284916/sys_devcon_pic32mz.o
 .debug_aranges
                0x00000b90       0x48 build/default/debug/_ext/1317643790/sys_int_pic32.o
 .debug_aranges
                0x00000bd8       0x38 build/default/debug/_ext/457403440/heap_1.o
 .debug_aranges
                0x00000c10       0x58 build/default/debug/_ext/1571139743/port.o
 .debug_aranges
                0x00000c68       0x30 build/default/debug/_ext/1571139743/port_asm.o
 .debug_aranges
                0x00000c98       0x18 build/default/debug/_ext/1276567923/croutine.o
 .debug_aranges
                0x00000cb0       0x40 build/default/debug/_ext/1276567923/list.o
 .debug_aranges
                0x00000cf0       0xd8 build/default/debug/_ext/1276567923/queue.o
 .debug_aranges
                0x00000dc8      0x180 build/default/debug/_ext/1276567923/tasks.o
 .debug_aranges
                0x00000f48       0x18 build/default/debug/_ext/1276567923/timers.o
 .debug_aranges
                0x00000f60       0x60 build/default/debug/_ext/1276567923/event_groups.o
 .debug_aranges
                0x00000fc0       0x20 build/default/debug/_ext/443942460/PID.o
 .debug_aranges
                0x00000fe0       0x28 build/default/debug/_ext/1035051164/SixDOFQuadcopterModel.o
 .debug_aranges
                0x00001008       0x28 build/default/debug/_ext/1204493032/PositionEstimatorAltitude.o
 .debug_aranges
                0x00001030       0x30 build/default/debug/_ext/1204493032/SensFusion.o
 .debug_aranges
                0x00001060       0x20 build/default/debug/_ext/1204493032/ComplementaryFilter.o
 .debug_aranges
                0x00001080       0x20 build/default/debug/_ext/1204493032/AttitudeController.o
 .debug_aranges
                0x000010a0       0x20 build/default/debug/_ext/149289479/MAVLinkSender.o
 .debug_aranges
                0x000010c0       0x30 build/default/debug/_ext/149289479/MAVLinkHandler.o
 .debug_aranges
                0x000010f0       0x30 build/default/debug/_ext/1715884449/AttitudeControllerTask.o
 .debug_aranges
                0x00001120       0x30 build/default/debug/_ext/1158199258/MAVLinkSendTask.o
 .debug_aranges
                0x00001150       0x30 build/default/debug/_ext/1158199258/MAVLinkRecvTask.o
 .debug_aranges
                0x00001180       0x20 build/default/debug/_ext/1315301415/TOFUpdateTask.o
 .debug_aranges
                0x000011a0       0x30 build/default/debug/_ext/1315301415/MAVStatusTask.o
 .debug_aranges
                0x000011d0       0x20 build/default/debug/_ext/1315301415/IMUUpdateTask.o
 .debug_aranges
                0x000011f0       0x28 build/default/debug/_ext/1313821444/num.o
 .debug_aranges
                0x00001218       0x50 /tmp/ccUSX7Wj.o
 .debug_aranges
                0x00001268       0x20 /opt/microchip/xc32/v2.41/bin/bin/../../lib/gcc/pic32mx/4.8.3/libgcc.a(floatunsisf.o)
 .debug_aranges
                0x00001288       0x20 /opt/microchip/xc32/v2.41/bin/bin/../../lib/gcc/pic32mx/4.8.3/../../../../pic32mx/lib/libpic32.a(default-bootstrap-exception-handler.o)
 .debug_aranges
                0x000012a8       0x20 /opt/microchip/xc32/v2.41/bin/bin/../../lib/gcc/pic32mx/4.8.3/../../../../pic32mx/lib/libpic32.a(default-on-reset.o)
 .debug_aranges
                0x000012c8       0x20 /opt/microchip/xc32/v2.41/bin/bin/../../lib/gcc/pic32mx/4.8.3/../../../../pic32mx/lib/libpic32.a(default-on-bootstrap.o)
 .debug_aranges
                0x000012e8       0x20 /opt/microchip/xc32/v2.41/bin/bin/../../lib/gcc/pic32mx/4.8.3/../../../../pic32mx/lib/libpic32.a(defaultinterrupt.o)
 .debug_aranges
                0x00001308       0x20 /opt/microchip/xc32/v2.41/bin/bin/../../lib/gcc/pic32mx/4.8.3/../../../../pic32mx/lib/libpic32.a(default-cache-err-exception-handler.o)
 .debug_aranges
                0x00001328       0x20 /opt/microchip/xc32/v2.41/bin/bin/../../lib/gcc/pic32mx/4.8.3/../../../../pic32mx/lib/libpic32.a(default-simple-tlb-refill-exception-handler.o)
 .debug_aranges
                0x00001348       0x30 /opt/microchip/xc32/v2.41/bin/bin/../../lib/gcc/pic32mx/4.8.3/../../../../pic32mx/lib/libc.a(malloc.o)
 .debug_aranges
                0x00001378       0x28 /opt/microchip/xc32/v2.41/bin/bin/../../lib/gcc/pic32mx/4.8.3/../../../../pic32mx/lib/libc.a(puts.o)
 .debug_aranges
                0x000013a0       0x20 /opt/microchip/xc32/v2.41/bin/bin/../../lib/gcc/pic32mx/4.8.3/../../../../pic32mx/lib/libc.a(strcat.o)
 .debug_aranges
                0x000013c0       0x20 /opt/microchip/xc32/v2.41/bin/bin/../../lib/gcc/pic32mx/4.8.3/../../../../pic32mx/lib/libc.a(sprintf_cdnopuxX.eo)
 .debug_aranges
                0x000013e0       0x20 /opt/microchip/xc32/v2.41/bin/bin/../../lib/gcc/pic32mx/4.8.3/../../../../pic32mx/lib/libc.a(_fputc_simple.o)
 .debug_aranges
                0x00001400       0x20 /opt/microchip/xc32/v2.41/bin/bin/../../lib/gcc/pic32mx/4.8.3/../../../../pic32mx/lib/libc.a(doprnt_cdnopuxX.eo)
 .debug_aranges
                0x00001420       0x20 /opt/microchip/xc32/v2.41/bin/bin/../../lib/gcc/pic32mx/4.8.3/../../../../pic32mx/lib/libc.a(_flsbuf_simple.o)
 .debug_aranges
                0x00001440       0x20 /opt/microchip/xc32/v2.41/bin/bin/../../lib/gcc/pic32mx/4.8.3/../../../../pic32mx/lib/libm.a(w_asinf.o)
 .debug_aranges
                0x00001460       0x20 /opt/microchip/xc32/v2.41/bin/bin/../../lib/gcc/pic32mx/4.8.3/../../../../pic32mx/lib/libm.a(w_atan2f.o)
 .debug_aranges
                0x00001480       0x78 /opt/microchip/xc32/v2.41/bin/bin/../../lib/gcc/pic32mx/4.8.3/../../../../pic32mx/lib/libm.a(support.o)
 .debug_aranges
                0x000014f8       0x20 /opt/microchip/xc32/v2.41/bin/bin/../../lib/gcc/pic32mx/4.8.3/libgcc.a(_udivdi3.o)
 .debug_aranges
                0x00001518       0x20 /opt/microchip/xc32/v2.41/bin/bin/../../lib/gcc/pic32mx/4.8.3/libgcc.a(_umoddi3.o)
 .debug_aranges
                0x00001538       0x40 /opt/microchip/xc32/v2.41/bin/bin/../../lib/gcc/pic32mx/4.8.3/../../../../pic32mx/lib/libpic32.a(sbrk.o)
 .debug_aranges
                0x00001578       0x20 /opt/microchip/xc32/v2.41/bin/bin/../../lib/gcc/pic32mx/4.8.3/../../../../pic32mx/lib/libpic32.a(write.o)
 .debug_aranges
                0x00001598       0x20 /opt/microchip/xc32/v2.41/bin/bin/../../lib/gcc/pic32mx/4.8.3/../../../../pic32mx/lib/libpic32.a(_mon_putc.o)

.debug_pubnames
 *.elf(.debug_pubnames)
 *(.debug_pubnames)

.debug_info     0x00000000    0x3ed71
 *.elf(.debug_info .gnu.linkonce.wi.*)
 *(.debug_info .gnu.linkonce.wi.*)
 .debug_info    0x00000000       0xe3 /opt/microchip/xc32/v2.41/bin/bin/../../lib/gcc/pic32mx/4.8.3/../../../../pic32mx/lib/software-debug-break.o
 .debug_info    0x000000e3      0x528 build/default/debug/_ext/1650642999/imu.o
 .debug_info    0x0000060b     0x3349 build/default/debug/_ext/1650642999/comms.o
 .debug_info    0x00003954      0x4f7 build/default/debug/_ext/1650642999/tof.o
 .debug_info    0x00003e4b      0x1d5 build/default/debug/_ext/1650642999/motors.o
 .debug_info    0x00004020      0x5a2 build/default/debug/_ext/971049567/Quaternion.o
 .debug_info    0x000045c2       0xbe build/default/debug/_ext/971049567/Vector3D.o
 .debug_info    0x00004680      0xf1c build/default/debug/_ext/1047219354/drv_oc_mapping.o
 .debug_info    0x0000559c     0x1dba build/default/debug/_ext/1047219354/drv_oc_static.o
 .debug_info    0x00007356     0x4fb9 build/default/debug/_ext/1407244131/drv_tmr_static.o
 .debug_info    0x0000c30f     0x16a9 build/default/debug/_ext/1407244131/drv_tmr_mapping.o
 .debug_info    0x0000d9b8     0x1c00 build/default/debug/_ext/327000265/drv_usart_mapping.o
 .debug_info    0x0000f5b8     0x4c62 build/default/debug/_ext/327000265/drv_usart_static.o
 .debug_info    0x0001421a     0x182a build/default/debug/_ext/327000265/drv_usart_static_byte_model.o
 .debug_info    0x00015a44     0x1cb7 build/default/debug/_ext/639803181/sys_clk_pic32mz.o
 .debug_info    0x000176fb     0x5b06 build/default/debug/_ext/822048611/sys_ports_static.o
 .debug_info    0x0001d201     0x111c build/default/debug/_ext/1688732426/system_init.o
 .debug_info    0x0001e31d     0x1be8 build/default/debug/_ext/1688732426/system_interrupt.o
 .debug_info    0x0001ff05      0xd1a build/default/debug/_ext/1688732426/general_exception_handler.o
 .debug_info    0x00020c1f       0xb3 build/default/debug/_ext/1688732426/general-exception-context.o
 .debug_info    0x00020cd2      0x877 build/default/debug/_ext/1688732426/fassert.o
 .debug_info    0x00021549      0xe2d build/default/debug/_ext/1688732426/system_tasks.o
 .debug_info    0x00022376       0xac build/default/debug/_ext/1688732426/system_interrupt_a.o
 .debug_info    0x00022422      0x35b build/default/debug/_ext/1688732426/rtos_hooks.o
 .debug_info    0x0002277d      0x1b8 build/default/debug/_ext/1360937237/main.o
 .debug_info    0x00022935      0xc73 build/default/debug/_ext/1360937237/app.o
 .debug_info    0x000235a8      0xb6d build/default/debug/_ext/1360937237/mavlink_recv_task.o
 .debug_info    0x00024115      0xb0d build/default/debug/_ext/1360937237/mavlink_send_task.o
 .debug_info    0x00024c22      0x9f2 build/default/debug/_ext/1360937237/mavlink_status_task.o
 .debug_info    0x00025614      0xb18 build/default/debug/_ext/1360937237/att_controller_task.o
 .debug_info    0x0002612c      0xa60 build/default/debug/_ext/1353086322/osal_freertos.o
 .debug_info    0x00026b8c     0x156f build/default/debug/_ext/121284916/sys_devcon.o
 .debug_info    0x000280fb     0x1297 build/default/debug/_ext/121284916/sys_devcon_pic32mz.o
 .debug_info    0x00029392     0x1d24 build/default/debug/_ext/1317643790/sys_int_pic32.o
 .debug_info    0x0002b0b6      0x3a1 build/default/debug/_ext/457403440/heap_1.o
 .debug_info    0x0002b457      0xe95 build/default/debug/_ext/1571139743/port.o
 .debug_info    0x0002c2ec       0xe0 build/default/debug/_ext/1571139743/port_asm.o
 .debug_info    0x0002c3cc      0x196 build/default/debug/_ext/1276567923/croutine.o
 .debug_info    0x0002c562      0x49e build/default/debug/_ext/1276567923/list.o
 .debug_info    0x0002ca00     0x1f69 build/default/debug/_ext/1276567923/queue.o
 .debug_info    0x0002e969     0x24cf build/default/debug/_ext/1276567923/tasks.o
 .debug_info    0x00030e38      0x194 build/default/debug/_ext/1276567923/timers.o
 .debug_info    0x00030fcc      0xd7e build/default/debug/_ext/1276567923/event_groups.o
 .debug_info    0x00031d4a      0x28a build/default/debug/_ext/443942460/PID.o
 .debug_info    0x00031fd4      0x8e7 build/default/debug/_ext/1035051164/SixDOFQuadcopterModel.o
 .debug_info    0x000328bb      0x946 build/default/debug/_ext/1204493032/PositionEstimatorAltitude.o
 .debug_info    0x00033201      0x46d build/default/debug/_ext/1204493032/SensFusion.o
 .debug_info    0x0003366e      0x68c build/default/debug/_ext/1204493032/ComplementaryFilter.o
 .debug_info    0x00033cfa      0x641 build/default/debug/_ext/1204493032/AttitudeController.o
 .debug_info    0x0003433b      0x453 build/default/debug/_ext/149289479/MAVLinkSender.o
 .debug_info    0x0003478e     0x42bf build/default/debug/_ext/149289479/MAVLinkHandler.o
 .debug_info    0x00038a4d      0x7d8 build/default/debug/_ext/1715884449/AttitudeControllerTask.o
 .debug_info    0x00039225      0x7be build/default/debug/_ext/1158199258/MAVLinkSendTask.o
 .debug_info    0x000399e3      0xba0 build/default/debug/_ext/1158199258/MAVLinkRecvTask.o
 .debug_info    0x0003a583      0x2b1 build/default/debug/_ext/1315301415/TOFUpdateTask.o
 .debug_info    0x0003a834     0x1f2c build/default/debug/_ext/1315301415/MAVStatusTask.o
 .debug_info    0x0003c760      0x2b1 build/default/debug/_ext/1315301415/IMUUpdateTask.o
 .debug_info    0x0003ca11      0x151 build/default/debug/_ext/1313821444/num.o
 .debug_info    0x0003cb62       0xcc /tmp/ccUSX7Wj.o
 .debug_info    0x0003cc2e      0x129 /opt/microchip/xc32/v2.41/bin/bin/../../lib/gcc/pic32mx/4.8.3/libgcc.a(floatunsisf.o)
 .debug_info    0x0003cd57       0xf4 /opt/microchip/xc32/v2.41/bin/bin/../../lib/gcc/pic32mx/4.8.3/../../../../pic32mx/lib/libpic32.a(default-bootstrap-exception-handler.o)
 .debug_info    0x0003ce4b       0xcd /opt/microchip/xc32/v2.41/bin/bin/../../lib/gcc/pic32mx/4.8.3/../../../../pic32mx/lib/libpic32.a(default-on-reset.o)
 .debug_info    0x0003cf18       0xd5 /opt/microchip/xc32/v2.41/bin/bin/../../lib/gcc/pic32mx/4.8.3/../../../../pic32mx/lib/libpic32.a(default-on-bootstrap.o)
 .debug_info    0x0003cfed       0xe7 /opt/microchip/xc32/v2.41/bin/bin/../../lib/gcc/pic32mx/4.8.3/../../../../pic32mx/lib/libpic32.a(defaultinterrupt.o)
 .debug_info    0x0003d0d4       0xf4 /opt/microchip/xc32/v2.41/bin/bin/../../lib/gcc/pic32mx/4.8.3/../../../../pic32mx/lib/libpic32.a(default-cache-err-exception-handler.o)
 .debug_info    0x0003d1c8      0x104 /opt/microchip/xc32/v2.41/bin/bin/../../lib/gcc/pic32mx/4.8.3/../../../../pic32mx/lib/libpic32.a(default-simple-tlb-refill-exception-handler.o)
 .debug_info    0x0003d2cc       0xf5 /opt/microchip/xc32/v2.41/bin/bin/../../lib/gcc/pic32mx/4.8.3/../../../../pic32mx/lib/libc.a(malloc.o)
 .debug_info    0x0003d3c1       0xd5 /opt/microchip/xc32/v2.41/bin/bin/../../lib/gcc/pic32mx/4.8.3/../../../../pic32mx/lib/libc.a(puts.o)
 .debug_info    0x0003d496       0xc4 /opt/microchip/xc32/v2.41/bin/bin/../../lib/gcc/pic32mx/4.8.3/../../../../pic32mx/lib/libc.a(strcat.o)
 .debug_info    0x0003d55a       0xd0 /opt/microchip/xc32/v2.41/bin/bin/../../lib/gcc/pic32mx/4.8.3/../../../../pic32mx/lib/libc.a(sprintf_cdnopuxX.eo)
 .debug_info    0x0003d62a       0xc2 /opt/microchip/xc32/v2.41/bin/bin/../../lib/gcc/pic32mx/4.8.3/../../../../pic32mx/lib/libc.a(_fputc_simple.o)
 .debug_info    0x0003d6ec       0xd1 /opt/microchip/xc32/v2.41/bin/bin/../../lib/gcc/pic32mx/4.8.3/../../../../pic32mx/lib/libc.a(doprnt_cdnopuxX.eo)
 .debug_info    0x0003d7bd       0xc5 /opt/microchip/xc32/v2.41/bin/bin/../../lib/gcc/pic32mx/4.8.3/../../../../pic32mx/lib/libc.a(_flsbuf_simple.o)
 .debug_info    0x0003d882       0xbe /opt/microchip/xc32/v2.41/bin/bin/../../lib/gcc/pic32mx/4.8.3/../../../../pic32mx/lib/libm.a(w_asinf.o)
 .debug_info    0x0003d940       0xce /opt/microchip/xc32/v2.41/bin/bin/../../lib/gcc/pic32mx/4.8.3/../../../../pic32mx/lib/libm.a(w_atan2f.o)
 .debug_info    0x0003da0e      0x1d9 /opt/microchip/xc32/v2.41/bin/bin/../../lib/gcc/pic32mx/4.8.3/../../../../pic32mx/lib/libm.a(support.o)
 .debug_info    0x0003dbe7      0x74b /opt/microchip/xc32/v2.41/bin/bin/../../lib/gcc/pic32mx/4.8.3/libgcc.a(_udivdi3.o)
 .debug_info    0x0003e332      0x788 /opt/microchip/xc32/v2.41/bin/bin/../../lib/gcc/pic32mx/4.8.3/libgcc.a(_umoddi3.o)
 .debug_info    0x0003eaba      0x131 /opt/microchip/xc32/v2.41/bin/bin/../../lib/gcc/pic32mx/4.8.3/../../../../pic32mx/lib/libpic32.a(sbrk.o)
 .debug_info    0x0003ebeb       0xbf /opt/microchip/xc32/v2.41/bin/bin/../../lib/gcc/pic32mx/4.8.3/../../../../pic32mx/lib/libpic32.a(write.o)
 .debug_info    0x0003ecaa       0xc7 /opt/microchip/xc32/v2.41/bin/bin/../../lib/gcc/pic32mx/4.8.3/../../../../pic32mx/lib/libpic32.a(_mon_putc.o)

.debug_abbrev   0x00000000     0x6464
 *.elf(.debug_abbrev)
 *(.debug_abbrev)
 .debug_abbrev  0x00000000       0x28 /opt/microchip/xc32/v2.41/bin/bin/../../lib/gcc/pic32mx/4.8.3/../../../../pic32mx/lib/software-debug-break.o
 .debug_abbrev  0x00000028      0x13b build/default/debug/_ext/1650642999/imu.o
 .debug_abbrev  0x00000163      0x423 build/default/debug/_ext/1650642999/comms.o
 .debug_abbrev  0x00000586      0x148 build/default/debug/_ext/1650642999/tof.o
 .debug_abbrev  0x000006ce       0x4e build/default/debug/_ext/1650642999/motors.o
 .debug_abbrev  0x0000071c      0x106 build/default/debug/_ext/971049567/Quaternion.o
 .debug_abbrev  0x00000822       0x1b build/default/debug/_ext/971049567/Vector3D.o
 .debug_abbrev  0x0000083d      0x1d1 build/default/debug/_ext/1047219354/drv_oc_mapping.o
 .debug_abbrev  0x00000a0e      0x1e7 build/default/debug/_ext/1047219354/drv_oc_static.o
 .debug_abbrev  0x00000bf5      0x3a0 build/default/debug/_ext/1407244131/drv_tmr_static.o
 .debug_abbrev  0x00000f95      0x322 build/default/debug/_ext/1407244131/drv_tmr_mapping.o
 .debug_abbrev  0x000012b7      0x25a build/default/debug/_ext/327000265/drv_usart_mapping.o
 .debug_abbrev  0x00001511      0x4db build/default/debug/_ext/327000265/drv_usart_static.o
 .debug_abbrev  0x000019ec      0x309 build/default/debug/_ext/327000265/drv_usart_static_byte_model.o
 .debug_abbrev  0x00001cf5      0x280 build/default/debug/_ext/639803181/sys_clk_pic32mz.o
 .debug_abbrev  0x00001f75      0x2e3 build/default/debug/_ext/822048611/sys_ports_static.o
 .debug_abbrev  0x00002258      0x1e0 build/default/debug/_ext/1688732426/system_init.o
 .debug_abbrev  0x00002438      0x146 build/default/debug/_ext/1688732426/system_interrupt.o
 .debug_abbrev  0x0000257e      0x105 build/default/debug/_ext/1688732426/general_exception_handler.o
 .debug_abbrev  0x00002683       0x14 build/default/debug/_ext/1688732426/general-exception-context.o
 .debug_abbrev  0x00002697       0xc2 build/default/debug/_ext/1688732426/fassert.o
 .debug_abbrev  0x00002759      0x188 build/default/debug/_ext/1688732426/system_tasks.o
 .debug_abbrev  0x000028e1       0x14 build/default/debug/_ext/1688732426/system_interrupt_a.o
 .debug_abbrev  0x000028f5       0xdf build/default/debug/_ext/1688732426/rtos_hooks.o
 .debug_abbrev  0x000029d4       0x93 build/default/debug/_ext/1360937237/main.o
 .debug_abbrev  0x00002a67      0x172 build/default/debug/_ext/1360937237/app.o
 .debug_abbrev  0x00002bd9      0x161 build/default/debug/_ext/1360937237/mavlink_recv_task.o
 .debug_abbrev  0x00002d3a      0x1b4 build/default/debug/_ext/1360937237/mavlink_send_task.o
 .debug_abbrev  0x00002eee      0x187 build/default/debug/_ext/1360937237/mavlink_status_task.o
 .debug_abbrev  0x00003075      0x116 build/default/debug/_ext/1360937237/att_controller_task.o
 .debug_abbrev  0x0000318b      0x1fe build/default/debug/_ext/1353086322/osal_freertos.o
 .debug_abbrev  0x00003389      0x2ef build/default/debug/_ext/121284916/sys_devcon.o
 .debug_abbrev  0x00003678      0x290 build/default/debug/_ext/121284916/sys_devcon_pic32mz.o
 .debug_abbrev  0x00003908      0x23d build/default/debug/_ext/1317643790/sys_int_pic32.o
 .debug_abbrev  0x00003b45      0x13f build/default/debug/_ext/457403440/heap_1.o
 .debug_abbrev  0x00003c84      0x27b build/default/debug/_ext/1571139743/port.o
 .debug_abbrev  0x00003eff       0x12 build/default/debug/_ext/1571139743/port_asm.o
 .debug_abbrev  0x00003f11       0x1b build/default/debug/_ext/1276567923/croutine.o
 .debug_abbrev  0x00003f2c       0xf8 build/default/debug/_ext/1276567923/list.o
 .debug_abbrev  0x00004024      0x366 build/default/debug/_ext/1276567923/queue.o
 .debug_abbrev  0x0000438a      0x323 build/default/debug/_ext/1276567923/tasks.o
 .debug_abbrev  0x000046ad       0x1b build/default/debug/_ext/1276567923/timers.o
 .debug_abbrev  0x000046c8      0x27d build/default/debug/_ext/1276567923/event_groups.o
 .debug_abbrev  0x00004945       0x9e build/default/debug/_ext/443942460/PID.o
 .debug_abbrev  0x000049e3      0x18a build/default/debug/_ext/1035051164/SixDOFQuadcopterModel.o
 .debug_abbrev  0x00004b6d      0x18e build/default/debug/_ext/1204493032/PositionEstimatorAltitude.o
 .debug_abbrev  0x00004cfb       0xe6 build/default/debug/_ext/1204493032/SensFusion.o
 .debug_abbrev  0x00004de1       0xe2 build/default/debug/_ext/1204493032/ComplementaryFilter.o
 .debug_abbrev  0x00004ec3      0x117 build/default/debug/_ext/1204493032/AttitudeController.o
 .debug_abbrev  0x00004fda      0x109 build/default/debug/_ext/149289479/MAVLinkSender.o
 .debug_abbrev  0x000050e3      0x3e2 build/default/debug/_ext/149289479/MAVLinkHandler.o
 .debug_abbrev  0x000054c5      0x181 build/default/debug/_ext/1715884449/AttitudeControllerTask.o
 .debug_abbrev  0x00005646      0x1ff build/default/debug/_ext/1158199258/MAVLinkSendTask.o
 .debug_abbrev  0x00005845      0x1ca build/default/debug/_ext/1158199258/MAVLinkRecvTask.o
 .debug_abbrev  0x00005a0f       0xe7 build/default/debug/_ext/1315301415/TOFUpdateTask.o
 .debug_abbrev  0x00005af6      0x181 build/default/debug/_ext/1315301415/MAVStatusTask.o
 .debug_abbrev  0x00005c77       0xe7 build/default/debug/_ext/1315301415/IMUUpdateTask.o
 .debug_abbrev  0x00005d5e       0x66 build/default/debug/_ext/1313821444/num.o
 .debug_abbrev  0x00005dc4       0x12 /tmp/ccUSX7Wj.o
 .debug_abbrev  0x00005dd6       0x62 /opt/microchip/xc32/v2.41/bin/bin/../../lib/gcc/pic32mx/4.8.3/libgcc.a(floatunsisf.o)
 .debug_abbrev  0x00005e38       0x28 /opt/microchip/xc32/v2.41/bin/bin/../../lib/gcc/pic32mx/4.8.3/../../../../pic32mx/lib/libpic32.a(default-bootstrap-exception-handler.o)
 .debug_abbrev  0x00005e60       0x28 /opt/microchip/xc32/v2.41/bin/bin/../../lib/gcc/pic32mx/4.8.3/../../../../pic32mx/lib/libpic32.a(default-on-reset.o)
 .debug_abbrev  0x00005e88       0x28 /opt/microchip/xc32/v2.41/bin/bin/../../lib/gcc/pic32mx/4.8.3/../../../../pic32mx/lib/libpic32.a(default-on-bootstrap.o)
 .debug_abbrev  0x00005eb0       0x28 /opt/microchip/xc32/v2.41/bin/bin/../../lib/gcc/pic32mx/4.8.3/../../../../pic32mx/lib/libpic32.a(defaultinterrupt.o)
 .debug_abbrev  0x00005ed8       0x28 /opt/microchip/xc32/v2.41/bin/bin/../../lib/gcc/pic32mx/4.8.3/../../../../pic32mx/lib/libpic32.a(default-cache-err-exception-handler.o)
 .debug_abbrev  0x00005f00       0x28 /opt/microchip/xc32/v2.41/bin/bin/../../lib/gcc/pic32mx/4.8.3/../../../../pic32mx/lib/libpic32.a(default-simple-tlb-refill-exception-handler.o)
 .debug_abbrev  0x00005f28       0x47 /opt/microchip/xc32/v2.41/bin/bin/../../lib/gcc/pic32mx/4.8.3/../../../../pic32mx/lib/libc.a(malloc.o)
 .debug_abbrev  0x00005f6f       0x28 /opt/microchip/xc32/v2.41/bin/bin/../../lib/gcc/pic32mx/4.8.3/../../../../pic32mx/lib/libc.a(puts.o)
 .debug_abbrev  0x00005f97       0x28 /opt/microchip/xc32/v2.41/bin/bin/../../lib/gcc/pic32mx/4.8.3/../../../../pic32mx/lib/libc.a(strcat.o)
 .debug_abbrev  0x00005fbf       0x28 /opt/microchip/xc32/v2.41/bin/bin/../../lib/gcc/pic32mx/4.8.3/../../../../pic32mx/lib/libc.a(sprintf_cdnopuxX.eo)
 .debug_abbrev  0x00005fe7       0x28 /opt/microchip/xc32/v2.41/bin/bin/../../lib/gcc/pic32mx/4.8.3/../../../../pic32mx/lib/libc.a(_fputc_simple.o)
 .debug_abbrev  0x0000600f       0x28 /opt/microchip/xc32/v2.41/bin/bin/../../lib/gcc/pic32mx/4.8.3/../../../../pic32mx/lib/libc.a(doprnt_cdnopuxX.eo)
 .debug_abbrev  0x00006037       0x28 /opt/microchip/xc32/v2.41/bin/bin/../../lib/gcc/pic32mx/4.8.3/../../../../pic32mx/lib/libc.a(_flsbuf_simple.o)
 .debug_abbrev  0x0000605f       0x28 /opt/microchip/xc32/v2.41/bin/bin/../../lib/gcc/pic32mx/4.8.3/../../../../pic32mx/lib/libm.a(w_asinf.o)
 .debug_abbrev  0x00006087       0x37 /opt/microchip/xc32/v2.41/bin/bin/../../lib/gcc/pic32mx/4.8.3/../../../../pic32mx/lib/libm.a(w_atan2f.o)
 .debug_abbrev  0x000060be       0x83 /opt/microchip/xc32/v2.41/bin/bin/../../lib/gcc/pic32mx/4.8.3/../../../../pic32mx/lib/libm.a(support.o)
 .debug_abbrev  0x00006141      0x138 /opt/microchip/xc32/v2.41/bin/bin/../../lib/gcc/pic32mx/4.8.3/libgcc.a(_udivdi3.o)
 .debug_abbrev  0x00006279      0x147 /opt/microchip/xc32/v2.41/bin/bin/../../lib/gcc/pic32mx/4.8.3/libgcc.a(_umoddi3.o)
 .debug_abbrev  0x000063c0       0x54 /opt/microchip/xc32/v2.41/bin/bin/../../lib/gcc/pic32mx/4.8.3/../../../../pic32mx/lib/libpic32.a(sbrk.o)
 .debug_abbrev  0x00006414       0x28 /opt/microchip/xc32/v2.41/bin/bin/../../lib/gcc/pic32mx/4.8.3/../../../../pic32mx/lib/libpic32.a(write.o)
 .debug_abbrev  0x0000643c       0x28 /opt/microchip/xc32/v2.41/bin/bin/../../lib/gcc/pic32mx/4.8.3/../../../../pic32mx/lib/libpic32.a(_mon_putc.o)

.debug_line     0x00000000     0xcd38
 *.elf(.debug_line)
 *(.debug_line)
 .debug_line    0x00000000       0x99 /opt/microchip/xc32/v2.41/bin/bin/../../lib/gcc/pic32mx/4.8.3/../../../../pic32mx/lib/software-debug-break.o
 .debug_line    0x00000099      0x29b build/default/debug/_ext/1650642999/imu.o
 .debug_line    0x00000334      0x796 build/default/debug/_ext/1650642999/comms.o
 .debug_line    0x00000aca      0x24c build/default/debug/_ext/1650642999/tof.o
 .debug_line    0x00000d16       0xd0 build/default/debug/_ext/1650642999/motors.o
 .debug_line    0x00000de6      0x246 build/default/debug/_ext/971049567/Quaternion.o
 .debug_line    0x0000102c       0x1d build/default/debug/_ext/971049567/Vector3D.o
 .debug_line    0x00001049      0x30e build/default/debug/_ext/1047219354/drv_oc_mapping.o
 .debug_line    0x00001357      0x575 build/default/debug/_ext/1047219354/drv_oc_static.o
 .debug_line    0x000018cc      0x6e8 build/default/debug/_ext/1407244131/drv_tmr_static.o
 .debug_line    0x00001fb4      0x531 build/default/debug/_ext/1407244131/drv_tmr_mapping.o
 .debug_line    0x000024e5      0x4b9 build/default/debug/_ext/327000265/drv_usart_mapping.o
 .debug_line    0x0000299e      0x9d2 build/default/debug/_ext/327000265/drv_usart_static.o
 .debug_line    0x00003370      0x4e4 build/default/debug/_ext/327000265/drv_usart_static_byte_model.o
 .debug_line    0x00003854      0x516 build/default/debug/_ext/639803181/sys_clk_pic32mz.o
 .debug_line    0x00003d6a      0x9fb build/default/debug/_ext/822048611/sys_ports_static.o
 .debug_line    0x00004765      0x5c9 build/default/debug/_ext/1688732426/system_init.o
 .debug_line    0x00004d2e      0x206 build/default/debug/_ext/1688732426/system_interrupt.o
 .debug_line    0x00004f34      0x1f9 build/default/debug/_ext/1688732426/general_exception_handler.o
 .debug_line    0x0000512d       0xac build/default/debug/_ext/1688732426/general-exception-context.o
 .debug_line    0x000051d9      0x16a build/default/debug/_ext/1688732426/fassert.o
 .debug_line    0x00005343      0x431 build/default/debug/_ext/1688732426/system_tasks.o
 .debug_line    0x00005774       0xf9 build/default/debug/_ext/1688732426/system_interrupt_a.o
 .debug_line    0x0000586d      0x1e0 build/default/debug/_ext/1688732426/rtos_hooks.o
 .debug_line    0x00005a4d       0xc4 build/default/debug/_ext/1360937237/main.o
 .debug_line    0x00005b11      0x2f1 build/default/debug/_ext/1360937237/app.o
 .debug_line    0x00005e02      0x27a build/default/debug/_ext/1360937237/mavlink_recv_task.o
 .debug_line    0x0000607c      0x35e build/default/debug/_ext/1360937237/mavlink_send_task.o
 .debug_line    0x000063da      0x23a build/default/debug/_ext/1360937237/mavlink_status_task.o
 .debug_line    0x00006614      0x204 build/default/debug/_ext/1360937237/att_controller_task.o
 .debug_line    0x00006818      0x2f4 build/default/debug/_ext/1353086322/osal_freertos.o
 .debug_line    0x00006b0c      0x62b build/default/debug/_ext/121284916/sys_devcon.o
 .debug_line    0x00007137      0x577 build/default/debug/_ext/121284916/sys_devcon_pic32mz.o
 .debug_line    0x000076ae      0x2f5 build/default/debug/_ext/1317643790/sys_int_pic32.o
 .debug_line    0x000079a3      0x20d build/default/debug/_ext/457403440/heap_1.o
 .debug_line    0x00007bb0      0x24c build/default/debug/_ext/1571139743/port.o
 .debug_line    0x00007dfc      0x18e build/default/debug/_ext/1571139743/port_asm.o
 .debug_line    0x00007f8a       0x1d build/default/debug/_ext/1276567923/croutine.o
 .debug_line    0x00007fa7      0x1e4 build/default/debug/_ext/1276567923/list.o
 .debug_line    0x0000818b      0x55d build/default/debug/_ext/1276567923/queue.o
 .debug_line    0x000086e8      0x749 build/default/debug/_ext/1276567923/tasks.o
 .debug_line    0x00008e31       0x1d build/default/debug/_ext/1276567923/timers.o
 .debug_line    0x00008e4e      0x31a build/default/debug/_ext/1276567923/event_groups.o
 .debug_line    0x00009168       0xa8 build/default/debug/_ext/443942460/PID.o
 .debug_line    0x00009210      0x156 build/default/debug/_ext/1035051164/SixDOFQuadcopterModel.o
 .debug_line    0x00009366      0x43c build/default/debug/_ext/1204493032/PositionEstimatorAltitude.o
 .debug_line    0x000097a2      0x26d build/default/debug/_ext/1204493032/SensFusion.o
 .debug_line    0x00009a0f      0x354 build/default/debug/_ext/1204493032/ComplementaryFilter.o
 .debug_line    0x00009d63      0x350 build/default/debug/_ext/1204493032/AttitudeController.o
 .debug_line    0x0000a0b3      0x225 build/default/debug/_ext/149289479/MAVLinkSender.o
 .debug_line    0x0000a2d8      0x84c build/default/debug/_ext/149289479/MAVLinkHandler.o
 .debug_line    0x0000ab24      0x46f build/default/debug/_ext/1715884449/AttitudeControllerTask.o
 .debug_line    0x0000af93      0x38b build/default/debug/_ext/1158199258/MAVLinkSendTask.o
 .debug_line    0x0000b31e      0x362 build/default/debug/_ext/1158199258/MAVLinkRecvTask.o
 .debug_line    0x0000b680      0x26b build/default/debug/_ext/1315301415/TOFUpdateTask.o
 .debug_line    0x0000b8eb      0x2d5 build/default/debug/_ext/1315301415/MAVStatusTask.o
 .debug_line    0x0000bbc0      0x26b build/default/debug/_ext/1315301415/IMUUpdateTask.o
 .debug_line    0x0000be2b       0xa9 build/default/debug/_ext/1313821444/num.o
 .debug_line    0x0000bed4      0x168 /tmp/ccUSX7Wj.o
 .debug_line    0x0000c03c       0x94 /opt/microchip/xc32/v2.41/bin/bin/../../lib/gcc/pic32mx/4.8.3/libgcc.a(floatunsisf.o)
 .debug_line    0x0000c0d0       0xa6 /opt/microchip/xc32/v2.41/bin/bin/../../lib/gcc/pic32mx/4.8.3/../../../../pic32mx/lib/libpic32.a(default-bootstrap-exception-handler.o)
 .debug_line    0x0000c176       0x93 /opt/microchip/xc32/v2.41/bin/bin/../../lib/gcc/pic32mx/4.8.3/../../../../pic32mx/lib/libpic32.a(default-on-reset.o)
 .debug_line    0x0000c209       0x97 /opt/microchip/xc32/v2.41/bin/bin/../../lib/gcc/pic32mx/4.8.3/../../../../pic32mx/lib/libpic32.a(default-on-bootstrap.o)
 .debug_line    0x0000c2a0       0xa5 /opt/microchip/xc32/v2.41/bin/bin/../../lib/gcc/pic32mx/4.8.3/../../../../pic32mx/lib/libpic32.a(defaultinterrupt.o)
 .debug_line    0x0000c345       0xa6 /opt/microchip/xc32/v2.41/bin/bin/../../lib/gcc/pic32mx/4.8.3/../../../../pic32mx/lib/libpic32.a(default-cache-err-exception-handler.o)
 .debug_line    0x0000c3eb       0xae /opt/microchip/xc32/v2.41/bin/bin/../../lib/gcc/pic32mx/4.8.3/../../../../pic32mx/lib/libpic32.a(default-simple-tlb-refill-exception-handler.o)
 .debug_line    0x0000c499       0x7e /opt/microchip/xc32/v2.41/bin/bin/../../lib/gcc/pic32mx/4.8.3/../../../../pic32mx/lib/libc.a(malloc.o)
 .debug_line    0x0000c517       0x7c /opt/microchip/xc32/v2.41/bin/bin/../../lib/gcc/pic32mx/4.8.3/../../../../pic32mx/lib/libc.a(puts.o)
 .debug_line    0x0000c593       0x7e /opt/microchip/xc32/v2.41/bin/bin/../../lib/gcc/pic32mx/4.8.3/../../../../pic32mx/lib/libc.a(strcat.o)
 .debug_line    0x0000c611       0x7f /opt/microchip/xc32/v2.41/bin/bin/../../lib/gcc/pic32mx/4.8.3/../../../../pic32mx/lib/libc.a(sprintf_cdnopuxX.eo)
 .debug_line    0x0000c690        0x0 /opt/microchip/xc32/v2.41/bin/bin/../../lib/gcc/pic32mx/4.8.3/../../../../pic32mx/lib/libc.a(_iob.o)
 .debug_line    0x0000c690       0x7d /opt/microchip/xc32/v2.41/bin/bin/../../lib/gcc/pic32mx/4.8.3/../../../../pic32mx/lib/libc.a(_fputc_simple.o)
 .debug_line    0x0000c70d       0x7e /opt/microchip/xc32/v2.41/bin/bin/../../lib/gcc/pic32mx/4.8.3/../../../../pic32mx/lib/libc.a(doprnt_cdnopuxX.eo)
 .debug_line    0x0000c78b       0x7e /opt/microchip/xc32/v2.41/bin/bin/../../lib/gcc/pic32mx/4.8.3/../../../../pic32mx/lib/libc.a(_flsbuf_simple.o)
 .debug_line    0x0000c809        0x0 /opt/microchip/xc32/v2.41/bin/bin/../../lib/gcc/pic32mx/4.8.3/../../../../pic32mx/lib/libc.a(ctype.o)
 .debug_line    0x0000c809       0x87 /opt/microchip/xc32/v2.41/bin/bin/../../lib/gcc/pic32mx/4.8.3/../../../../pic32mx/lib/libm.a(w_asinf.o)
 .debug_line    0x0000c890       0x88 /opt/microchip/xc32/v2.41/bin/bin/../../lib/gcc/pic32mx/4.8.3/../../../../pic32mx/lib/libm.a(w_atan2f.o)
 .debug_line    0x0000c918       0x85 /opt/microchip/xc32/v2.41/bin/bin/../../lib/gcc/pic32mx/4.8.3/../../../../pic32mx/lib/libm.a(support.o)
 .debug_line    0x0000c99d        0x0 /opt/microchip/xc32/v2.41/bin/bin/../../lib/gcc/pic32mx/4.8.3/../../../../pic32mx/lib/libm.a(s_lib_ver.o)
 .debug_line    0x0000c99d       0xf7 /opt/microchip/xc32/v2.41/bin/bin/../../lib/gcc/pic32mx/4.8.3/libgcc.a(_udivdi3.o)
 .debug_line    0x0000ca94      0x109 /opt/microchip/xc32/v2.41/bin/bin/../../lib/gcc/pic32mx/4.8.3/libgcc.a(_umoddi3.o)
 .debug_line    0x0000cb9d       0x87 /opt/microchip/xc32/v2.41/bin/bin/../../lib/gcc/pic32mx/4.8.3/../../../../pic32mx/lib/libpic32.a(sbrk.o)
 .debug_line    0x0000cc24       0x88 /opt/microchip/xc32/v2.41/bin/bin/../../lib/gcc/pic32mx/4.8.3/../../../../pic32mx/lib/libpic32.a(write.o)
 .debug_line    0x0000ccac        0x0 /opt/microchip/xc32/v2.41/bin/bin/../../lib/gcc/pic32mx/4.8.3/../../../../pic32mx/lib/libpic32.a(errno.o)
 .debug_line    0x0000ccac       0x8c /opt/microchip/xc32/v2.41/bin/bin/../../lib/gcc/pic32mx/4.8.3/../../../../pic32mx/lib/libpic32.a(_mon_putc.o)
 .debug_line    0x0000cd38        0x0 /opt/microchip/xc32/v2.41/bin/bin/../../lib/gcc/pic32mx/4.8.3/../../../../pic32mx/lib/libpic32.a(xc32_uart.o)

.debug_frame    0x00000000     0x2e3c
 *.elf(.debug_frame)
 *(.debug_frame)
 .debug_frame   0x00000000       0x20 /opt/microchip/xc32/v2.41/bin/bin/../../lib/gcc/pic32mx/4.8.3/../../../../pic32mx/lib/software-debug-break.o
 .debug_frame   0x00000020       0x98 build/default/debug/_ext/1650642999/imu.o
 .debug_frame   0x000000b8       0x90 build/default/debug/_ext/1650642999/comms.o
 .debug_frame   0x00000148       0x80 build/default/debug/_ext/1650642999/tof.o
 .debug_frame   0x000001c8       0x6c build/default/debug/_ext/971049567/Quaternion.o
 .debug_frame   0x00000234       0xbc build/default/debug/_ext/1047219354/drv_oc_mapping.o
 .debug_frame   0x000002f0      0x1d0 build/default/debug/_ext/1047219354/drv_oc_static.o
 .debug_frame   0x000004c0      0x10c build/default/debug/_ext/1407244131/drv_tmr_static.o
 .debug_frame   0x000005cc      0x28c build/default/debug/_ext/1407244131/drv_tmr_mapping.o
 .debug_frame   0x00000858      0x200 build/default/debug/_ext/327000265/drv_usart_mapping.o
 .debug_frame   0x00000a58      0x1e0 build/default/debug/_ext/327000265/drv_usart_static.o
 .debug_frame   0x00000c38      0x100 build/default/debug/_ext/327000265/drv_usart_static_byte_model.o
 .debug_frame   0x00000d38       0xa4 build/default/debug/_ext/639803181/sys_clk_pic32mz.o
 .debug_frame   0x00000ddc      0x27c build/default/debug/_ext/822048611/sys_ports_static.o
 .debug_frame   0x00001058       0x2c build/default/debug/_ext/1688732426/system_init.o
 .debug_frame   0x00001084       0x20 build/default/debug/_ext/1688732426/system_interrupt.o
 .debug_frame   0x000010a4       0x28 build/default/debug/_ext/1688732426/general_exception_handler.o
 .debug_frame   0x000010cc       0x20 build/default/debug/_ext/1688732426/fassert.o
 .debug_frame   0x000010ec       0xc0 build/default/debug/_ext/1688732426/system_tasks.o
 .debug_frame   0x000011ac       0x7c build/default/debug/_ext/1688732426/rtos_hooks.o
 .debug_frame   0x00001228       0x28 build/default/debug/_ext/1360937237/main.o
 .debug_frame   0x00001250       0x3c build/default/debug/_ext/1360937237/app.o
 .debug_frame   0x0000128c       0x3c build/default/debug/_ext/1360937237/mavlink_recv_task.o
 .debug_frame   0x000012c8       0x48 build/default/debug/_ext/1360937237/mavlink_send_task.o
 .debug_frame   0x00001310       0x3c build/default/debug/_ext/1360937237/mavlink_status_task.o
 .debug_frame   0x0000134c       0x30 build/default/debug/_ext/1360937237/att_controller_task.o
 .debug_frame   0x0000137c      0x180 build/default/debug/_ext/1353086322/osal_freertos.o
 .debug_frame   0x000014fc       0xf4 build/default/debug/_ext/121284916/sys_devcon.o
 .debug_frame   0x000015f0      0x278 build/default/debug/_ext/121284916/sys_devcon_pic32mz.o
 .debug_frame   0x00001868       0xa0 build/default/debug/_ext/1317643790/sys_int_pic32.o
 .debug_frame   0x00001908       0x60 build/default/debug/_ext/457403440/heap_1.o
 .debug_frame   0x00001968       0xd0 build/default/debug/_ext/1571139743/port.o
 .debug_frame   0x00001a38       0x60 build/default/debug/_ext/1276567923/list.o
 .debug_frame   0x00001a98      0x304 build/default/debug/_ext/1276567923/queue.o
 .debug_frame   0x00001d9c      0x4e0 build/default/debug/_ext/1276567923/tasks.o
 .debug_frame   0x0000227c      0x130 build/default/debug/_ext/1276567923/event_groups.o
 .debug_frame   0x000023ac       0x34 build/default/debug/_ext/443942460/PID.o
 .debug_frame   0x000023e0       0x50 build/default/debug/_ext/1035051164/SixDOFQuadcopterModel.o
 .debug_frame   0x00002430       0x5c build/default/debug/_ext/1204493032/PositionEstimatorAltitude.o
 .debug_frame   0x0000248c       0x74 build/default/debug/_ext/1204493032/SensFusion.o
 .debug_frame   0x00002500       0x30 build/default/debug/_ext/1204493032/ComplementaryFilter.o
 .debug_frame   0x00002530       0x38 build/default/debug/_ext/1204493032/AttitudeController.o
 .debug_frame   0x00002568       0x2c build/default/debug/_ext/149289479/MAVLinkSender.o
 .debug_frame   0x00002594       0x8c build/default/debug/_ext/149289479/MAVLinkHandler.o
 .debug_frame   0x00002620       0x5c build/default/debug/_ext/1715884449/AttitudeControllerTask.o
 .debug_frame   0x0000267c       0x68 build/default/debug/_ext/1158199258/MAVLinkSendTask.o
 .debug_frame   0x000026e4       0x60 build/default/debug/_ext/1158199258/MAVLinkRecvTask.o
 .debug_frame   0x00002744       0x28 build/default/debug/_ext/1315301415/TOFUpdateTask.o
 .debug_frame   0x0000276c       0x48 build/default/debug/_ext/1315301415/MAVStatusTask.o
 .debug_frame   0x000027b4       0x28 build/default/debug/_ext/1315301415/IMUUpdateTask.o
 .debug_frame   0x000027dc       0x50 build/default/debug/_ext/1313821444/num.o
 .debug_frame   0x0000282c       0x30 /opt/microchip/xc32/v2.41/bin/bin/../../lib/gcc/pic32mx/4.8.3/libgcc.a(floatunsisf.o)
 .debug_frame   0x0000285c       0x2c /opt/microchip/xc32/v2.41/bin/bin/../../lib/gcc/pic32mx/4.8.3/../../../../pic32mx/lib/libpic32.a(default-bootstrap-exception-handler.o)
 .debug_frame   0x00002888       0x20 /opt/microchip/xc32/v2.41/bin/bin/../../lib/gcc/pic32mx/4.8.3/../../../../pic32mx/lib/libpic32.a(default-on-reset.o)
 .debug_frame   0x000028a8       0x20 /opt/microchip/xc32/v2.41/bin/bin/../../lib/gcc/pic32mx/4.8.3/../../../../pic32mx/lib/libpic32.a(default-on-bootstrap.o)
 .debug_frame   0x000028c8       0x20 /opt/microchip/xc32/v2.41/bin/bin/../../lib/gcc/pic32mx/4.8.3/../../../../pic32mx/lib/libpic32.a(defaultinterrupt.o)
 .debug_frame   0x000028e8       0x2c /opt/microchip/xc32/v2.41/bin/bin/../../lib/gcc/pic32mx/4.8.3/../../../../pic32mx/lib/libpic32.a(default-cache-err-exception-handler.o)
 .debug_frame   0x00002914       0x2c /opt/microchip/xc32/v2.41/bin/bin/../../lib/gcc/pic32mx/4.8.3/../../../../pic32mx/lib/libpic32.a(default-simple-tlb-refill-exception-handler.o)
 .debug_frame   0x00002940       0x7c /opt/microchip/xc32/v2.41/bin/bin/../../lib/gcc/pic32mx/4.8.3/../../../../pic32mx/lib/libc.a(malloc.o)
 .debug_frame   0x000029bc       0x50 /opt/microchip/xc32/v2.41/bin/bin/../../lib/gcc/pic32mx/4.8.3/../../../../pic32mx/lib/libc.a(puts.o)
 .debug_frame   0x00002a0c       0x20 /opt/microchip/xc32/v2.41/bin/bin/../../lib/gcc/pic32mx/4.8.3/../../../../pic32mx/lib/libc.a(strcat.o)
 .debug_frame   0x00002a2c       0x2c /opt/microchip/xc32/v2.41/bin/bin/../../lib/gcc/pic32mx/4.8.3/../../../../pic32mx/lib/libc.a(sprintf_cdnopuxX.eo)
 .debug_frame   0x00002a58       0x30 /opt/microchip/xc32/v2.41/bin/bin/../../lib/gcc/pic32mx/4.8.3/../../../../pic32mx/lib/libc.a(_fputc_simple.o)
 .debug_frame   0x00002a88       0x40 /opt/microchip/xc32/v2.41/bin/bin/../../lib/gcc/pic32mx/4.8.3/../../../../pic32mx/lib/libc.a(doprnt_cdnopuxX.eo)
 .debug_frame   0x00002ac8       0x38 /opt/microchip/xc32/v2.41/bin/bin/../../lib/gcc/pic32mx/4.8.3/../../../../pic32mx/lib/libc.a(_flsbuf_simple.o)
 .debug_frame   0x00002b00       0x34 /opt/microchip/xc32/v2.41/bin/bin/../../lib/gcc/pic32mx/4.8.3/../../../../pic32mx/lib/libm.a(w_asinf.o)
 .debug_frame   0x00002b34       0x44 /opt/microchip/xc32/v2.41/bin/bin/../../lib/gcc/pic32mx/4.8.3/../../../../pic32mx/lib/libm.a(w_atan2f.o)
 .debug_frame   0x00002b78      0x17c /opt/microchip/xc32/v2.41/bin/bin/../../lib/gcc/pic32mx/4.8.3/../../../../pic32mx/lib/libm.a(support.o)
 .debug_frame   0x00002cf4       0x20 /opt/microchip/xc32/v2.41/bin/bin/../../lib/gcc/pic32mx/4.8.3/libgcc.a(_udivdi3.o)
 .debug_frame   0x00002d14       0x20 /opt/microchip/xc32/v2.41/bin/bin/../../lib/gcc/pic32mx/4.8.3/libgcc.a(_umoddi3.o)
 .debug_frame   0x00002d34       0xa4 /opt/microchip/xc32/v2.41/bin/bin/../../lib/gcc/pic32mx/4.8.3/../../../../pic32mx/lib/libpic32.a(sbrk.o)
 .debug_frame   0x00002dd8       0x38 /opt/microchip/xc32/v2.41/bin/bin/../../lib/gcc/pic32mx/4.8.3/../../../../pic32mx/lib/libpic32.a(write.o)
 .debug_frame   0x00002e10       0x2c /opt/microchip/xc32/v2.41/bin/bin/../../lib/gcc/pic32mx/4.8.3/../../../../pic32mx/lib/libpic32.a(_mon_putc.o)

.debug_str      0x00000000      0x9b2
 *.elf(.debug_str)
 *(.debug_str)
 .debug_str     0x00000000        0x0 /opt/microchip/xc32/v2.41/bin/bin/../../lib/gcc/pic32mx/4.8.3/../../../../pic32mx/lib/software-debug-break.o
 .debug_str     0x00000000        0x0 build/default/debug/_ext/1650642999/imu.o
 .debug_str     0x00000000       0xdc build/default/debug/_ext/1650642999/comms.o
 .debug_str     0x000000dc        0x0 build/default/debug/_ext/1650642999/tof.o
 .debug_str     0x000000dc        0x0 build/default/debug/_ext/1650642999/motors.o
 .debug_str     0x000000dc        0x0 build/default/debug/_ext/971049567/Quaternion.o
 .debug_str     0x000000dc        0x0 build/default/debug/_ext/971049567/Vector3D.o
 .debug_str     0x000000dc       0x13 build/default/debug/_ext/1047219354/drv_oc_mapping.o
 .debug_str     0x000000ef       0x1f build/default/debug/_ext/1047219354/drv_oc_static.o
 .debug_str     0x0000010e       0x68 build/default/debug/_ext/1407244131/drv_tmr_static.o
 .debug_str     0x00000176        0xe build/default/debug/_ext/1407244131/drv_tmr_mapping.o
 .debug_str     0x00000184       0x23 build/default/debug/_ext/327000265/drv_usart_mapping.o
 .debug_str     0x000001a7      0x10d build/default/debug/_ext/327000265/drv_usart_static.o
 .debug_str     0x000002b4       0x22 build/default/debug/_ext/327000265/drv_usart_static_byte_model.o
 .debug_str     0x000002d6       0x46 build/default/debug/_ext/639803181/sys_clk_pic32mz.o
 .debug_str     0x0000031c       0xa1 build/default/debug/_ext/822048611/sys_ports_static.o
 .debug_str     0x000003bd        0xb build/default/debug/_ext/1688732426/system_init.o
 .debug_str     0x000003c8        0x0 build/default/debug/_ext/1688732426/system_interrupt.o
 .debug_str     0x000003c8        0x0 build/default/debug/_ext/1688732426/general_exception_handler.o
 .debug_str     0x000003c8        0x0 build/default/debug/_ext/1688732426/fassert.o
 .debug_str     0x000003c8        0x0 build/default/debug/_ext/1688732426/system_tasks.o
 .debug_str     0x000003c8        0x9 build/default/debug/_ext/1688732426/rtos_hooks.o
 .debug_str     0x000003d1        0x0 build/default/debug/_ext/1360937237/main.o
 .debug_str     0x000003d1        0x0 build/default/debug/_ext/1360937237/app.o
 .debug_str     0x000003d1        0x0 build/default/debug/_ext/1360937237/mavlink_recv_task.o
 .debug_str     0x000003d1       0x24 build/default/debug/_ext/1360937237/mavlink_send_task.o
 .debug_str     0x000003f5        0x0 build/default/debug/_ext/1360937237/mavlink_status_task.o
 .debug_str     0x000003f5        0x0 build/default/debug/_ext/1360937237/att_controller_task.o
 .debug_str     0x000003f5       0x40 build/default/debug/_ext/1353086322/osal_freertos.o
 .debug_str     0x00000435       0x16 build/default/debug/_ext/121284916/sys_devcon.o
 .debug_str     0x0000044b       0x1a build/default/debug/_ext/121284916/sys_devcon_pic32mz.o
 .debug_str     0x00000465       0x1d build/default/debug/_ext/1317643790/sys_int_pic32.o
 .debug_str     0x00000482       0x1d build/default/debug/_ext/457403440/heap_1.o
 .debug_str     0x0000049f       0x37 build/default/debug/_ext/1571139743/port.o
 .debug_str     0x000004d6        0x0 build/default/debug/_ext/1276567923/croutine.o
 .debug_str     0x000004d6       0x2b build/default/debug/_ext/1276567923/list.o
 .debug_str     0x00000501      0x131 build/default/debug/_ext/1276567923/queue.o
 .debug_str     0x00000632      0x156 build/default/debug/_ext/1276567923/tasks.o
 .debug_str     0x00000788        0x0 build/default/debug/_ext/1276567923/timers.o
 .debug_str     0x00000788       0xe6 build/default/debug/_ext/1276567923/event_groups.o
 .debug_str     0x0000086e        0x0 build/default/debug/_ext/443942460/PID.o
 .debug_str     0x0000086e        0x0 build/default/debug/_ext/1035051164/SixDOFQuadcopterModel.o
 .debug_str     0x0000086e        0x9 build/default/debug/_ext/1204493032/PositionEstimatorAltitude.o
 .debug_str     0x00000877        0x8 build/default/debug/_ext/1204493032/SensFusion.o
 .debug_str     0x0000087f        0x0 build/default/debug/_ext/1204493032/ComplementaryFilter.o
 .debug_str     0x0000087f        0xa build/default/debug/_ext/1204493032/AttitudeController.o
 .debug_str     0x00000889       0x13 build/default/debug/_ext/149289479/MAVLinkSender.o
 .debug_str     0x0000089c       0xcf build/default/debug/_ext/149289479/MAVLinkHandler.o
 .debug_str     0x0000096b       0x17 build/default/debug/_ext/1715884449/AttitudeControllerTask.o
 .debug_str     0x00000982        0xd build/default/debug/_ext/1158199258/MAVLinkSendTask.o
 .debug_str     0x0000098f       0x16 build/default/debug/_ext/1158199258/MAVLinkRecvTask.o
 .debug_str     0x000009a5        0x0 build/default/debug/_ext/1315301415/TOFUpdateTask.o
 .debug_str     0x000009a5        0xd build/default/debug/_ext/1315301415/MAVStatusTask.o
 .debug_str     0x000009b2        0x0 build/default/debug/_ext/1315301415/IMUUpdateTask.o
 .debug_str     0x000009b2        0x0 build/default/debug/_ext/1313821444/num.o
 .debug_str     0x000009b2        0x0 /opt/microchip/xc32/v2.41/bin/bin/../../lib/gcc/pic32mx/4.8.3/libgcc.a(floatunsisf.o)
 .debug_str     0x000009b2        0x0 /opt/microchip/xc32/v2.41/bin/bin/../../lib/gcc/pic32mx/4.8.3/../../../../pic32mx/lib/libpic32.a(default-bootstrap-exception-handler.o)
 .debug_str     0x000009b2        0x0 /opt/microchip/xc32/v2.41/bin/bin/../../lib/gcc/pic32mx/4.8.3/../../../../pic32mx/lib/libpic32.a(default-on-reset.o)
 .debug_str     0x000009b2        0x0 /opt/microchip/xc32/v2.41/bin/bin/../../lib/gcc/pic32mx/4.8.3/../../../../pic32mx/lib/libpic32.a(default-on-bootstrap.o)
 .debug_str     0x000009b2        0x0 /opt/microchip/xc32/v2.41/bin/bin/../../lib/gcc/pic32mx/4.8.3/../../../../pic32mx/lib/libpic32.a(defaultinterrupt.o)
 .debug_str     0x000009b2        0x0 /opt/microchip/xc32/v2.41/bin/bin/../../lib/gcc/pic32mx/4.8.3/../../../../pic32mx/lib/libpic32.a(default-cache-err-exception-handler.o)
 .debug_str     0x000009b2        0x0 /opt/microchip/xc32/v2.41/bin/bin/../../lib/gcc/pic32mx/4.8.3/../../../../pic32mx/lib/libpic32.a(default-simple-tlb-refill-exception-handler.o)
 .debug_str     0x000009b2        0x0 /opt/microchip/xc32/v2.41/bin/bin/../../lib/gcc/pic32mx/4.8.3/../../../../pic32mx/lib/libc.a(malloc.o)
 .debug_str     0x000009b2        0x0 /opt/microchip/xc32/v2.41/bin/bin/../../lib/gcc/pic32mx/4.8.3/../../../../pic32mx/lib/libc.a(puts.o)
 .debug_str     0x000009b2        0x0 /opt/microchip/xc32/v2.41/bin/bin/../../lib/gcc/pic32mx/4.8.3/../../../../pic32mx/lib/libc.a(strcat.o)
 .debug_str     0x000009b2        0x0 /opt/microchip/xc32/v2.41/bin/bin/../../lib/gcc/pic32mx/4.8.3/../../../../pic32mx/lib/libc.a(sprintf_cdnopuxX.eo)
 .debug_str     0x000009b2        0x0 /opt/microchip/xc32/v2.41/bin/bin/../../lib/gcc/pic32mx/4.8.3/../../../../pic32mx/lib/libc.a(_iob.o)
 .debug_str     0x000009b2        0x0 /opt/microchip/xc32/v2.41/bin/bin/../../lib/gcc/pic32mx/4.8.3/../../../../pic32mx/lib/libc.a(_fputc_simple.o)
 .debug_str     0x000009b2        0x0 /opt/microchip/xc32/v2.41/bin/bin/../../lib/gcc/pic32mx/4.8.3/../../../../pic32mx/lib/libc.a(doprnt_cdnopuxX.eo)
 .debug_str     0x000009b2        0x0 /opt/microchip/xc32/v2.41/bin/bin/../../lib/gcc/pic32mx/4.8.3/../../../../pic32mx/lib/libc.a(_flsbuf_simple.o)
 .debug_str     0x000009b2        0x0 /opt/microchip/xc32/v2.41/bin/bin/../../lib/gcc/pic32mx/4.8.3/../../../../pic32mx/lib/libc.a(ctype.o)
 .debug_str     0x000009b2        0x0 /opt/microchip/xc32/v2.41/bin/bin/../../lib/gcc/pic32mx/4.8.3/../../../../pic32mx/lib/libm.a(w_asinf.o)
 .debug_str     0x000009b2        0x0 /opt/microchip/xc32/v2.41/bin/bin/../../lib/gcc/pic32mx/4.8.3/../../../../pic32mx/lib/libm.a(w_atan2f.o)
 .debug_str     0x000009b2        0x0 /opt/microchip/xc32/v2.41/bin/bin/../../lib/gcc/pic32mx/4.8.3/../../../../pic32mx/lib/libm.a(support.o)
 .debug_str     0x000009b2        0x0 /opt/microchip/xc32/v2.41/bin/bin/../../lib/gcc/pic32mx/4.8.3/../../../../pic32mx/lib/libm.a(s_lib_ver.o)
 .debug_str     0x000009b2        0x0 /opt/microchip/xc32/v2.41/bin/bin/../../lib/gcc/pic32mx/4.8.3/libgcc.a(_udivdi3.o)
 .debug_str     0x000009b2        0x0 /opt/microchip/xc32/v2.41/bin/bin/../../lib/gcc/pic32mx/4.8.3/libgcc.a(_umoddi3.o)
 .debug_str     0x000009b2        0x0 /opt/microchip/xc32/v2.41/bin/bin/../../lib/gcc/pic32mx/4.8.3/../../../../pic32mx/lib/libpic32.a(sbrk.o)
 .debug_str     0x000009b2        0x0 /opt/microchip/xc32/v2.41/bin/bin/../../lib/gcc/pic32mx/4.8.3/../../../../pic32mx/lib/libpic32.a(write.o)
 .debug_str     0x000009b2        0x0 /opt/microchip/xc32/v2.41/bin/bin/../../lib/gcc/pic32mx/4.8.3/../../../../pic32mx/lib/libpic32.a(errno.o)
 .debug_str     0x000009b2        0x0 /opt/microchip/xc32/v2.41/bin/bin/../../lib/gcc/pic32mx/4.8.3/../../../../pic32mx/lib/libpic32.a(_mon_putc.o)
 .debug_str     0x000009b2        0x0 /opt/microchip/xc32/v2.41/bin/bin/../../lib/gcc/pic32mx/4.8.3/../../../../pic32mx/lib/libpic32.a(xc32_uart.o)

.debug_loc      0x00000000    0x1149a
 *.elf(.debug_loc)
 *(.debug_loc)
 .debug_loc     0x00000000       0xfd build/default/debug/_ext/1650642999/imu.o
 .debug_loc     0x000000fd     0x26c1 build/default/debug/_ext/1650642999/comms.o
 .debug_loc     0x000027be       0xcc build/default/debug/_ext/1650642999/tof.o
 .debug_loc     0x0000288a      0x3cd build/default/debug/_ext/971049567/Quaternion.o
 .debug_loc     0x00002c57      0x52b build/default/debug/_ext/1047219354/drv_oc_mapping.o
 .debug_loc     0x00003182       0x84 build/default/debug/_ext/1047219354/drv_oc_static.o
 .debug_loc     0x00003206      0x2eb build/default/debug/_ext/1407244131/drv_tmr_static.o
 .debug_loc     0x000034f1      0x6a4 build/default/debug/_ext/1407244131/drv_tmr_mapping.o
 .debug_loc     0x00003b95      0x9af build/default/debug/_ext/327000265/drv_usart_mapping.o
 .debug_loc     0x00004544      0xb54 build/default/debug/_ext/327000265/drv_usart_static.o
 .debug_loc     0x00005098      0x16e build/default/debug/_ext/327000265/drv_usart_static_byte_model.o
 .debug_loc     0x00005206      0x15b build/default/debug/_ext/639803181/sys_clk_pic32mz.o
 .debug_loc     0x00005361      0x80a build/default/debug/_ext/822048611/sys_ports_static.o
 .debug_loc     0x00005b6b       0x4d build/default/debug/_ext/1688732426/system_init.o
 .debug_loc     0x00005bb8       0x20 build/default/debug/_ext/1688732426/general_exception_handler.o
 .debug_loc     0x00005bd8       0xec build/default/debug/_ext/1688732426/system_tasks.o
 .debug_loc     0x00005cc4       0xf8 build/default/debug/_ext/1688732426/rtos_hooks.o
 .debug_loc     0x00005dbc       0x20 build/default/debug/_ext/1360937237/main.o
 .debug_loc     0x00005ddc       0x40 build/default/debug/_ext/1360937237/app.o
 .debug_loc     0x00005e1c       0x40 build/default/debug/_ext/1360937237/mavlink_recv_task.o
 .debug_loc     0x00005e5c       0x6c build/default/debug/_ext/1360937237/mavlink_send_task.o
 .debug_loc     0x00005ec8       0x40 build/default/debug/_ext/1360937237/mavlink_status_task.o
 .debug_loc     0x00005f08       0x14 build/default/debug/_ext/1360937237/att_controller_task.o
 .debug_loc     0x00005f1c      0x5f6 build/default/debug/_ext/1353086322/osal_freertos.o
 .debug_loc     0x00006512      0x174 build/default/debug/_ext/121284916/sys_devcon.o
 .debug_loc     0x00006686      0x7c5 build/default/debug/_ext/121284916/sys_devcon_pic32mz.o
 .debug_loc     0x00006e4b      0x12c build/default/debug/_ext/1317643790/sys_int_pic32.o
 .debug_loc     0x00006f77       0x75 build/default/debug/_ext/457403440/heap_1.o
 .debug_loc     0x00006fec      0x1fd build/default/debug/_ext/1571139743/port.o
 .debug_loc     0x000071e9       0x44 build/default/debug/_ext/1276567923/list.o
 .debug_loc     0x0000722d     0x15ab build/default/debug/_ext/1276567923/queue.o
 .debug_loc     0x000087d8     0x164b build/default/debug/_ext/1276567923/tasks.o
 .debug_loc     0x00009e23      0xa96 build/default/debug/_ext/1276567923/event_groups.o
 .debug_loc     0x0000a8b9      0x128 build/default/debug/_ext/443942460/PID.o
 .debug_loc     0x0000a9e1      0x48c build/default/debug/_ext/1035051164/SixDOFQuadcopterModel.o
 .debug_loc     0x0000ae6d      0x2f4 build/default/debug/_ext/1204493032/PositionEstimatorAltitude.o
 .debug_loc     0x0000b161      0x1a5 build/default/debug/_ext/1204493032/SensFusion.o
 .debug_loc     0x0000b306       0xb0 build/default/debug/_ext/1204493032/ComplementaryFilter.o
 .debug_loc     0x0000b3b6      0x132 build/default/debug/_ext/1204493032/AttitudeController.o
 .debug_loc     0x0000b4e8       0x58 build/default/debug/_ext/149289479/MAVLinkSender.o
 .debug_loc     0x0000b540     0x411e build/default/debug/_ext/149289479/MAVLinkHandler.o
 .debug_loc     0x0000f65e       0xac build/default/debug/_ext/1715884449/AttitudeControllerTask.o
 .debug_loc     0x0000f70a      0x236 build/default/debug/_ext/1158199258/MAVLinkSendTask.o
 .debug_loc     0x0000f940       0xeb build/default/debug/_ext/1158199258/MAVLinkRecvTask.o
 .debug_loc     0x0000fa2b       0x41 build/default/debug/_ext/1315301415/TOFUpdateTask.o
 .debug_loc     0x0000fa6c       0x41 build/default/debug/_ext/1315301415/MAVStatusTask.o
 .debug_loc     0x0000faad       0x41 build/default/debug/_ext/1315301415/IMUUpdateTask.o
 .debug_loc     0x0000faee      0x143 build/default/debug/_ext/1313821444/num.o
 .debug_loc     0x0000fc31       0x74 /opt/microchip/xc32/v2.41/bin/bin/../../lib/gcc/pic32mx/4.8.3/libgcc.a(floatunsisf.o)
 .debug_loc     0x0000fca5       0x2c /opt/microchip/xc32/v2.41/bin/bin/../../lib/gcc/pic32mx/4.8.3/../../../../pic32mx/lib/libpic32.a(default-bootstrap-exception-handler.o)
 .debug_loc     0x0000fcd1       0x2c /opt/microchip/xc32/v2.41/bin/bin/../../lib/gcc/pic32mx/4.8.3/../../../../pic32mx/lib/libpic32.a(default-cache-err-exception-handler.o)
 .debug_loc     0x0000fcfd       0x2c /opt/microchip/xc32/v2.41/bin/bin/../../lib/gcc/pic32mx/4.8.3/../../../../pic32mx/lib/libpic32.a(default-simple-tlb-refill-exception-handler.o)
 .debug_loc     0x0000fd29       0x2c /opt/microchip/xc32/v2.41/bin/bin/../../lib/gcc/pic32mx/4.8.3/../../../../pic32mx/lib/libm.a(w_asinf.o)
 .debug_loc     0x0000fd55       0x21 /opt/microchip/xc32/v2.41/bin/bin/../../lib/gcc/pic32mx/4.8.3/../../../../pic32mx/lib/libm.a(w_atan2f.o)
 .debug_loc     0x0000fd76      0x1ad /opt/microchip/xc32/v2.41/bin/bin/../../lib/gcc/pic32mx/4.8.3/../../../../pic32mx/lib/libm.a(support.o)
 .debug_loc     0x0000ff23      0xa6a /opt/microchip/xc32/v2.41/bin/bin/../../lib/gcc/pic32mx/4.8.3/libgcc.a(_udivdi3.o)
 .debug_loc     0x0001098d      0xa3d /opt/microchip/xc32/v2.41/bin/bin/../../lib/gcc/pic32mx/4.8.3/libgcc.a(_umoddi3.o)
 .debug_loc     0x000113ca       0x78 /opt/microchip/xc32/v2.41/bin/bin/../../lib/gcc/pic32mx/4.8.3/../../../../pic32mx/lib/libpic32.a(sbrk.o)
 .debug_loc     0x00011442       0x38 /opt/microchip/xc32/v2.41/bin/bin/../../lib/gcc/pic32mx/4.8.3/../../../../pic32mx/lib/libpic32.a(write.o)
 .debug_loc     0x0001147a       0x20 /opt/microchip/xc32/v2.41/bin/bin/../../lib/gcc/pic32mx/4.8.3/../../../../pic32mx/lib/libpic32.a(_mon_putc.o)

.debug_macinfo
 *.elf(.debug_macinfo)
 *(.debug_macinfo)

.debug_weaknames
 *.elf(.debug_weaknames)
 *(.debug_weaknames)

.debug_funcnames
 *.elf(.debug_funcnames)
 *(.debug_funcnames)

.debug_typenames
 *.elf(.debug_typenames)
 *(.debug_typenames)

.debug_varnames
 *.elf(.debug_varnames)
 *(.debug_varnames)

.debug_pubtypes
 *.elf(.debug_pubtypes)
 *(.debug_pubtypes)

.debug_ranges   0x00000000     0x2218
 *.elf(.debug_ranges)
 *(.debug_ranges)
 .debug_ranges  0x00000000       0x10 /opt/microchip/xc32/v2.41/bin/bin/../../lib/gcc/pic32mx/4.8.3/../../../../pic32mx/lib/software-debug-break.o
 .debug_ranges  0x00000010       0x40 build/default/debug/_ext/1650642999/imu.o
 .debug_ranges  0x00000050      0x6c8 build/default/debug/_ext/1650642999/comms.o
 .debug_ranges  0x00000718       0x38 build/default/debug/_ext/1650642999/tof.o
 .debug_ranges  0x00000750       0x18 build/default/debug/_ext/971049567/Quaternion.o
 .debug_ranges  0x00000768       0x40 build/default/debug/_ext/1047219354/drv_oc_mapping.o
 .debug_ranges  0x000007a8       0xe8 build/default/debug/_ext/1047219354/drv_oc_static.o
 .debug_ranges  0x00000890       0x98 build/default/debug/_ext/1407244131/drv_tmr_static.o
 .debug_ranges  0x00000928       0xd8 build/default/debug/_ext/1407244131/drv_tmr_mapping.o
 .debug_ranges  0x00000a00       0xa0 build/default/debug/_ext/327000265/drv_usart_mapping.o
 .debug_ranges  0x00000aa0      0x118 build/default/debug/_ext/327000265/drv_usart_static.o
 .debug_ranges  0x00000bb8       0x68 build/default/debug/_ext/327000265/drv_usart_static_byte_model.o
 .debug_ranges  0x00000c20       0x40 build/default/debug/_ext/639803181/sys_clk_pic32mz.o
 .debug_ranges  0x00000c60      0x138 build/default/debug/_ext/822048611/sys_ports_static.o
 .debug_ranges  0x00000d98       0x10 build/default/debug/_ext/1688732426/system_init.o
 .debug_ranges  0x00000da8       0x10 build/default/debug/_ext/1688732426/system_interrupt.o
 .debug_ranges  0x00000db8       0x10 build/default/debug/_ext/1688732426/general_exception_handler.o
 .debug_ranges  0x00000dc8       0x10 build/default/debug/_ext/1688732426/fassert.o
 .debug_ranges  0x00000dd8       0x40 build/default/debug/_ext/1688732426/system_tasks.o
 .debug_ranges  0x00000e18       0x30 build/default/debug/_ext/1688732426/rtos_hooks.o
 .debug_ranges  0x00000e48       0x10 build/default/debug/_ext/1360937237/main.o
 .debug_ranges  0x00000e58       0x18 build/default/debug/_ext/1360937237/app.o
 .debug_ranges  0x00000e70       0x18 build/default/debug/_ext/1360937237/mavlink_recv_task.o
 .debug_ranges  0x00000e88       0x18 build/default/debug/_ext/1360937237/mavlink_send_task.o
 .debug_ranges  0x00000ea0       0x18 build/default/debug/_ext/1360937237/mavlink_status_task.o
 .debug_ranges  0x00000eb8       0x18 build/default/debug/_ext/1360937237/att_controller_task.o
 .debug_ranges  0x00000ed0       0x78 build/default/debug/_ext/1353086322/osal_freertos.o
 .debug_ranges  0x00000f48       0x68 build/default/debug/_ext/121284916/sys_devcon.o
 .debug_ranges  0x00000fb0       0xd8 build/default/debug/_ext/121284916/sys_devcon_pic32mz.o
 .debug_ranges  0x00001088       0x50 build/default/debug/_ext/1317643790/sys_int_pic32.o
 .debug_ranges  0x000010d8       0x28 build/default/debug/_ext/457403440/heap_1.o
 .debug_ranges  0x00001100       0x48 build/default/debug/_ext/1571139743/port.o
 .debug_ranges  0x00001148       0x28 build/default/debug/_ext/1571139743/port_asm.o
 .debug_ranges  0x00001170       0x30 build/default/debug/_ext/1276567923/list.o
 .debug_ranges  0x000011a0      0x158 build/default/debug/_ext/1276567923/queue.o
 .debug_ranges  0x000012f8      0x1a0 build/default/debug/_ext/1276567923/tasks.o
 .debug_ranges  0x00001498       0x98 build/default/debug/_ext/1276567923/event_groups.o
 .debug_ranges  0x00001530       0x10 build/default/debug/_ext/443942460/PID.o
 .debug_ranges  0x00001540       0x18 build/default/debug/_ext/1035051164/SixDOFQuadcopterModel.o
 .debug_ranges  0x00001558       0x40 build/default/debug/_ext/1204493032/PositionEstimatorAltitude.o
 .debug_ranges  0x00001598       0x20 build/default/debug/_ext/1204493032/SensFusion.o
 .debug_ranges  0x000015b8       0x10 build/default/debug/_ext/1204493032/ComplementaryFilter.o
 .debug_ranges  0x000015c8       0x10 build/default/debug/_ext/1204493032/AttitudeController.o
 .debug_ranges  0x000015d8       0x10 build/default/debug/_ext/149289479/MAVLinkSender.o
 .debug_ranges  0x000015e8      0x778 build/default/debug/_ext/149289479/MAVLinkHandler.o
 .debug_ranges  0x00001d60       0x20 build/default/debug/_ext/1715884449/AttitudeControllerTask.o
 .debug_ranges  0x00001d80       0xa8 build/default/debug/_ext/1158199258/MAVLinkSendTask.o
 .debug_ranges  0x00001e28       0x20 build/default/debug/_ext/1158199258/MAVLinkRecvTask.o
 .debug_ranges  0x00001e48       0x10 build/default/debug/_ext/1315301415/TOFUpdateTask.o
 .debug_ranges  0x00001e58       0x20 build/default/debug/_ext/1315301415/MAVStatusTask.o
 .debug_ranges  0x00001e78       0x10 build/default/debug/_ext/1315301415/IMUUpdateTask.o
 .debug_ranges  0x00001e88       0x18 build/default/debug/_ext/1313821444/num.o
 .debug_ranges  0x00001ea0       0x48 /tmp/ccUSX7Wj.o
 .debug_ranges  0x00001ee8       0x10 /opt/microchip/xc32/v2.41/bin/bin/../../lib/gcc/pic32mx/4.8.3/../../../../pic32mx/lib/libpic32.a(default-bootstrap-exception-handler.o)
 .debug_ranges  0x00001ef8       0x10 /opt/microchip/xc32/v2.41/bin/bin/../../lib/gcc/pic32mx/4.8.3/../../../../pic32mx/lib/libpic32.a(default-on-reset.o)
 .debug_ranges  0x00001f08       0x10 /opt/microchip/xc32/v2.41/bin/bin/../../lib/gcc/pic32mx/4.8.3/../../../../pic32mx/lib/libpic32.a(default-on-bootstrap.o)
 .debug_ranges  0x00001f18       0x10 /opt/microchip/xc32/v2.41/bin/bin/../../lib/gcc/pic32mx/4.8.3/../../../../pic32mx/lib/libpic32.a(defaultinterrupt.o)
 .debug_ranges  0x00001f28       0x10 /opt/microchip/xc32/v2.41/bin/bin/../../lib/gcc/pic32mx/4.8.3/../../../../pic32mx/lib/libpic32.a(default-cache-err-exception-handler.o)
 .debug_ranges  0x00001f38       0x10 /opt/microchip/xc32/v2.41/bin/bin/../../lib/gcc/pic32mx/4.8.3/../../../../pic32mx/lib/libpic32.a(default-simple-tlb-refill-exception-handler.o)
 .debug_ranges  0x00001f48       0x20 /opt/microchip/xc32/v2.41/bin/bin/../../lib/gcc/pic32mx/4.8.3/../../../../pic32mx/lib/libc.a(malloc.o)
 .debug_ranges  0x00001f68       0x18 /opt/microchip/xc32/v2.41/bin/bin/../../lib/gcc/pic32mx/4.8.3/../../../../pic32mx/lib/libc.a(puts.o)
 .debug_ranges  0x00001f80       0x10 /opt/microchip/xc32/v2.41/bin/bin/../../lib/gcc/pic32mx/4.8.3/../../../../pic32mx/lib/libc.a(strcat.o)
 .debug_ranges  0x00001f90       0x10 /opt/microchip/xc32/v2.41/bin/bin/../../lib/gcc/pic32mx/4.8.3/../../../../pic32mx/lib/libc.a(sprintf_cdnopuxX.eo)
 .debug_ranges  0x00001fa0       0x10 /opt/microchip/xc32/v2.41/bin/bin/../../lib/gcc/pic32mx/4.8.3/../../../../pic32mx/lib/libc.a(_fputc_simple.o)
 .debug_ranges  0x00001fb0       0x10 /opt/microchip/xc32/v2.41/bin/bin/../../lib/gcc/pic32mx/4.8.3/../../../../pic32mx/lib/libc.a(doprnt_cdnopuxX.eo)
 .debug_ranges  0x00001fc0       0x10 /opt/microchip/xc32/v2.41/bin/bin/../../lib/gcc/pic32mx/4.8.3/../../../../pic32mx/lib/libc.a(_flsbuf_simple.o)
 .debug_ranges  0x00001fd0       0x10 /opt/microchip/xc32/v2.41/bin/bin/../../lib/gcc/pic32mx/4.8.3/../../../../pic32mx/lib/libm.a(w_asinf.o)
 .debug_ranges  0x00001fe0       0x10 /opt/microchip/xc32/v2.41/bin/bin/../../lib/gcc/pic32mx/4.8.3/../../../../pic32mx/lib/libm.a(w_atan2f.o)
 .debug_ranges  0x00001ff0       0x68 /opt/microchip/xc32/v2.41/bin/bin/../../lib/gcc/pic32mx/4.8.3/../../../../pic32mx/lib/libm.a(support.o)
 .debug_ranges  0x00002058       0x98 /opt/microchip/xc32/v2.41/bin/bin/../../lib/gcc/pic32mx/4.8.3/libgcc.a(_udivdi3.o)
 .debug_ranges  0x000020f0       0xd8 /opt/microchip/xc32/v2.41/bin/bin/../../lib/gcc/pic32mx/4.8.3/libgcc.a(_umoddi3.o)
 .debug_ranges  0x000021c8       0x30 /opt/microchip/xc32/v2.41/bin/bin/../../lib/gcc/pic32mx/4.8.3/../../../../pic32mx/lib/libpic32.a(sbrk.o)
 .debug_ranges  0x000021f8       0x10 /opt/microchip/xc32/v2.41/bin/bin/../../lib/gcc/pic32mx/4.8.3/../../../../pic32mx/lib/libpic32.a(write.o)
 .debug_ranges  0x00002208       0x10 /opt/microchip/xc32/v2.41/bin/bin/../../lib/gcc/pic32mx/4.8.3/../../../../pic32mx/lib/libpic32.a(_mon_putc.o)

.gnu.attributes
                0x00000000       0x10
 *(.gnu.attributes)
 .gnu.attributes
                0x00000000       0x10 /opt/microchip/xc32/v2.41/bin/bin/../../lib/gcc/pic32mx/4.8.3/../../../../pic32mx/lib/software-debug-break.o
 .gnu.attributes
                0x00000010       0x10 build/default/debug/_ext/1650642999/imu.o
 .gnu.attributes
                0x00000020       0x10 build/default/debug/_ext/1650642999/comms.o
 .gnu.attributes
                0x00000030       0x10 build/default/debug/_ext/1650642999/tof.o
 .gnu.attributes
                0x00000040       0x10 build/default/debug/_ext/1650642999/motors.o
 .gnu.attributes
                0x00000050       0x10 build/default/debug/_ext/971049567/Quaternion.o
 .gnu.attributes
                0x00000060       0x10 build/default/debug/_ext/971049567/Vector3D.o
 .gnu.attributes
                0x00000070       0x10 build/default/debug/_ext/1047219354/drv_oc_mapping.o
 .gnu.attributes
                0x00000080       0x10 build/default/debug/_ext/1047219354/drv_oc_static.o
 .gnu.attributes
                0x00000090       0x10 build/default/debug/_ext/1407244131/drv_tmr_static.o
 .gnu.attributes
                0x000000a0       0x10 build/default/debug/_ext/1407244131/drv_tmr_mapping.o
 .gnu.attributes
                0x000000b0       0x10 build/default/debug/_ext/327000265/drv_usart_mapping.o
 .gnu.attributes
                0x000000c0       0x10 build/default/debug/_ext/327000265/drv_usart_static.o
 .gnu.attributes
                0x000000d0       0x10 build/default/debug/_ext/327000265/drv_usart_static_byte_model.o
 .gnu.attributes
                0x000000e0       0x10 build/default/debug/_ext/639803181/sys_clk_pic32mz.o
 .gnu.attributes
                0x000000f0       0x10 build/default/debug/_ext/822048611/sys_ports_static.o
 .gnu.attributes
                0x00000100       0x10 build/default/debug/_ext/1688732426/system_init.o
 .gnu.attributes
                0x00000110       0x10 build/default/debug/_ext/1688732426/system_interrupt.o
 .gnu.attributes
                0x00000120       0x10 build/default/debug/_ext/1688732426/general_exception_handler.o
 .gnu.attributes
                0x00000130       0x10 build/default/debug/_ext/1688732426/fassert.o
 .gnu.attributes
                0x00000140       0x10 build/default/debug/_ext/1688732426/system_tasks.o
 .gnu.attributes
                0x00000150       0x10 build/default/debug/_ext/1688732426/rtos_hooks.o
 .gnu.attributes
                0x00000160       0x10 build/default/debug/_ext/1360937237/main.o
 .gnu.attributes
                0x00000170       0x10 build/default/debug/_ext/1360937237/app.o
 .gnu.attributes
                0x00000180       0x10 build/default/debug/_ext/1360937237/mavlink_recv_task.o
 .gnu.attributes
                0x00000190       0x10 build/default/debug/_ext/1360937237/mavlink_send_task.o
 .gnu.attributes
                0x000001a0       0x10 build/default/debug/_ext/1360937237/mavlink_status_task.o
 .gnu.attributes
                0x000001b0       0x10 build/default/debug/_ext/1360937237/att_controller_task.o
 .gnu.attributes
                0x000001c0       0x10 build/default/debug/_ext/1353086322/osal_freertos.o
 .gnu.attributes
                0x000001d0       0x10 build/default/debug/_ext/121284916/sys_devcon.o
 .gnu.attributes
                0x000001e0       0x10 build/default/debug/_ext/121284916/sys_devcon_pic32mz.o
 .gnu.attributes
                0x000001f0       0x10 build/default/debug/_ext/1317643790/sys_int_pic32.o
 .gnu.attributes
                0x00000200       0x10 build/default/debug/_ext/457403440/heap_1.o
 .gnu.attributes
                0x00000210       0x10 build/default/debug/_ext/1571139743/port.o
 .gnu.attributes
                0x00000220       0x10 build/default/debug/_ext/1276567923/croutine.o
 .gnu.attributes
                0x00000230       0x10 build/default/debug/_ext/1276567923/list.o
 .gnu.attributes
                0x00000240       0x10 build/default/debug/_ext/1276567923/queue.o
 .gnu.attributes
                0x00000250       0x10 build/default/debug/_ext/1276567923/tasks.o
 .gnu.attributes
                0x00000260       0x10 build/default/debug/_ext/1276567923/timers.o
 .gnu.attributes
                0x00000270       0x10 build/default/debug/_ext/1276567923/event_groups.o
 .gnu.attributes
                0x00000280       0x10 build/default/debug/_ext/443942460/PID.o
 .gnu.attributes
                0x00000290       0x10 build/default/debug/_ext/1035051164/SixDOFQuadcopterModel.o
 .gnu.attributes
                0x000002a0       0x10 build/default/debug/_ext/1204493032/PositionEstimatorAltitude.o
 .gnu.attributes
                0x000002b0       0x10 build/default/debug/_ext/1204493032/SensFusion.o
 .gnu.attributes
                0x000002c0       0x10 build/default/debug/_ext/1204493032/ComplementaryFilter.o
 .gnu.attributes
                0x000002d0       0x10 build/default/debug/_ext/1204493032/AttitudeController.o
 .gnu.attributes
                0x000002e0       0x10 build/default/debug/_ext/149289479/MAVLinkSender.o
 .gnu.attributes
                0x000002f0       0x10 build/default/debug/_ext/149289479/MAVLinkHandler.o
 .gnu.attributes
                0x00000300       0x10 build/default/debug/_ext/1715884449/AttitudeControllerTask.o
 .gnu.attributes
                0x00000310       0x10 build/default/debug/_ext/1158199258/MAVLinkSendTask.o
 .gnu.attributes
                0x00000320       0x10 build/default/debug/_ext/1158199258/MAVLinkRecvTask.o
 .gnu.attributes
                0x00000330       0x10 build/default/debug/_ext/1315301415/TOFUpdateTask.o
 .gnu.attributes
                0x00000340       0x10 build/default/debug/_ext/1315301415/MAVStatusTask.o
 .gnu.attributes
                0x00000350       0x10 build/default/debug/_ext/1315301415/IMUUpdateTask.o
 .gnu.attributes
                0x00000360       0x10 build/default/debug/_ext/1313821444/num.o
 .gnu.attributes
                0x00000370       0x10 /opt/microchip/xc32/v2.41/bin/bin/../../lib/gcc/pic32mx/4.8.3/libgcc.a(floatunsisf.o)
 .gnu.attributes
                0x00000380       0x10 /opt/microchip/xc32/v2.41/bin/bin/../../lib/gcc/pic32mx/4.8.3/../../../../pic32mx/lib/libpic32.a(default-bootstrap-exception-handler.o)
 .gnu.attributes
                0x00000390       0x10 /opt/microchip/xc32/v2.41/bin/bin/../../lib/gcc/pic32mx/4.8.3/../../../../pic32mx/lib/libpic32.a(default-on-reset.o)
 .gnu.attributes
                0x000003a0       0x10 /opt/microchip/xc32/v2.41/bin/bin/../../lib/gcc/pic32mx/4.8.3/../../../../pic32mx/lib/libpic32.a(default-on-bootstrap.o)
 .gnu.attributes
                0x000003b0       0x10 /opt/microchip/xc32/v2.41/bin/bin/../../lib/gcc/pic32mx/4.8.3/../../../../pic32mx/lib/libpic32.a(defaultinterrupt.o)
 .gnu.attributes
                0x000003c0       0x10 /opt/microchip/xc32/v2.41/bin/bin/../../lib/gcc/pic32mx/4.8.3/../../../../pic32mx/lib/libpic32.a(default-cache-err-exception-handler.o)
 .gnu.attributes
                0x000003d0       0x10 /opt/microchip/xc32/v2.41/bin/bin/../../lib/gcc/pic32mx/4.8.3/../../../../pic32mx/lib/libpic32.a(default-simple-tlb-refill-exception-handler.o)
 .gnu.attributes
                0x000003e0       0x10 /opt/microchip/xc32/v2.41/bin/bin/../../lib/gcc/pic32mx/4.8.3/../../../../pic32mx/lib/libc.a(malloc.o)
 .gnu.attributes
                0x000003f0       0x10 /opt/microchip/xc32/v2.41/bin/bin/../../lib/gcc/pic32mx/4.8.3/../../../../pic32mx/lib/libc.a(puts.o)
 .gnu.attributes
                0x00000400       0x10 /opt/microchip/xc32/v2.41/bin/bin/../../lib/gcc/pic32mx/4.8.3/../../../../pic32mx/lib/libc.a(strcat.o)
 .gnu.attributes
                0x00000410       0x10 /opt/microchip/xc32/v2.41/bin/bin/../../lib/gcc/pic32mx/4.8.3/../../../../pic32mx/lib/libc.a(sprintf_cdnopuxX.eo)
 .gnu.attributes
                0x00000420       0x10 /opt/microchip/xc32/v2.41/bin/bin/../../lib/gcc/pic32mx/4.8.3/../../../../pic32mx/lib/libc.a(_iob.o)
 .gnu.attributes
                0x00000430       0x10 /opt/microchip/xc32/v2.41/bin/bin/../../lib/gcc/pic32mx/4.8.3/../../../../pic32mx/lib/libc.a(_fputc_simple.o)
 .gnu.attributes
                0x00000440       0x10 /opt/microchip/xc32/v2.41/bin/bin/../../lib/gcc/pic32mx/4.8.3/../../../../pic32mx/lib/libc.a(doprnt_cdnopuxX.eo)
 .gnu.attributes
                0x00000450       0x10 /opt/microchip/xc32/v2.41/bin/bin/../../lib/gcc/pic32mx/4.8.3/../../../../pic32mx/lib/libc.a(_flsbuf_simple.o)
 .gnu.attributes
                0x00000460       0x10 /opt/microchip/xc32/v2.41/bin/bin/../../lib/gcc/pic32mx/4.8.3/../../../../pic32mx/lib/libc.a(ctype.o)
 .gnu.attributes
                0x00000470       0x10 /opt/microchip/xc32/v2.41/bin/bin/../../lib/gcc/pic32mx/4.8.3/../../../../pic32mx/lib/libm.a(w_asinf.o)
 .gnu.attributes
                0x00000480       0x10 /opt/microchip/xc32/v2.41/bin/bin/../../lib/gcc/pic32mx/4.8.3/../../../../pic32mx/lib/libm.a(w_atan2f.o)
 .gnu.attributes
                0x00000490       0x10 /opt/microchip/xc32/v2.41/bin/bin/../../lib/gcc/pic32mx/4.8.3/../../../../pic32mx/lib/libm.a(support.o)
 .gnu.attributes
                0x000004a0       0x10 /opt/microchip/xc32/v2.41/bin/bin/../../lib/gcc/pic32mx/4.8.3/../../../../pic32mx/lib/libm.a(s_lib_ver.o)
 .gnu.attributes
                0x000004b0       0x10 /opt/microchip/xc32/v2.41/bin/bin/../../lib/gcc/pic32mx/4.8.3/libgcc.a(_udivdi3.o)
 .gnu.attributes
                0x000004c0       0x10 /opt/microchip/xc32/v2.41/bin/bin/../../lib/gcc/pic32mx/4.8.3/libgcc.a(_umoddi3.o)
 .gnu.attributes
                0x000004d0       0x10 /opt/microchip/xc32/v2.41/bin/bin/../../lib/gcc/pic32mx/4.8.3/../../../../pic32mx/lib/libpic32.a(sbrk.o)
 .gnu.attributes
                0x000004e0       0x10 /opt/microchip/xc32/v2.41/bin/bin/../../lib/gcc/pic32mx/4.8.3/../../../../pic32mx/lib/libpic32.a(write.o)
 .gnu.attributes
                0x000004f0       0x10 /opt/microchip/xc32/v2.41/bin/bin/../../lib/gcc/pic32mx/4.8.3/../../../../pic32mx/lib/libpic32.a(errno.o)
 .gnu.attributes
                0x00000500       0x10 /opt/microchip/xc32/v2.41/bin/bin/../../lib/gcc/pic32mx/4.8.3/../../../../pic32mx/lib/libpic32.a(_mon_putc.o)
 .gnu.attributes
                0x00000510       0x10 /opt/microchip/xc32/v2.41/bin/bin/../../lib/gcc/pic32mx/4.8.3/../../../../pic32mx/lib/libpic32.a(xc32_uart.o)
                0x9d000000                PROVIDE (__pic32_init_cache_program_base_addr, 0x9d000000)
                0x80000000                PROVIDE (__pic32_init_cache_data_base_addr, 0x80000000)
                0xd0000000                PROVIDE (__pic32_init_sqi_kseg2_virtual_base_addr, 0xd0000000)
                0x30000000                PROVIDE (__pic32_init_sqi_kseg2_physical_base_addr, 0x30000000)
                0x0000001f                PROVIDE (__pic32_init_sqi_kseg2_entrylo0_bitset, 0x1f)
                0xd0000000                __pic32_tlb_0_entryhi = __pic32_init_sqi_kseg2_virtual_base_addr
                0x00c0001f                __pic32_tlb_0_entrylo0 = ((__pic32_init_sqi_kseg2_physical_base_addr >> 0x6) | __pic32_init_sqi_kseg2_entrylo0_bitset)
                0x00c4001f                __pic32_tlb_0_entrylo1 = (__pic32_tlb_0_entrylo0 | ((__pic32_init_sqi_kseg2_physical_base_addr + 0x1000000) >> 0x6))
                0xd2000000                __pic32_tlb_1_entryhi = (__pic32_init_sqi_kseg2_virtual_base_addr + 0x2000000)
                0x00c8001f                __pic32_tlb_1_entrylo0 = (((__pic32_init_sqi_kseg2_physical_base_addr + 0x2000000) >> 0x6) | __pic32_init_sqi_kseg2_entrylo0_bitset)
                0x00cc001f                __pic32_tlb_1_entrylo1 = (__pic32_tlb_1_entrylo0 | 0x40000)
                0xf0000000                PROVIDE (__pic32_init_sqi_kseg3_virtual_base_addr, 0xf0000000)
                0x30000000                PROVIDE (__pic32_init_sqi_kseg3_physical_base_addr, 0x30000000)
                0x00000017                PROVIDE (__pic32_init_sqi_kseg3_entrylo0_bitset, 0x17)
                0xf0000000                __pic32_tlb_2_entryhi = __pic32_init_sqi_kseg3_virtual_base_addr
                0x00c00017                __pic32_tlb_2_entrylo0 = ((__pic32_init_sqi_kseg3_physical_base_addr >> 0x6) | __pic32_init_sqi_kseg3_entrylo0_bitset)
                0x00c40017                __pic32_tlb_2_entrylo1 = (__pic32_tlb_2_entrylo0 | ((__pic32_init_sqi_kseg3_physical_base_addr + 0x1000000) >> 0x6))
                0xf2000000                __pic32_tlb_3_entryhi = (__pic32_init_sqi_kseg3_virtual_base_addr + 0x2000000)
                0x00c80017                __pic32_tlb_3_entrylo0 = (((__pic32_init_sqi_kseg3_physical_base_addr + 0x2000000) >> 0x6) | __pic32_init_sqi_kseg3_entrylo0_bitset)
                0x00cc0017                __pic32_tlb_3_entrylo1 = (__pic32_tlb_3_entrylo0 | 0x40000)
                0xc0000000                PROVIDE (__pic32_init_ebi_kseg2_virtual_base_addr, 0xc0000000)
                0x20000000                PROVIDE (__pic32_init_ebi_kseg2_physical_base_addr, 0x20000000)
                0x0000001f                PROVIDE (__pic32_init_ebi_kseg2_entrylo0_bitset, 0x1f)
                0xc0000000                __pic32_tlb_4_entryhi = __pic32_init_ebi_kseg2_virtual_base_addr
                0x0080001f                __pic32_tlb_4_entrylo0 = ((__pic32_init_ebi_kseg2_physical_base_addr >> 0x6) | __pic32_init_ebi_kseg2_entrylo0_bitset)
                0x0084001f                __pic32_tlb_4_entrylo1 = (__pic32_tlb_4_entrylo0 | ((__pic32_init_ebi_kseg2_physical_base_addr + 0x1000000) >> 0x6))
                0xc2000000                __pic32_tlb_5_entryhi = (__pic32_init_ebi_kseg2_virtual_base_addr + 0x2000000)
                0x0088001f                __pic32_tlb_5_entrylo0 = (((__pic32_init_ebi_kseg2_physical_base_addr + 0x2000000) >> 0x6) | __pic32_init_ebi_kseg2_entrylo0_bitset)
                0x008c001f                __pic32_tlb_5_entrylo1 = (__pic32_tlb_5_entrylo0 | 0x40000)
                0xe0000000                PROVIDE (__pic32_init_ebi_kseg3_virtual_base_addr, 0xe0000000)
                0x20000000                PROVIDE (__pic32_init_ebi_kseg3_physical_base_addr, 0x20000000)
                0x00000017                PROVIDE (__pic32_init_ebi_kseg3_entrylo0_bitset, 0x17)
                0xe0000000                __pic32_tlb_6_entryhi = __pic32_init_ebi_kseg3_virtual_base_addr
                0x00800017                __pic32_tlb_6_entrylo0 = ((__pic32_init_ebi_kseg3_physical_base_addr >> 0x6) | __pic32_init_ebi_kseg3_entrylo0_bitset)
                0x00840017                __pic32_tlb_6_entrylo1 = (__pic32_tlb_6_entrylo0 | ((__pic32_init_ebi_kseg3_physical_base_addr + 0x1000000) >> 0x6))
                0xe2000000                __pic32_tlb_7_entryhi = (__pic32_init_ebi_kseg3_virtual_base_addr + 0x2000000)
                0x00880017                __pic32_tlb_7_entrylo0 = (((__pic32_init_ebi_kseg3_physical_base_addr + 0x2000000) >> 0x6) | __pic32_init_ebi_kseg3_entrylo0_bitset)
                0x008c0017                __pic32_tlb_7_entrylo1 = (__pic32_tlb_7_entrylo0 | 0x40000)

.tlb_init_values
                0xbfc00670       0x60
                0xbfc00670                . = ALIGN (0x4)
                0xbfc00670                __pic32_tlb_init_values_begin = ABSOLUTE (.)
                0xbfc00670        0x4 LONG 0xd0000000 __pic32_tlb_0_entryhi
                0xbfc00674        0x4 LONG 0xc0001f __pic32_tlb_0_entrylo0
                0xbfc00678        0x4 LONG 0xc4001f __pic32_tlb_0_entrylo1
                0xbfc0067c        0x4 LONG 0xd2000000 __pic32_tlb_1_entryhi
                0xbfc00680        0x4 LONG 0xc8001f __pic32_tlb_1_entrylo0
                0xbfc00684        0x4 LONG 0xcc001f __pic32_tlb_1_entrylo1
                0xbfc00688        0x4 LONG 0xf0000000 __pic32_tlb_2_entryhi
                0xbfc0068c        0x4 LONG 0xc00017 __pic32_tlb_2_entrylo0
                0xbfc00690        0x4 LONG 0xc40017 __pic32_tlb_2_entrylo1
                0xbfc00694        0x4 LONG 0xf2000000 __pic32_tlb_3_entryhi
                0xbfc00698        0x4 LONG 0xc80017 __pic32_tlb_3_entrylo0
                0xbfc0069c        0x4 LONG 0xcc0017 __pic32_tlb_3_entrylo1
                0xbfc006a0        0x4 LONG 0xc0000000 __pic32_tlb_4_entryhi
                0xbfc006a4        0x4 LONG 0x80001f __pic32_tlb_4_entrylo0
                0xbfc006a8        0x4 LONG 0x84001f __pic32_tlb_4_entrylo1
                0xbfc006ac        0x4 LONG 0xc2000000 __pic32_tlb_5_entryhi
                0xbfc006b0        0x4 LONG 0x88001f __pic32_tlb_5_entrylo0
                0xbfc006b4        0x4 LONG 0x8c001f __pic32_tlb_5_entrylo1
                0xbfc006b8        0x4 LONG 0xe0000000 __pic32_tlb_6_entryhi
                0xbfc006bc        0x4 LONG 0x800017 __pic32_tlb_6_entrylo0
                0xbfc006c0        0x4 LONG 0x840017 __pic32_tlb_6_entrylo1
                0xbfc006c4        0x4 LONG 0xe2000000 __pic32_tlb_7_entryhi
                0xbfc006c8        0x4 LONG 0x880017 __pic32_tlb_7_entrylo0
                0xbfc006cc        0x4 LONG 0x8c0017 __pic32_tlb_7_entrylo1
                0xbfc006d0                __pic32_tlb_init_values_end = ABSOLUTE (.)
                0x00000008                __pic32_tlb_init_values_count = 0x8
LOAD /opt/microchip/xc32/v2.41/bin/bin/../../lib/gcc/pic32mx/4.8.3/libgcc.a
START GROUP
LOAD /opt/microchip/xc32/v2.41/bin/bin/../../lib/gcc/pic32mx/4.8.3/../../../../pic32mx/lib/libpic32.a
LOAD /opt/microchip/xc32/v2.41/bin/bin/../../lib/gcc/pic32mx/4.8.3/../../../../pic32mx/lib/libdebug.a
LOAD /opt/microchip/xc32/v2.41/bin/bin/../../lib/gcc/pic32mx/4.8.3/../../../../pic32mx/lib/libpic32.a
LOAD /opt/microchip/xc32/v2.41/bin/bin/../../lib/gcc/pic32mx/4.8.3/../../../../pic32mx/lib/libc.a
LOAD /opt/microchip/xc32/v2.41/bin/bin/../../lib/gcc/pic32mx/4.8.3/../../../../pic32mx/lib/libc.a
LOAD /opt/microchip/xc32/v2.41/bin/bin/../../lib/gcc/pic32mx/4.8.3/../../../../pic32mx/lib/libm.a
LOAD /opt/microchip/xc32/v2.41/bin/bin/../../lib/gcc/pic32mx/4.8.3/../../../../pic32mx/lib/libe.a
LOAD /opt/microchip/xc32/v2.41/bin/bin/../../lib/gcc/pic32mx/4.8.3/../../../../pic32mx/lib/libdspr2.a
LOAD /opt/microchip/xc32/v2.41/bin/bin/../../lib/gcc/pic32mx/4.8.3/../../../../pic32mx/lib/libdsp.a
LOAD /opt/microchip/xc32/v2.41/bin/bin/../../lib/gcc/pic32mx/4.8.3/libgcc.a
LOAD /opt/microchip/xc32/v2.41/bin/bin/../../lib/gcc/pic32mx/4.8.3/../../../../pic32mx/lib/libpic32.a
END GROUP
LOAD /opt/microchip/xc32/v2.41/bin/bin/../../lib/gcc/pic32mx/4.8.3/libgcc.a
OUTPUT(dist/default/debug/MicroDron-PIC32-HV2.X.debug.elf elf32-tradlittlemips)
LOAD stack
LOAD data_init

.reginfo        0x00000000       0x18
 .reginfo       0x00000000       0x18 /opt/microchip/xc32/v2.41/bin/bin/../../lib/gcc/pic32mx/4.8.3/../../../../pic32mx/lib/software-debug-break.o

.stack          0x80065310      0x400
 .stack         0x80065310      0x400 stack

.__vector_offset_BF810740_data
                0xbf810740       0xfc
 .__vector_offset_BF810740_data
                0xbf810740       0xfc /opt/microchip/xc32/v2.41/bin/bin/../../lib/gcc/pic32mx/4.8.3/../../../../pic32mx/lib/./proc/32MZ2048ECM100/vector_offset_init.o

.__vector_offset_BF810540_data
                0xbf810540       0xb4
 .__vector_offset_BF810540_data
                0xbf810540       0xb4 /opt/microchip/xc32/v2.41/bin/bin/../../lib/gcc/pic32mx/4.8.3/../../../../pic32mx/lib/./proc/32MZ2048ECM100/vector_offset_init.o

.__vector_offset_BF81062C_data
                0xbf81062c       0x8c
 .__vector_offset_BF81062C_data
                0xbf81062c       0x8c /opt/microchip/xc32/v2.41/bin/bin/../../lib/gcc/pic32mx/4.8.3/../../../../pic32mx/lib/./proc/32MZ2048ECM100/vector_offset_init.o

.__vector_offset_BF8106F4_data
                0xbf8106f4       0x40
 .__vector_offset_BF8106F4_data
                0xbf8106f4       0x40 /opt/microchip/xc32/v2.41/bin/bin/../../lib/gcc/pic32mx/4.8.3/../../../../pic32mx/lib/./proc/32MZ2048ECM100/vector_offset_init.o

.__vector_offset_BF8105F8_data
                0xbf8105f8       0x30
 .__vector_offset_BF8105F8_data
                0xbf8105f8       0x30 /opt/microchip/xc32/v2.41/bin/bin/../../lib/gcc/pic32mx/4.8.3/../../../../pic32mx/lib/./proc/32MZ2048ECM100/vector_offset_init.o

.__vector_offset_BF8106D8_data
                0xbf8106d8       0x18
 .__vector_offset_BF8106D8_data
                0xbf8106d8       0x18 /opt/microchip/xc32/v2.41/bin/bin/../../lib/gcc/pic32mx/4.8.3/../../../../pic32mx/lib/./proc/32MZ2048ECM100/vector_offset_init.o

.bss            0x80000494    0x63c00
 .bss           0x80000494    0x63c00 build/default/debug/_ext/457403440/heap_1.o

.bss            0x80064098      0xb3c
 .bss           0x80064098      0x640 build/default/debug/_ext/1571139743/port.o
                0x80064098                xISRStack
 .bss           0x800646d8      0x4fc build/default/debug/_ext/1650642999/comms.o

.bss            0x80064bd4      0x4a4
 .bss           0x80064bd4      0x260 build/default/debug/_ext/1158199258/MAVLinkRecvTask.o
 .bss           0x80064e34      0x244 build/default/debug/_ext/1158199258/MAVLinkSendTask.o

.bss            0x80065078      0x194
 .bss           0x80065078      0x194 build/default/debug/_ext/149289479/MAVLinkHandler.o

.data           0x8006520c       0xa4
 .data          0x8006520c       0xa4 /opt/microchip/xc32/v2.41/bin/bin/../../lib/gcc/pic32mx/4.8.3/../../../../pic32mx/lib/libc.a(_iob.o)
                0x8006520c                _Files
                0x80065210                _iob

.bss            0x800652b0       0x44
 .bss           0x800652b0       0x44 /opt/microchip/xc32/v2.41/bin/bin/../../lib/gcc/pic32mx/4.8.3/../../../../pic32mx/lib/libc.a(_iob.o)
                0x800652b0                _sobuf
                0x800652d0                _sibuf
                0x800652f0                _outdone

.text.hal_comms_recv_buffer
                0x9d000900     0x1810
 .text.hal_comms_recv_buffer
                0x9d000900     0x1810 build/default/debug/_ext/1650642999/comms.o
                0x9d000900                hal_comms_recv_buffer

.text.handle_MAVLink_message
                0x9d002110     0x1178
 .text.handle_MAVLink_message
                0x9d002110     0x1178 build/default/debug/_ext/149289479/MAVLinkHandler.o
                0x9d002110                handle_MAVLink_message

.text.handle_param_request_list
                0x9d003288     0x1118
 .text.handle_param_request_list
                0x9d003288     0x1118 build/default/debug/_ext/149289479/MAVLinkHandler.o
                0x9d003288                handle_param_request_list

.text._vfprintf_cdnopuxX
                0x9d0043a0      0xc8c
 .text._vfprintf_cdnopuxX
                0x9d0043a0      0xc8c /opt/microchip/xc32/v2.41/bin/bin/../../lib/gcc/pic32mx/4.8.3/../../../../pic32mx/lib/libc.a(doprnt_cdnopuxX.eo)
                0x9d0043a0                _vfprintf_cdnopuxX

.rodata         0x9d00502c      0xb14
 .rodata        0x9d00502c      0xb14 build/default/debug/_ext/1650642999/comms.o

.dinit          0x9d005b40      0x510
 .dinit         0x9d005b40      0x510 data_init

.text           0x9d006050      0x8bc
 .text          0x9d006050      0x464 /opt/microchip/xc32/v2.41/bin/bin/../../lib/gcc/pic32mx/4.8.3/libgcc.a(_umoddi3.o)
                0x9d006050                __umoddi3
 .text          0x9d0064b4      0x458 /opt/microchip/xc32/v2.41/bin/bin/../../lib/gcc/pic32mx/4.8.3/libgcc.a(_udivdi3.o)
                0x9d0064b4                __udivdi3

.text.MAVLinkSend_Update
                0x9d00690c      0x234
 .text.MAVLinkSend_Update
                0x9d00690c      0x234 build/default/debug/_ext/1158199258/MAVLinkSendTask.o
                0x9d00690c                MAVLinkSend_Update

.text.xQueueSemaphoreTake
                0x9d006b40      0x22c
 .text.xQueueSemaphoreTake
                0x9d006b40      0x22c build/default/debug/_ext/1276567923/queue.o
                0x9d006b40                xQueueSemaphoreTake

.text.xQueueGenericSend
                0x9d006d6c      0x20c
 .text.xQueueGenericSend
                0x9d006d6c      0x20c build/default/debug/_ext/1276567923/queue.o
                0x9d006d6c                xQueueGenericSend

.text.SYS_PORTS_Initialize
                0x9d006f78      0x1e8
 .text.SYS_PORTS_Initialize
                0x9d006f78      0x1e8 build/default/debug/_ext/822048611/sys_ports_static.o
                0x9d006f78                SYS_PORTS_Initialize

.text.xQueueReceive
                0x9d007160      0x1c0
 .text.xQueueReceive
                0x9d007160      0x1c0 build/default/debug/_ext/1276567923/queue.o
                0x9d007160                xQueueReceive

.text.xTaskIncrementTick
                0x9d007320      0x184
 .text.xTaskIncrementTick
                0x9d007320      0x184 build/default/debug/_ext/1276567923/tasks.o
                0x9d007320                xTaskIncrementTick

.text           0x9d0074a4      0x168
 .text          0x9d0074a4      0x168 /opt/microchip/xc32/v2.41/bin/bin/../../lib/gcc/pic32mx/4.8.3/../../../../pic32mx/lib/libpic32.a(memcpy.o)
                0x9d0074a4                memcpy

.text.DRV_USART0_Initialize
                0x9d00760c      0x158
 .text.DRV_USART0_Initialize
                0x9d00760c      0x158 build/default/debug/_ext/327000265/drv_usart_static.o
                0x9d00760c                DRV_USART0_Initialize

.text.DRV_USART1_Initialize
                0x9d007764      0x158
 .text.DRV_USART1_Initialize
                0x9d007764      0x158 build/default/debug/_ext/327000265/drv_usart_static.o
                0x9d007764                DRV_USART1_Initialize

.text.xTaskPriorityInherit
                0x9d0078bc      0x148
 .text.xTaskPriorityInherit
                0x9d0078bc      0x148 build/default/debug/_ext/1276567923/tasks.o
                0x9d0078bc                xTaskPriorityInherit

.text.xTaskResumeAll
                0x9d007a04      0x148
 .text.xTaskResumeAll
                0x9d007a04      0x148 build/default/debug/_ext/1276567923/tasks.o
                0x9d007a04                xTaskResumeAll

.text.fputc     0x9d007b4c      0x144
 .text.fputc    0x9d007b4c      0x144 /opt/microchip/xc32/v2.41/bin/bin/../../lib/gcc/pic32mx/4.8.3/../../../../pic32mx/lib/libc.a(_fputc_simple.o)
                0x9d007b4c                fputc

.text._flsbuf   0x9d007c90      0x12c
 .text._flsbuf  0x9d007c90      0x12c /opt/microchip/xc32/v2.41/bin/bin/../../lib/gcc/pic32mx/4.8.3/../../../../pic32mx/lib/libc.a(_flsbuf_simple.o)
                0x9d007c90                _flsbuf

.text.prvInitialiseNewTask
                0x9d007dbc      0x124
 .text.prvInitialiseNewTask
                0x9d007dbc      0x124 build/default/debug/_ext/1276567923/tasks.o
                0x9d007dbc                prvInitialiseNewTask

.text.general_exception
                0x9d007ee0      0x110
 .text.general_exception
                0x9d007ee0      0x110 build/default/debug/_ext/1688732426/general-exception-context.o
                0x9d007ee0                _general_exception_context

.text.vTaskPriorityDisinheritAfterTimeout
                0x9d007ff0      0x110
 .text.vTaskPriorityDisinheritAfterTimeout
                0x9d007ff0      0x110 build/default/debug/_ext/1276567923/tasks.o
                0x9d007ff0                vTaskPriorityDisinheritAfterTimeout

.text.SYS_Tasks
                0x9d008100      0x108
 .text.SYS_Tasks
                0x9d008100      0x108 build/default/debug/_ext/1688732426/system_tasks.o
                0x9d008100                SYS_Tasks

.rodata         0x9d008208      0x108
 .rodata        0x9d008208      0x108 build/default/debug/_ext/149289479/MAVLinkHandler.o

.text.SYS_DEVCON_PerformanceConfig
                0x9d008310      0x104
 .text.SYS_DEVCON_PerformanceConfig
                0x9d008310      0x104 build/default/debug/_ext/121284916/sys_devcon_pic32mz.o
                0x9d008310                SYS_DEVCON_PerformanceConfig

.text           0x9d008414      0x104
 .text          0x9d008414      0x104 build/default/debug/_ext/1571139743/port_asm.o
                0x9d008414                vPortStartFirstTask

.text.prvAddNewTaskToReadyList
                0x9d008518      0x104
 .text.prvAddNewTaskToReadyList
                0x9d008518      0x104 build/default/debug/_ext/1276567923/tasks.o
                0x9d008518                prvAddNewTaskToReadyList

.rodata         0x9d00861c      0x104
 .rodata        0x9d00861c      0x104 /opt/microchip/xc32/v2.41/bin/bin/../../lib/gcc/pic32mx/4.8.3/../../../../pic32mx/lib/libc.a(ctype.o)
                0x9d00861c                _ctype

.text.prvUnlockQueue
                0x9d008720      0x100
 .text.prvUnlockQueue
                0x9d008720      0x100 build/default/debug/_ext/1276567923/queue.o

.text.SYS_CLK_Initialize
                0x9d008820       0xf8
 .text.SYS_CLK_Initialize
                0x9d008820       0xf8 build/default/debug/_ext/639803181/sys_clk_pic32mz.o
                0x9d008820                SYS_CLK_Initialize

.text.prvCopyDataToQueue
                0x9d008918       0xf4
 .text.prvCopyDataToQueue
                0x9d008918       0xf4 build/default/debug/_ext/1276567923/queue.o

.text.xTaskPriorityDisinherit
                0x9d008a0c       0xf4
 .text.xTaskPriorityDisinherit
                0x9d008a0c       0xf4 build/default/debug/_ext/1276567923/tasks.o
                0x9d008a0c                xTaskPriorityDisinherit

.text.prvAddCurrentTaskToDelayedList
                0x9d000010       0xe4
 .text.prvAddCurrentTaskToDelayedList
                0x9d000010       0xe4 build/default/debug/_ext/1276567923/tasks.o
                0x9d000010                prvAddCurrentTaskToDelayedList

.text.vTaskSwitchContext
                0x9d008b00       0xe0
 .text.vTaskSwitchContext
                0x9d008b00       0xe0 build/default/debug/_ext/1276567923/tasks.o
                0x9d008b00                vTaskSwitchContext

.text._cache_err_exception_context
                0x9d008be0       0xd8
 .text._cache_err_exception_context
                0x9d008be0       0xd8 /opt/microchip/xc32/v2.41/bin/bin/../../lib/gcc/pic32mx/4.8.3/../../../../pic32mx/lib/libpic32.a(cache-err-exception.o)
                0x9d008be0                _cache_err_exception_context

.text.simple_tlb_refill_context
                0x9d008cb8       0xd8
 .text.simple_tlb_refill_context
                0x9d008cb8       0xd8 /opt/microchip/xc32/v2.41/bin/bin/../../lib/gcc/pic32mx/4.8.3/../../../../pic32mx/lib/libpic32.a(simple-tlb-refill-exception.o)
                0x9d008cb8                _simple_tlb_refill_exception_context

.text._mon_putc
                0x9d008d90       0xd8
 .text._mon_putc
                0x9d008d90       0xd8 /opt/microchip/xc32/v2.41/bin/bin/../../lib/gcc/pic32mx/4.8.3/../../../../pic32mx/lib/libpic32.a(_mon_putc.o)
                0x9d008d90                _mon_putc

.rodata         0x9d008e68       0xd0
 .rodata        0x9d008e68       0xd0 /opt/microchip/xc32/v2.41/bin/bin/../../lib/gcc/pic32mx/4.8.3/../../../../pic32mx/lib/libc.a(doprnt_cdnopuxX.eo)

.text.SYS_Initialize
                0x9d008f38       0xc4
 .text.SYS_Initialize
                0x9d008f38       0xc4 build/default/debug/_ext/1688732426/system_init.o
                0x9d008f38                SYS_Initialize

.text.APP_Tasks
                0x9d008ffc       0xc0
 .text.APP_Tasks
                0x9d008ffc       0xc0 build/default/debug/_ext/1360937237/app.o
                0x9d008ffc                APP_Tasks

.text.xQueueGenericReset
                0x9d0090bc       0xc0
 .text.xQueueGenericReset
                0x9d0090bc       0xc0 build/default/debug/_ext/1276567923/queue.o
                0x9d0090bc                xQueueGenericReset

.text.xTaskCreate
                0x9d00917c       0xc0
 .text.xTaskCreate
                0x9d00917c       0xc0 build/default/debug/_ext/1276567923/tasks.o
                0x9d00917c                xTaskCreate

.text.xTaskRemoveFromEventList
                0x9d00923c       0xbc
 .text.xTaskRemoveFromEventList
                0x9d00923c       0xbc build/default/debug/_ext/1276567923/tasks.o
                0x9d00923c                xTaskRemoveFromEventList

.tlb.__pic32_tlb_init_ebi_sqi
                0x9d0092f8       0xbc
 .tlb.__pic32_tlb_init_ebi_sqi
                0x9d0092f8       0xbc /opt/microchip/xc32/v2.41/bin/bin/../../lib/gcc/pic32mx/4.8.3/../../../../pic32mx/lib/libpic32.a(pic32_init_tlb_ebi_sqi.o)
                0x9d0092f8                __pic32_tlb_init_ebi_sqi

.text.pvPortMalloc
                0x9d0093b4       0xb8
 .text.pvPortMalloc
                0x9d0093b4       0xb8 build/default/debug/_ext/457403440/heap_1.o
                0x9d0093b4                pvPortMalloc

.text           0x9d00946c       0xa8
 .text          0x9d00946c       0xa8 /opt/microchip/xc32/v2.41/bin/bin/../../lib/gcc/pic32mx/4.8.3/../../../../pic32mx/lib/libpic32.a(memset.o)
                0x9d00946c                memset

.text.xTaskCheckForTimeOut
                0x9d009514       0xa4
 .text.xTaskCheckForTimeOut
                0x9d009514       0xa4 build/default/debug/_ext/1276567923/tasks.o
                0x9d009514                xTaskCheckForTimeOut

.text.write     0x9d0095b8       0x9c
 .text.write    0x9d0095b8       0x9c /opt/microchip/xc32/v2.41/bin/bin/../../lib/gcc/pic32mx/4.8.3/../../../../pic32mx/lib/libpic32.a(write.o)
                0x9d0095b8                write

.text           0x9d009654       0x98
 .text          0x9d009654       0x98 /opt/microchip/xc32/v2.41/bin/bin/../../lib/gcc/pic32mx/4.8.3/../../../../pic32mx/lib/libpic32.a(memcmp.o)
                0x9d009654                memcmp

.text.xQueueGenericCreate
                0x9d0096ec       0x94
 .text.xQueueGenericCreate
                0x9d0096ec       0x94 build/default/debug/_ext/1276567923/queue.o
                0x9d0096ec                xQueueGenericCreate

.text.prvInitialiseTaskLists
                0x9d009780       0x90
 .text.prvInitialiseTaskLists
                0x9d009780       0x90 build/default/debug/_ext/1276567923/tasks.o
                0x9d009780                prvInitialiseTaskLists

.text.handle_message_manual_control
                0x9d009810       0x8c
 .text.handle_message_manual_control
                0x9d009810       0x8c build/default/debug/_ext/149289479/MAVLinkHandler.o
                0x9d009810                handle_message_manual_control

.text           0x9d00989c       0x84
 .text          0x9d00989c       0x84 /opt/microchip/xc32/v2.41/bin/bin/../../lib/gcc/pic32mx/4.8.3/../../../../pic32mx/lib/libpic32.a(pic32_data_init.o)
                0x9d00989c                __pic32_data_init

.rodata         0x9d009920       0x80
 .rodata        0x9d009920       0x80 build/default/debug/_ext/1688732426/system_tasks.o

.text.prvCheckTasksWaitingTermination
                0x9d0099a0       0x80
 .text.prvCheckTasksWaitingTermination
                0x9d0099a0       0x80 build/default/debug/_ext/1276567923/tasks.o
                0x9d0099a0                prvCheckTasksWaitingTermination

.text.hal_comms_send_buffer
                0x9d009a20       0x7c
 .text.hal_comms_send_buffer
                0x9d009a20       0x7c build/default/debug/_ext/1650642999/comms.o
                0x9d009a20                hal_comms_send_buffer

.text.DRV_TMR0_Initialize
                0x9d009a9c       0x78
 .text.DRV_TMR0_Initialize
                0x9d009a9c       0x78 build/default/debug/_ext/1407244131/drv_tmr_static.o
                0x9d009a9c                DRV_TMR0_Initialize

.text.vTaskStartScheduler
                0x9d009b14       0x78
 .text.vTaskStartScheduler
                0x9d009b14       0x78 build/default/debug/_ext/1276567923/tasks.o
                0x9d009b14                vTaskStartScheduler

.text.MAVLinkRecv_Update
                0x9d009b8c       0x74
 .text.MAVLinkRecv_Update
                0x9d009b8c       0x74 build/default/debug/_ext/1158199258/MAVLinkRecvTask.o
                0x9d009b8c                MAVLinkRecv_Update

.text.vApplicationSetupTickTimerInterrupt
                0x9d000110       0x6c
 .text.vApplicationSetupTickTimerInterrupt
                0x9d000110       0x6c build/default/debug/_ext/1571139743/port.o
                0x9d000110                vApplicationSetupTickTimerInterrupt

.text._sprintf_cdnopuxX
                0x9d000190       0x68
 .text._sprintf_cdnopuxX
                0x9d000190       0x68 /opt/microchip/xc32/v2.41/bin/bin/../../lib/gcc/pic32mx/4.8.3/../../../../pic32mx/lib/libc.a(sprintf_cdnopuxX.eo)
                0x9d000190                _sprintf_cdnopuxX

.text._SYS_Tasks
                0x9d009c00       0x60
 .text._SYS_Tasks
                0x9d009c00       0x60 build/default/debug/_ext/1688732426/system_tasks.o

.text.MAVLINK_SEND_TASK_Tasks
                0x9d009c60       0x60
 .text.MAVLINK_SEND_TASK_Tasks
                0x9d009c60       0x60 build/default/debug/_ext/1360937237/mavlink_send_task.o
                0x9d009c60                MAVLINK_SEND_TASK_Tasks

.text.pxPortInitialiseStack
                0x9d009cc0       0x60
 .text.pxPortInitialiseStack
                0x9d009cc0       0x60 build/default/debug/_ext/1571139743/port.o
                0x9d009cc0                pxPortInitialiseStack

.text.vListInsert
                0x9d009d20       0x60
 .text.vListInsert
                0x9d009d20       0x60 build/default/debug/_ext/1276567923/list.o
                0x9d009d20                vListInsert

.text.vTaskExitCritical
                0x9d009d80       0x60
 .text.vTaskExitCritical
                0x9d009d80       0x60 build/default/debug/_ext/1276567923/tasks.o
                0x9d009d80                vTaskExitCritical

.text.MAVLinkRecv_Init
                0x9d009de0       0x60
 .text.MAVLinkRecv_Init
                0x9d009de0       0x60 build/default/debug/_ext/1158199258/MAVLinkRecvTask.o
                0x9d009de0                MAVLinkRecv_Init

.text.fputs     0x9d009e40       0x60
 .text.fputs    0x9d009e40       0x60 /opt/microchip/xc32/v2.41/bin/bin/../../lib/gcc/pic32mx/4.8.3/../../../../pic32mx/lib/libc.a(puts.o)
                0x9d009e40                fputs

.text.sitofp    0x9d009ea0       0x60
 .text.sitofp   0x9d009ea0       0x60 /opt/microchip/xc32/v2.41/bin/bin/../../lib/gcc/pic32mx/4.8.3/../../../../pic32mx/lib/libm.a(sitofp.o)
                0x9d009ea0                __floatsisf
                0x9d009ea0                sitofp
                0x9d009ea0                litofp

.text.xPortStartScheduler
                0x9d009f00       0x5c
 .text.xPortStartScheduler
                0x9d009f00       0x5c build/default/debug/_ext/1571139743/port.o
                0x9d009f00                xPortStartScheduler

.text.SYS_DEVCON_SystemUnlock
                0x9d009f5c       0x58
 .text.SYS_DEVCON_SystemUnlock
                0x9d009f5c       0x58 build/default/debug/_ext/121284916/sys_devcon.o
                0x9d009f5c                SYS_DEVCON_SystemUnlock

.text.xQueueCreateMutex
                0x9d009fb4       0x58
 .text.xQueueCreateMutex
                0x9d009fb4       0x58 build/default/debug/_ext/1276567923/queue.o
                0x9d009fb4                xQueueCreateMutex

.text.vTaskDelay
                0x9d00a00c       0x58
 .text.vTaskDelay
                0x9d00a00c       0x58 build/default/debug/_ext/1276567923/tasks.o
                0x9d00a00c                vTaskDelay

.text.vPortIncrementTick
                0x9d00a064       0x54
 .text.vPortIncrementTick
                0x9d00a064       0x54 build/default/debug/_ext/1571139743/port.o
                0x9d00a064                vPortIncrementTick

.text.main_entry
                0x9d00a0b8       0x54
 .text.main_entry
                0x9d00a0b8       0x54 /tmp/ccUSX7Wj.o
                0x9d00a0ec                __crt0_exit

.text.DRV_USART0_ReadByte
                0x9d00a10c       0x50
 .text.DRV_USART0_ReadByte
                0x9d00a10c       0x50 build/default/debug/_ext/327000265/drv_usart_static_byte_model.o
                0x9d00a10c                DRV_USART0_ReadByte

.text.SYS_CLK_PeripheralFrequencyGet
                0x9d00a15c       0x50
 .text.SYS_CLK_PeripheralFrequencyGet
                0x9d00a15c       0x50 build/default/debug/_ext/639803181/sys_clk_pic32mz.o
                0x9d00a15c                SYS_CLK_PeripheralFrequencyGet

.text.prvCopyDataFromQueue
                0x9d00a1ac       0x50
 .text.prvCopyDataFromQueue
                0x9d00a1ac       0x50 build/default/debug/_ext/1276567923/queue.o

.text.DRV_USART_Initialize
                0x9d00a1fc       0x4c
 .text.DRV_USART_Initialize
                0x9d00a1fc       0x4c build/default/debug/_ext/327000265/drv_usart_mapping.o
                0x9d00a1fc                DRV_USART_Initialize

.text.DRV_USART_Open
                0x9d00a248       0x4c
 .text.DRV_USART_Open
                0x9d00a248       0x4c build/default/debug/_ext/327000265/drv_usart_mapping.o
                0x9d00a248                DRV_USART_Open

.text.MAVLINK_RECV_TASK_Tasks
                0x9d00a294       0x4c
 .text.MAVLINK_RECV_TASK_Tasks
                0x9d00a294       0x4c build/default/debug/_ext/1360937237/mavlink_recv_task.o
                0x9d00a294                MAVLINK_RECV_TASK_Tasks

.text.MAVLINK_STATUS_TASK_Tasks
                0x9d00a2e0       0x4c
 .text.MAVLINK_STATUS_TASK_Tasks
                0x9d00a2e0       0x4c build/default/debug/_ext/1360937237/mavlink_status_task.o
                0x9d00a2e0                MAVLINK_STATUS_TASK_Tasks

.text.uxListRemove
                0x9d00a32c       0x4c
 .text.uxListRemove
                0x9d00a32c       0x4c build/default/debug/_ext/1276567923/list.o
                0x9d00a32c                uxListRemove

.text.DRV_USART0_TransferStatus
                0x9d00a378       0x48
 .text.DRV_USART0_TransferStatus
                0x9d00a378       0x48 build/default/debug/_ext/327000265/drv_usart_static.o
                0x9d00a378                DRV_USART0_TransferStatus

.text.SYS_DEVCON_SystemLock
                0x9d00a3c0       0x48
 .text.SYS_DEVCON_SystemLock
                0x9d00a3c0       0x48 build/default/debug/_ext/121284916/sys_devcon.o
                0x9d00a3c0                SYS_DEVCON_SystemLock

.text.vTaskEnterCritical
                0x9d00a408       0x48
 .text.vTaskEnterCritical
                0x9d00a408       0x48 build/default/debug/_ext/1276567923/tasks.o
                0x9d00a408                vTaskEnterCritical

.text.prvIdleTask
                0x9d00a450       0x48
 .text.prvIdleTask
                0x9d00a450       0x48 build/default/debug/_ext/1276567923/tasks.o
                0x9d00a450                prvIdleTask

.text._bootstrap_exception_handler
                0x9d00a498       0x48
 .text._bootstrap_exception_handler
                0x9d00a498       0x48 /opt/microchip/xc32/v2.41/bin/bin/../../lib/gcc/pic32mx/4.8.3/../../../../pic32mx/lib/libpic32.a(default-bootstrap-exception-handler.o)
                0x9d00a498                _bootstrap_exception_handler

.text._cache_err_exception_handler
                0x9d00a4e0       0x48
 .text._cache_err_exception_handler
                0x9d00a4e0       0x48 /opt/microchip/xc32/v2.41/bin/bin/../../lib/gcc/pic32mx/4.8.3/../../../../pic32mx/lib/libpic32.a(default-cache-err-exception-handler.o)
                0x9d00a4e0                _cache_err_exception_handler

.text._simple_tlb_refill_exception_handler
                0x9d00a528       0x48
 .text._simple_tlb_refill_exception_handler
                0x9d00a528       0x48 /opt/microchip/xc32/v2.41/bin/bin/../../lib/gcc/pic32mx/4.8.3/../../../../pic32mx/lib/libpic32.a(default-simple-tlb-refill-exception-handler.o)
                0x9d00a528                _simple_tlb_refill_exception_handler

.text.DRV_OC0_Initialize
                0x9d00a570       0x44
 .text.DRV_OC0_Initialize
                0x9d00a570       0x44 build/default/debug/_ext/1047219354/drv_oc_static.o
                0x9d00a570                DRV_OC0_Initialize

.text.DRV_OC1_Initialize
                0x9d00a5b4       0x44
 .text.DRV_OC1_Initialize
                0x9d00a5b4       0x44 build/default/debug/_ext/1047219354/drv_oc_static.o
                0x9d00a5b4                DRV_OC1_Initialize

.text.DRV_OC2_Initialize
                0x9d00a5f8       0x44
 .text.DRV_OC2_Initialize
                0x9d00a5f8       0x44 build/default/debug/_ext/1047219354/drv_oc_static.o
                0x9d00a5f8                DRV_OC2_Initialize

.text.DRV_OC3_Initialize
                0x9d00a63c       0x44
 .text.DRV_OC3_Initialize
                0x9d00a63c       0x44 build/default/debug/_ext/1047219354/drv_oc_static.o
                0x9d00a63c                DRV_OC3_Initialize

.text._general_exception_handler
                0x9d00a680       0x44
 .text._general_exception_handler
                0x9d00a680       0x44 build/default/debug/_ext/1688732426/general_exception_handler.o
                0x9d00a680                _general_exception_handler

.text           0x9d00a6c4       0x44
 .text          0x9d00a6c4       0x44 /opt/microchip/xc32/v2.41/bin/bin/../../lib/gcc/pic32mx/4.8.3/../../../../pic32mx/lib/pic32_software_reset.o
                0x9d00a6c4                __pic32_software_reset

.text.puts      0x9d00a708       0x44
 .text.puts     0x9d00a708       0x44 /opt/microchip/xc32/v2.41/bin/bin/../../lib/gcc/pic32mx/4.8.3/../../../../pic32mx/lib/libc.a(puts.o)
                0x9d00a708                puts

.text.strcat    0x9d00a74c       0x44
 .text.strcat   0x9d00a74c       0x44 /opt/microchip/xc32/v2.41/bin/bin/../../lib/gcc/pic32mx/4.8.3/../../../../pic32mx/lib/libc.a(strcat.o)
                0x9d00a74c                strcat

.text.DRV_USART0_WriteByte
                0x9d00a790       0x40
 .text.DRV_USART0_WriteByte
                0x9d00a790       0x40 build/default/debug/_ext/327000265/drv_usart_static_byte_model.o
                0x9d00a790                DRV_USART0_WriteByte

.text.hal_comms_init
                0x9d00a7d0       0x3c
 .text.hal_comms_init
                0x9d00a7d0       0x3c build/default/debug/_ext/1650642999/comms.o
                0x9d00a7d0                hal_comms_init

.text.DRV_TMR0_Start
                0x9d00a80c       0x3c
 .text.DRV_TMR0_Start
                0x9d00a80c       0x3c build/default/debug/_ext/1407244131/drv_tmr_static.o
                0x9d00a80c                DRV_TMR0_Start

.text.OSAL_MUTEX_Create
                0x9d00a848       0x3c
 .text.OSAL_MUTEX_Create
                0x9d00a848       0x3c build/default/debug/_ext/1353086322/osal_freertos.o
                0x9d00a848                OSAL_MUTEX_Create

.text.uxPortSetInterruptMaskFromISR
                0x9d00a884       0x3c
 .text.uxPortSetInterruptMaskFromISR
                0x9d00a884       0x3c build/default/debug/_ext/1571139743/port.o
                0x9d00a884                uxPortSetInterruptMaskFromISR

.text.OSAL_MUTEX_Lock
                0x9d00a8c0       0x38
 .text.OSAL_MUTEX_Lock
                0x9d00a8c0       0x38 build/default/debug/_ext/1353086322/osal_freertos.o
                0x9d00a8c0                OSAL_MUTEX_Lock

.text.prvResetNextTaskUnblockTime
                0x9d00a8f8       0x38
 .text.prvResetNextTaskUnblockTime
                0x9d00a8f8       0x38 build/default/debug/_ext/1276567923/tasks.o
                0x9d00a8f8                prvResetNextTaskUnblockTime

.text.vTaskPlaceOnEventList
                0x9d00a930       0x38
 .text.vTaskPlaceOnEventList
                0x9d00a930       0x38 build/default/debug/_ext/1276567923/tasks.o
                0x9d00a930                vTaskPlaceOnEventList

.text.vListInsertEnd
                0x9d00a968       0x34
 .text.vListInsertEnd
                0x9d00a968       0x34 build/default/debug/_ext/1276567923/list.o
                0x9d00a968                vListInsertEnd

.text.prvIsQueueEmpty
                0x9d00a99c       0x34
 .text.prvIsQueueEmpty
                0x9d00a99c       0x34 build/default/debug/_ext/1276567923/queue.o

.text.OSAL_MUTEX_Unlock
                0x9d00a9d0       0x30
 .text.OSAL_MUTEX_Unlock
                0x9d00a9d0       0x30 build/default/debug/_ext/1353086322/osal_freertos.o
                0x9d00a9d0                OSAL_MUTEX_Unlock

.text.prvDeleteTCB
                0x9d00aa00       0x30
 .text.prvDeleteTCB
                0x9d00aa00       0x30 build/default/debug/_ext/1276567923/tasks.o
                0x9d00aa00                prvDeleteTCB

.text.MAVLinkSend_Init
                0x9d00aa30       0x30
 .text.MAVLinkSend_Init
                0x9d00aa30       0x30 build/default/debug/_ext/1158199258/MAVLinkSendTask.o
                0x9d00aa30                MAVLinkSend_Init

.text.pvTaskIncrementMutexHeldCount
                0x9d00aa60       0x28
 .text.pvTaskIncrementMutexHeldCount
                0x9d00aa60       0x28 build/default/debug/_ext/1276567923/tasks.o
                0x9d00aa60                pvTaskIncrementMutexHeldCount

.text.sendMAVLinkMessage
                0x9d00aa88       0x28
 .text.sendMAVLinkMessage
                0x9d00aa88       0x28 build/default/debug/_ext/149289479/MAVLinkSender.o
                0x9d00aa88                sendMAVLinkMessage

.text.vApplicationStackOverflowHook
                0x9d00aab0       0x24
 .text.vApplicationStackOverflowHook
                0x9d00aab0       0x24 build/default/debug/_ext/1688732426/rtos_hooks.o
                0x9d00aab0                vApplicationStackOverflowHook

.text.vApplicationMallocFailedHook
                0x9d00aad4       0x24
 .text.vApplicationMallocFailedHook
                0x9d00aad4       0x24 build/default/debug/_ext/1688732426/rtos_hooks.o
                0x9d00aad4                vApplicationMallocFailedHook

.text.MAVLINK_SEND_TASK_Initialize
                0x9d00aaf8       0x24
 .text.MAVLINK_SEND_TASK_Initialize
                0x9d00aaf8       0x24 build/default/debug/_ext/1360937237/mavlink_send_task.o
                0x9d00aaf8                MAVLINK_SEND_TASK_Initialize

.text.prvTaskExitError
                0x9d00ab1c       0x24
 .text.prvTaskExitError
                0x9d00ab1c       0x24 build/default/debug/_ext/1571139743/port.o

.text.vListInitialise
                0x9d00ab40       0x24
 .text.vListInitialise
                0x9d00ab40       0x24 build/default/debug/_ext/1276567923/list.o
                0x9d00ab40                vListInitialise

.text._ATT_CONTROLLER_TASK_Tasks
                0x9d00ab64       0x20
 .text._ATT_CONTROLLER_TASK_Tasks
                0x9d00ab64       0x20 build/default/debug/_ext/1688732426/system_tasks.o

.text._MAVLINK_STATUS_TASK_Tasks
                0x9d00ab84       0x20
 .text._MAVLINK_STATUS_TASK_Tasks
                0x9d00ab84       0x20 build/default/debug/_ext/1688732426/system_tasks.o

.text._MAVLINK_SEND_TASK_Tasks
                0x9d00aba4       0x20
 .text._MAVLINK_SEND_TASK_Tasks
                0x9d00aba4       0x20 build/default/debug/_ext/1688732426/system_tasks.o

.text._MAVLINK_RECV_TASK_Tasks
                0x9d00abc4       0x20
 .text._MAVLINK_RECV_TASK_Tasks
                0x9d00abc4       0x20 build/default/debug/_ext/1688732426/system_tasks.o

.text._APP_Tasks
                0x9d00abe4       0x20
 .text._APP_Tasks
                0x9d00abe4       0x20 build/default/debug/_ext/1688732426/system_tasks.o

.text.main      0x9d00ac04       0x20
 .text.main     0x9d00ac04       0x20 build/default/debug/_ext/1360937237/main.o
                0x9d00ac04                main

.text.IntHandlerDrvTmrInstance0
                0x9d00ac24       0x1c
 .text.IntHandlerDrvTmrInstance0
                0x9d00ac24       0x1c build/default/debug/_ext/1688732426/system_interrupt.o
                0x9d00ac24                IntHandlerDrvTmrInstance0

.text.DRV_USART0_ReceiverBufferIsEmpty
                0x9d00ac40       0x18
 .text.DRV_USART0_ReceiverBufferIsEmpty
                0x9d00ac40       0x18 build/default/debug/_ext/327000265/drv_usart_static_byte_model.o
                0x9d00ac40                DRV_USART0_ReceiverBufferIsEmpty

.text.ATT_CONTROLLER_TASK_Tasks
                0x9d00ac58       0x18
 .text.ATT_CONTROLLER_TASK_Tasks
                0x9d00ac58       0x18 build/default/debug/_ext/1360937237/att_controller_task.o
                0x9d00ac58                ATT_CONTROLLER_TASK_Tasks

.text.MAVStatus_Init
                0x9d00ac70       0x18
 .text.MAVStatus_Init
                0x9d00ac70       0x18 build/default/debug/_ext/1315301415/MAVStatusTask.o
                0x9d00ac70                MAVStatus_Init

.text           0x9d00ac88       0x18
 .text          0x9d00ac88       0x18 /opt/microchip/xc32/v2.41/bin/bin/../../lib/gcc/pic32mx/4.8.3/../../../../pic32mx/lib/libpic32.a(default-nmi-handler.o)
                0x9d00ac88                _nmi_handler

.text.DRV_OC0_Enable
                0x9d00aca0       0x14
 .text.DRV_OC0_Enable
                0x9d00aca0       0x14 build/default/debug/_ext/1047219354/drv_oc_static.o
                0x9d00aca0                DRV_OC0_Enable

.text.DRV_OC0_Start
                0x9d00acb4       0x14
 .text.DRV_OC0_Start
                0x9d00acb4       0x14 build/default/debug/_ext/1047219354/drv_oc_static.o
                0x9d00acb4                DRV_OC0_Start

.text.DRV_OC0_PulseWidthSet
                0x9d00acc8       0x14
 .text.DRV_OC0_PulseWidthSet
                0x9d00acc8       0x14 build/default/debug/_ext/1047219354/drv_oc_static.o
                0x9d00acc8                DRV_OC0_PulseWidthSet

.text.DRV_OC1_Enable
                0x9d00acdc       0x14
 .text.DRV_OC1_Enable
                0x9d00acdc       0x14 build/default/debug/_ext/1047219354/drv_oc_static.o
                0x9d00acdc                DRV_OC1_Enable

.text.DRV_OC1_Start
                0x9d00acf0       0x14
 .text.DRV_OC1_Start
                0x9d00acf0       0x14 build/default/debug/_ext/1047219354/drv_oc_static.o
                0x9d00acf0                DRV_OC1_Start

.text.DRV_OC1_PulseWidthSet
                0x9d00ad04       0x14
 .text.DRV_OC1_PulseWidthSet
                0x9d00ad04       0x14 build/default/debug/_ext/1047219354/drv_oc_static.o
                0x9d00ad04                DRV_OC1_PulseWidthSet

.text.DRV_OC2_Enable
                0x9d00ad18       0x14
 .text.DRV_OC2_Enable
                0x9d00ad18       0x14 build/default/debug/_ext/1047219354/drv_oc_static.o
                0x9d00ad18                DRV_OC2_Enable

.text.DRV_OC2_Start
                0x9d00ad2c       0x14
 .text.DRV_OC2_Start
                0x9d00ad2c       0x14 build/default/debug/_ext/1047219354/drv_oc_static.o
                0x9d00ad2c                DRV_OC2_Start

.text.DRV_OC2_PulseWidthSet
                0x9d00ad40       0x14
 .text.DRV_OC2_PulseWidthSet
                0x9d00ad40       0x14 build/default/debug/_ext/1047219354/drv_oc_static.o
                0x9d00ad40                DRV_OC2_PulseWidthSet

.text.DRV_OC3_Enable
                0x9d00ad54       0x14
 .text.DRV_OC3_Enable
                0x9d00ad54       0x14 build/default/debug/_ext/1047219354/drv_oc_static.o
                0x9d00ad54                DRV_OC3_Enable

.text.DRV_OC3_Start
                0x9d00ad68       0x14
 .text.DRV_OC3_Start
                0x9d00ad68       0x14 build/default/debug/_ext/1047219354/drv_oc_static.o
                0x9d00ad68                DRV_OC3_Start

.text.DRV_OC3_PulseWidthSet
                0x9d00ad7c       0x14
 .text.DRV_OC3_PulseWidthSet
                0x9d00ad7c       0x14 build/default/debug/_ext/1047219354/drv_oc_static.o
                0x9d00ad7c                DRV_OC3_PulseWidthSet

.text.SYS_DEVCON_Initialize
                0x9d00ad90       0x14
 .text.SYS_DEVCON_Initialize
                0x9d00ad90       0x14 build/default/debug/_ext/121284916/sys_devcon.o
                0x9d00ad90                SYS_DEVCON_Initialize

.text.SYS_INT_Initialize
                0x9d00ada4       0x14
 .text.SYS_INT_Initialize
                0x9d00ada4       0x14 build/default/debug/_ext/1317643790/sys_int_pic32.o
                0x9d00ada4                SYS_INT_Initialize

.text.vTaskSuspendAll
                0x9d00adb8       0x14
 .text.vTaskSuspendAll
                0x9d00adb8       0x14 build/default/debug/_ext/1276567923/tasks.o
                0x9d00adb8                vTaskSuspendAll

.text.vTaskInternalSetTimeOutState
                0x9d00adcc       0x14
 .text.vTaskInternalSetTimeOutState
                0x9d00adcc       0x14 build/default/debug/_ext/1276567923/tasks.o
                0x9d00adcc                vTaskInternalSetTimeOutState

.text.vTaskMissedYield
                0x9d00ade0       0x10
 .text.vTaskMissedYield
                0x9d00ade0       0x10 build/default/debug/_ext/1276567923/tasks.o
                0x9d00ade0                vTaskMissedYield

.text.__exception_handler_break
                0x9d0000f4        0xc
 .text.__exception_handler_break
                0x9d0000f4        0xc /opt/microchip/xc32/v2.41/bin/bin/../../lib/gcc/pic32mx/4.8.3/../../../../pic32mx/lib/software-debug-break.o
                0x9d0000f4                __exception_handler_break

.text.SYS_CLK_SystemFrequencyGet
                0x9d00adf0        0xc
 .text.SYS_CLK_SystemFrequencyGet
                0x9d00adf0        0xc build/default/debug/_ext/639803181/sys_clk_pic32mz.o
                0x9d00adf0                SYS_CLK_SystemFrequencyGet

.text.DRV_USART_TasksTransmit
                0x9d0001f8        0x8
 .text.DRV_USART_TasksTransmit
                0x9d0001f8        0x8 build/default/debug/_ext/327000265/drv_usart_mapping.o
                0x9d0001f8                DRV_USART_TasksTransmit

.text.DRV_USART_TasksReceive
                0x9d00adfc        0x8
 .text.DRV_USART_TasksReceive
                0x9d00adfc        0x8 build/default/debug/_ext/327000265/drv_usart_mapping.o
                0x9d00adfc                DRV_USART_TasksReceive

.text.DRV_USART_TasksError
                0x9d00ae04        0x8
 .text.DRV_USART_TasksError
                0x9d00ae04        0x8 build/default/debug/_ext/327000265/drv_usart_mapping.o
                0x9d00ae04                DRV_USART_TasksError

.text.DRV_USART0_Open
                0x9d00ae0c        0x8
 .text.DRV_USART0_Open
                0x9d00ae0c        0x8 build/default/debug/_ext/327000265/drv_usart_static.o
                0x9d00ae0c                DRV_USART0_Open

.text.DRV_USART1_Open
                0x9d00ae14        0x8
 .text.DRV_USART1_Open
                0x9d00ae14        0x8 build/default/debug/_ext/327000265/drv_usart_static.o
                0x9d00ae14                DRV_USART1_Open

.text.vApplicationIdleHook
                0x9d00ae1c        0x8
 .text.vApplicationIdleHook
                0x9d00ae1c        0x8 build/default/debug/_ext/1688732426/rtos_hooks.o
                0x9d00ae1c                vApplicationIdleHook

.text.vApplicationTickHook
                0x9d00ae24        0x8
 .text.vApplicationTickHook
                0x9d00ae24        0x8 build/default/debug/_ext/1688732426/rtos_hooks.o
                0x9d00ae24                vApplicationTickHook

.text.APP_Initialize
                0x9d00ae2c        0x8
 .text.APP_Initialize
                0x9d00ae2c        0x8 build/default/debug/_ext/1360937237/app.o
                0x9d00ae2c                APP_Initialize

.text.MAVLINK_RECV_TASK_Initialize
                0x9d00ae34        0x8
 .text.MAVLINK_RECV_TASK_Initialize
                0x9d00ae34        0x8 build/default/debug/_ext/1360937237/mavlink_recv_task.o
                0x9d00ae34                MAVLINK_RECV_TASK_Initialize

.text.MAVLINK_STATUS_TASK_Initialize
                0x9d00ae3c        0x8
 .text.MAVLINK_STATUS_TASK_Initialize
                0x9d00ae3c        0x8 build/default/debug/_ext/1360937237/mavlink_status_task.o
                0x9d00ae3c                MAVLINK_STATUS_TASK_Initialize

.text.ATT_CONTROLLER_TASK_Initialize
                0x9d00ae44        0x8
 .text.ATT_CONTROLLER_TASK_Initialize
                0x9d00ae44        0x8 build/default/debug/_ext/1360937237/att_controller_task.o
                0x9d00ae44                ATT_CONTROLLER_TASK_Initialize

.text.SYS_DEVCON_Tasks
                0x9d00ae4c        0x8
 .text.SYS_DEVCON_Tasks
                0x9d00ae4c        0x8 build/default/debug/_ext/121284916/sys_devcon.o
                0x9d00ae4c                SYS_DEVCON_Tasks

.text.vPortFree
                0x9d00ae54        0x8
 .text.vPortFree
                0x9d00ae54        0x8 build/default/debug/_ext/457403440/heap_1.o
                0x9d00ae54                vPortFree

.text.vListInitialiseItem
                0x9d00ae5c        0x8
 .text.vListInitialiseItem
                0x9d00ae5c        0x8 build/default/debug/_ext/1276567923/list.o
                0x9d00ae5c                vListInitialiseItem

.rodata         0x9d00ae64        0x8
 .rodata        0x9d00ae64        0x8 build/default/debug/_ext/1276567923/tasks.o

.text.MAVStatus_Update
                0x9d00ae6c        0x8
 .text.MAVStatus_Update
                0x9d00ae6c        0x8 build/default/debug/_ext/1315301415/MAVStatusTask.o
                0x9d00ae6c                MAVStatus_Update

.text._on_reset
                0x9d00ae74        0x8
 .text._on_reset
                0x9d00ae74        0x8 /opt/microchip/xc32/v2.41/bin/bin/../../lib/gcc/pic32mx/4.8.3/../../../../pic32mx/lib/libpic32.a(default-on-reset.o)
                0x9d00ae74                _on_reset

.text._on_bootstrap
                0x9d00ae7c        0x8
 .text._on_bootstrap
                0x9d00ae7c        0x8 /opt/microchip/xc32/v2.41/bin/bin/../../lib/gcc/pic32mx/4.8.3/../../../../pic32mx/lib/libpic32.a(default-on-bootstrap.o)
                0x9d00ae7c                _on_bootstrap

.rodata         0x9d00017c        0x4
 .rodata        0x9d00017c        0x4 build/default/debug/_ext/1688732426/system_init.o
                0x9d00017c                sysDevconInit

.rodata         0x9d00ae84        0x4
 .rodata        0x9d00ae84        0x4 build/default/debug/_ext/1571139743/port.o
                0x9d00ae84                xISRStackTop
